Archive member included because of file (symbol)

c:/altera/12.1/nios2eds/bin/gnu/h-i686-mingw32/bin/../lib/gcc/nios2-elf/4.1.2/../../../../nios2-elf/lib\libstdc++.a(eh_personality.o)
                              obj/default/COMM_CarProtocol/ADCInfoMessage.o (__gxx_personality_sj0)
c:/altera/12.1/nios2eds/bin/gnu/h-i686-mingw32/bin/../lib/gcc/nios2-elf/4.1.2/../../../../nios2-elf/lib\libstdc++.a(eh_exception.o)
                              c:/altera/12.1/nios2eds/bin/gnu/h-i686-mingw32/bin/../lib/gcc/nios2-elf/4.1.2/../../../../nios2-elf/lib\libstdc++.a(eh_personality.o) (vtable for std::bad_exception)
c:/altera/12.1/nios2eds/bin/gnu/h-i686-mingw32/bin/../lib/gcc/nios2-elf/4.1.2/../../../../nios2-elf/lib\libstdc++.a(del_op.o)
                              obj/default/COMM_CarProtocol/ADCInfoMessage.o (operator delete(void*))
c:/altera/12.1/nios2eds/bin/gnu/h-i686-mingw32/bin/../lib/gcc/nios2-elf/4.1.2/../../../../nios2-elf/lib\libstdc++.a(eh_call.o)
                              c:/altera/12.1/nios2eds/bin/gnu/h-i686-mingw32/bin/../lib/gcc/nios2-elf/4.1.2/../../../../nios2-elf/lib\libstdc++.a(eh_personality.o) (__cxa_call_terminate)
c:/altera/12.1/nios2eds/bin/gnu/h-i686-mingw32/bin/../lib/gcc/nios2-elf/4.1.2/../../../../nios2-elf/lib\libstdc++.a(class_type_info.o)
                              obj/default/COMM_CarProtocol/CarMessage.o (vtable for __cxxabiv1::__class_type_info)
c:/altera/12.1/nios2eds/bin/gnu/h-i686-mingw32/bin/../lib/gcc/nios2-elf/4.1.2/../../../../nios2-elf/lib\libstdc++.a(new_op.o)
                              obj/default/COMM_CarProtocol/CarProtocol.o (operator new(unsigned long))
c:/altera/12.1/nios2eds/bin/gnu/h-i686-mingw32/bin/../lib/gcc/nios2-elf/4.1.2/../../../../nios2-elf/lib\libstdc++.a(si_class_type_info.o)
                              obj/default/COMM_CarProtocol/ADCInfoMessage.o (vtable for __cxxabiv1::__si_class_type_info)
c:/altera/12.1/nios2eds/bin/gnu/h-i686-mingw32/bin/../lib/gcc/nios2-elf/4.1.2/../../../../nios2-elf/lib\libstdc++.a(eh_alloc.o)
                              c:/altera/12.1/nios2eds/bin/gnu/h-i686-mingw32/bin/../lib/gcc/nios2-elf/4.1.2/../../../../nios2-elf/lib\libstdc++.a(eh_personality.o) (__cxa_allocate_exception)
c:/altera/12.1/nios2eds/bin/gnu/h-i686-mingw32/bin/../lib/gcc/nios2-elf/4.1.2/../../../../nios2-elf/lib\libstdc++.a(tinfo.o)
                              c:/altera/12.1/nios2eds/bin/gnu/h-i686-mingw32/bin/../lib/gcc/nios2-elf/4.1.2/../../../../nios2-elf/lib\libstdc++.a(class_type_info.o) (std::type_info::__is_pointer_p() const)
c:/altera/12.1/nios2eds/bin/gnu/h-i686-mingw32/bin/../lib/gcc/nios2-elf/4.1.2/../../../../nios2-elf/lib\libstdc++.a(eh_throw.o)
                              c:/altera/12.1/nios2eds/bin/gnu/h-i686-mingw32/bin/../lib/gcc/nios2-elf/4.1.2/../../../../nios2-elf/lib\libstdc++.a(eh_personality.o) (__cxa_rethrow)
c:/altera/12.1/nios2eds/bin/gnu/h-i686-mingw32/bin/../lib/gcc/nios2-elf/4.1.2/../../../../nios2-elf/lib\libstdc++.a(eh_terminate.o)
                              c:/altera/12.1/nios2eds/bin/gnu/h-i686-mingw32/bin/../lib/gcc/nios2-elf/4.1.2/../../../../nios2-elf/lib\libstdc++.a(eh_personality.o) (__cxxabiv1::__terminate(void (*)()))
c:/altera/12.1/nios2eds/bin/gnu/h-i686-mingw32/bin/../lib/gcc/nios2-elf/4.1.2/../../../../nios2-elf/lib\libstdc++.a(eh_globals.o)
                              c:/altera/12.1/nios2eds/bin/gnu/h-i686-mingw32/bin/../lib/gcc/nios2-elf/4.1.2/../../../../nios2-elf/lib\libstdc++.a(eh_personality.o) (__cxa_get_globals_fast)
c:/altera/12.1/nios2eds/bin/gnu/h-i686-mingw32/bin/../lib/gcc/nios2-elf/4.1.2/../../../../nios2-elf/lib\libstdc++.a(eh_unex_handler.o)
                              c:/altera/12.1/nios2eds/bin/gnu/h-i686-mingw32/bin/../lib/gcc/nios2-elf/4.1.2/../../../../nios2-elf/lib\libstdc++.a(eh_throw.o) (__cxxabiv1::__unexpected_handler)
c:/altera/12.1/nios2eds/bin/gnu/h-i686-mingw32/bin/../lib/gcc/nios2-elf/4.1.2/../../../../nios2-elf/lib\libstdc++.a(new_handler.o)
                              c:/altera/12.1/nios2eds/bin/gnu/h-i686-mingw32/bin/../lib/gcc/nios2-elf/4.1.2/../../../../nios2-elf/lib\libstdc++.a(new_op.o) (__new_handler)
c:/altera/12.1/nios2eds/bin/gnu/h-i686-mingw32/bin/../lib/gcc/nios2-elf/4.1.2/../../../../nios2-elf/lib\libstdc++.a(eh_catch.o)
                              c:/altera/12.1/nios2eds/bin/gnu/h-i686-mingw32/bin/../lib/gcc/nios2-elf/4.1.2/../../../../nios2-elf/lib\libstdc++.a(eh_personality.o) (__cxa_end_catch)
c:/altera/12.1/nios2eds/bin/gnu/h-i686-mingw32/bin/../lib/gcc/nios2-elf/4.1.2/../../../../nios2-elf/lib\libstdc++.a(eh_term_handler.o)
                              c:/altera/12.1/nios2eds/bin/gnu/h-i686-mingw32/bin/../lib/gcc/nios2-elf/4.1.2/../../../../nios2-elf/lib\libstdc++.a(eh_throw.o) (__cxxabiv1::__terminate_handler)
c:/altera/12.1/nios2eds/bin/gnu/h-i686-mingw32/bin/../lib/gcc/nios2-elf/4.1.2\libgcc.a(lib2-divmod.o)
                              obj/default/external_drivers/adc_interface.o (__udivsi3)
c:/altera/12.1/nios2eds/bin/gnu/h-i686-mingw32/bin/../lib/gcc/nios2-elf/4.1.2\libgcc.a(unwind-sjlj.o)
                              obj/default/COMM_CarProtocol/ADCInfoMessage.o (_Unwind_SjLj_Register)
c:/altera/12.1/nios2eds/bin/gnu/h-i686-mingw32/bin/../lib/gcc/nios2-elf/4.1.2/../../../../nios2-elf/lib\libc.a(lib_a-abort.o)
                              c:/altera/12.1/nios2eds/bin/gnu/h-i686-mingw32/bin/../lib/gcc/nios2-elf/4.1.2/../../../../nios2-elf/lib\libstdc++.a(eh_personality.o) (abort)
c:/altera/12.1/nios2eds/bin/gnu/h-i686-mingw32/bin/../lib/gcc/nios2-elf/4.1.2/../../../../nios2-elf/lib\libc.a(lib_a-ctype_.o)
                              obj/default/network_utilities.o (__ctype_ptr)
c:/altera/12.1/nios2eds/bin/gnu/h-i686-mingw32/bin/../lib/gcc/nios2-elf/4.1.2/../../../../nios2-elf/lib\libc.a(lib_a-fprintf.o)
                              obj/default/alt_error_handler.o (fprintf)
c:/altera/12.1/nios2eds/bin/gnu/h-i686-mingw32/bin/../lib/gcc/nios2-elf/4.1.2/../../../../nios2-elf/lib\libc.a(lib_a-fwrite.o)
                              obj/default/alt_error_handler.o (fwrite)
c:/altera/12.1/nios2eds/bin/gnu/h-i686-mingw32/bin/../lib/gcc/nios2-elf/4.1.2/../../../../nios2-elf/lib\libc.a(lib_a-getc.o)
                              obj/default/network_utilities.o (getc)
c:/altera/12.1/nios2eds/bin/gnu/h-i686-mingw32/bin/../lib/gcc/nios2-elf/4.1.2/../../../../nios2-elf/lib\libc.a(lib_a-impure.o)
                              obj/default/alt_error_handler.o (_impure_ptr)
c:/altera/12.1/nios2eds/bin/gnu/h-i686-mingw32/bin/../lib/gcc/nios2-elf/4.1.2/../../../../nios2-elf/lib\libc.a(lib_a-malloc.o)
                              c:/altera/12.1/nios2eds/bin/gnu/h-i686-mingw32/bin/../lib/gcc/nios2-elf/4.1.2/../../../../nios2-elf/lib\libstdc++.a(del_op.o) (free)
c:/altera/12.1/nios2eds/bin/gnu/h-i686-mingw32/bin/../lib/gcc/nios2-elf/4.1.2/../../../../nios2-elf/lib\libc.a(lib_a-mallocr.o)
                              c:/altera/12.1/nios2eds/bin/gnu/h-i686-mingw32/bin/../lib/gcc/nios2-elf/4.1.2/../../../../nios2-elf/lib\libc.a(lib_a-malloc.o) (_malloc_r)
c:/altera/12.1/nios2eds/bin/gnu/h-i686-mingw32/bin/../lib/gcc/nios2-elf/4.1.2/../../../../nios2-elf/lib\libc.a(lib_a-memmove.o)
                              obj/default/socketserver.o (memmove)
c:/altera/12.1/nios2eds/bin/gnu/h-i686-mingw32/bin/../lib/gcc/nios2-elf/4.1.2/../../../../nios2-elf/lib\libc.a(lib_a-memset.o)
                              obj/default/socketserver.o (memset)
c:/altera/12.1/nios2eds/bin/gnu/h-i686-mingw32/bin/../lib/gcc/nios2-elf/4.1.2/../../../../nios2-elf/lib\libc.a(lib_a-perror.o)
                              obj/default/alt_error_handler.o (perror)
c:/altera/12.1/nios2eds/bin/gnu/h-i686-mingw32/bin/../lib/gcc/nios2-elf/4.1.2/../../../../nios2-elf/lib\libc.a(lib_a-printf.o)
                              obj/default/alt_error_handler.o (printf)
c:/altera/12.1/nios2eds/bin/gnu/h-i686-mingw32/bin/../lib/gcc/nios2-elf/4.1.2/../../../../nios2-elf/lib\libc.a(lib_a-putc.o)
                              obj/default/network_utilities.o (putc)
c:/altera/12.1/nios2eds/bin/gnu/h-i686-mingw32/bin/../lib/gcc/nios2-elf/4.1.2/../../../../nios2-elf/lib\libc.a(lib_a-putchar.o)
                              obj/default/network_utilities.o (putchar)
c:/altera/12.1/nios2eds/bin/gnu/h-i686-mingw32/bin/../lib/gcc/nios2-elf/4.1.2/../../../../nios2-elf/lib\libc.a(lib_a-puts.o)
                              obj/default/alt_error_handler.o (puts)
c:/altera/12.1/nios2eds/bin/gnu/h-i686-mingw32/bin/../lib/gcc/nios2-elf/4.1.2/../../../../nios2-elf/lib\libc.a(lib_a-rget.o)
                              c:/altera/12.1/nios2eds/bin/gnu/h-i686-mingw32/bin/../lib/gcc/nios2-elf/4.1.2/../../../../nios2-elf/lib\libc.a(lib_a-getc.o) (__srget_r)
c:/altera/12.1/nios2eds/bin/gnu/h-i686-mingw32/bin/../lib/gcc/nios2-elf/4.1.2/../../../../nios2-elf/lib\libc.a(lib_a-sbrkr.o)
                              c:/altera/12.1/nios2eds/bin/gnu/h-i686-mingw32/bin/../lib/gcc/nios2-elf/4.1.2/../../../../nios2-elf/lib\libc.a(lib_a-mallocr.o) (_sbrk_r)
c:/altera/12.1/nios2eds/bin/gnu/h-i686-mingw32/bin/../lib/gcc/nios2-elf/4.1.2/../../../../nios2-elf/lib\libc.a(lib_a-signal.o)
                              c:/altera/12.1/nios2eds/bin/gnu/h-i686-mingw32/bin/../lib/gcc/nios2-elf/4.1.2/../../../../nios2-elf/lib\libc.a(lib_a-abort.o) (raise)
c:/altera/12.1/nios2eds/bin/gnu/h-i686-mingw32/bin/../lib/gcc/nios2-elf/4.1.2/../../../../nios2-elf/lib\libc.a(lib_a-signalr.o)
                              c:/altera/12.1/nios2eds/bin/gnu/h-i686-mingw32/bin/../lib/gcc/nios2-elf/4.1.2/../../../../nios2-elf/lib\libc.a(lib_a-signal.o) (_getpid_r)
c:/altera/12.1/nios2eds/bin/gnu/h-i686-mingw32/bin/../lib/gcc/nios2-elf/4.1.2/../../../../nios2-elf/lib\libc.a(lib_a-strerror.o)
                              c:/altera/12.1/nios2eds/bin/gnu/h-i686-mingw32/bin/../lib/gcc/nios2-elf/4.1.2/../../../../nios2-elf/lib\libc.a(lib_a-perror.o) (strerror)
c:/altera/12.1/nios2eds/bin/gnu/h-i686-mingw32/bin/../lib/gcc/nios2-elf/4.1.2/../../../../nios2-elf/lib\libc.a(lib_a-strlen.o)
                              c:/altera/12.1/nios2eds/bin/gnu/h-i686-mingw32/bin/../lib/gcc/nios2-elf/4.1.2/../../../../nios2-elf/lib\libc.a(lib_a-puts.o) (strlen)
c:/altera/12.1/nios2eds/bin/gnu/h-i686-mingw32/bin/../lib/gcc/nios2-elf/4.1.2/../../../../nios2-elf/lib\libc.a(lib_a-u_strerr.o)
                              c:/altera/12.1/nios2eds/bin/gnu/h-i686-mingw32/bin/../lib/gcc/nios2-elf/4.1.2/../../../../nios2-elf/lib\libc.a(lib_a-strerror.o) (_user_strerror)
c:/altera/12.1/nios2eds/bin/gnu/h-i686-mingw32/bin/../lib/gcc/nios2-elf/4.1.2/../../../../nios2-elf/lib\libc.a(lib_a-vfprintf.o)
                              c:/altera/12.1/nios2eds/bin/gnu/h-i686-mingw32/bin/../lib/gcc/nios2-elf/4.1.2/../../../../nios2-elf/lib\libc.a(lib_a-printf.o) (___vfprintf_internal_r)
c:/altera/12.1/nios2eds/bin/gnu/h-i686-mingw32/bin/../lib/gcc/nios2-elf/4.1.2/../../../../nios2-elf/lib\libc.a(lib_a-wbuf.o)
                              c:/altera/12.1/nios2eds/bin/gnu/h-i686-mingw32/bin/../lib/gcc/nios2-elf/4.1.2/../../../../nios2-elf/lib\libc.a(lib_a-putc.o) (__swbuf_r)
c:/altera/12.1/nios2eds/bin/gnu/h-i686-mingw32/bin/../lib/gcc/nios2-elf/4.1.2/../../../../nios2-elf/lib\libc.a(lib_a-wsetup.o)
                              c:/altera/12.1/nios2eds/bin/gnu/h-i686-mingw32/bin/../lib/gcc/nios2-elf/4.1.2/../../../../nios2-elf/lib\libc.a(lib_a-vfprintf.o) (__swsetup_r)
c:/altera/12.1/nios2eds/bin/gnu/h-i686-mingw32/bin/../lib/gcc/nios2-elf/4.1.2/../../../../nios2-elf/lib\libc.a(lib_a-dtoa.o)
                              c:/altera/12.1/nios2eds/bin/gnu/h-i686-mingw32/bin/../lib/gcc/nios2-elf/4.1.2/../../../../nios2-elf/lib\libc.a(lib_a-vfprintf.o) (_dtoa_r)
c:/altera/12.1/nios2eds/bin/gnu/h-i686-mingw32/bin/../lib/gcc/nios2-elf/4.1.2/../../../../nios2-elf/lib\libc.a(lib_a-fflush.o)
                              c:/altera/12.1/nios2eds/bin/gnu/h-i686-mingw32/bin/../lib/gcc/nios2-elf/4.1.2/../../../../nios2-elf/lib\libc.a(lib_a-vfprintf.o) (_fflush_r)
c:/altera/12.1/nios2eds/bin/gnu/h-i686-mingw32/bin/../lib/gcc/nios2-elf/4.1.2/../../../../nios2-elf/lib\libc.a(lib_a-findfp.o)
                              c:/altera/12.1/nios2eds/bin/gnu/h-i686-mingw32/bin/../lib/gcc/nios2-elf/4.1.2/../../../../nios2-elf/lib\libc.a(lib_a-fwrite.o) (__sinit)
c:/altera/12.1/nios2eds/bin/gnu/h-i686-mingw32/bin/../lib/gcc/nios2-elf/4.1.2/../../../../nios2-elf/lib\libc.a(lib_a-fputc.o)
                              c:/altera/12.1/nios2eds/bin/gnu/h-i686-mingw32/bin/../lib/gcc/nios2-elf/4.1.2/../../../../nios2-elf/lib\libc.a(lib_a-perror.o) (fputc)
c:/altera/12.1/nios2eds/bin/gnu/h-i686-mingw32/bin/../lib/gcc/nios2-elf/4.1.2/../../../../nios2-elf/lib\libc.a(lib_a-fputs.o)
                              c:/altera/12.1/nios2eds/bin/gnu/h-i686-mingw32/bin/../lib/gcc/nios2-elf/4.1.2/../../../../nios2-elf/lib\libc.a(lib_a-perror.o) (fputs)
c:/altera/12.1/nios2eds/bin/gnu/h-i686-mingw32/bin/../lib/gcc/nios2-elf/4.1.2/../../../../nios2-elf/lib\libc.a(lib_a-freer.o)
                              c:/altera/12.1/nios2eds/bin/gnu/h-i686-mingw32/bin/../lib/gcc/nios2-elf/4.1.2/../../../../nios2-elf/lib\libc.a(lib_a-malloc.o) (_free_r)
c:/altera/12.1/nios2eds/bin/gnu/h-i686-mingw32/bin/../lib/gcc/nios2-elf/4.1.2/../../../../nios2-elf/lib\libc.a(lib_a-fvwrite.o)
                              c:/altera/12.1/nios2eds/bin/gnu/h-i686-mingw32/bin/../lib/gcc/nios2-elf/4.1.2/../../../../nios2-elf/lib\libc.a(lib_a-fwrite.o) (__sfvwrite_r)
c:/altera/12.1/nios2eds/bin/gnu/h-i686-mingw32/bin/../lib/gcc/nios2-elf/4.1.2/../../../../nios2-elf/lib\libc.a(lib_a-fwalk.o)
                              c:/altera/12.1/nios2eds/bin/gnu/h-i686-mingw32/bin/../lib/gcc/nios2-elf/4.1.2/../../../../nios2-elf/lib\libc.a(lib_a-fflush.o) (_fwalk_reent)
c:/altera/12.1/nios2eds/bin/gnu/h-i686-mingw32/bin/../lib/gcc/nios2-elf/4.1.2/../../../../nios2-elf/lib\libc.a(lib_a-int_errno.o)
                              c:/altera/12.1/nios2eds/bin/gnu/h-i686-mingw32/bin/../lib/gcc/nios2-elf/4.1.2/../../../../nios2-elf/lib\libc.a(lib_a-sbrkr.o) (errno)
c:/altera/12.1/nios2eds/bin/gnu/h-i686-mingw32/bin/../lib/gcc/nios2-elf/4.1.2/../../../../nios2-elf/lib\libc.a(lib_a-locale.o)
                              c:/altera/12.1/nios2eds/bin/gnu/h-i686-mingw32/bin/../lib/gcc/nios2-elf/4.1.2/../../../../nios2-elf/lib\libc.a(lib_a-vfprintf.o) (_localeconv_r)
c:/altera/12.1/nios2eds/bin/gnu/h-i686-mingw32/bin/../lib/gcc/nios2-elf/4.1.2/../../../../nios2-elf/lib\libc.a(lib_a-makebuf.o)
                              c:/altera/12.1/nios2eds/bin/gnu/h-i686-mingw32/bin/../lib/gcc/nios2-elf/4.1.2/../../../../nios2-elf/lib\libc.a(lib_a-wsetup.o) (__smakebuf_r)
c:/altera/12.1/nios2eds/bin/gnu/h-i686-mingw32/bin/../lib/gcc/nios2-elf/4.1.2/../../../../nios2-elf/lib\libc.a(lib_a-memchr.o)
                              c:/altera/12.1/nios2eds/bin/gnu/h-i686-mingw32/bin/../lib/gcc/nios2-elf/4.1.2/../../../../nios2-elf/lib\libc.a(lib_a-vfprintf.o) (memchr)
c:/altera/12.1/nios2eds/bin/gnu/h-i686-mingw32/bin/../lib/gcc/nios2-elf/4.1.2/../../../../nios2-elf/lib\libc.a(lib_a-memcpy.o)
                              c:/altera/12.1/nios2eds/bin/gnu/h-i686-mingw32/bin/../lib/gcc/nios2-elf/4.1.2/../../../../nios2-elf/lib\libc.a(lib_a-dtoa.o) (memcpy)
c:/altera/12.1/nios2eds/bin/gnu/h-i686-mingw32/bin/../lib/gcc/nios2-elf/4.1.2/../../../../nios2-elf/lib\libc.a(lib_a-mprec.o)
                              c:/altera/12.1/nios2eds/bin/gnu/h-i686-mingw32/bin/../lib/gcc/nios2-elf/4.1.2/../../../../nios2-elf/lib\libc.a(lib_a-dtoa.o) (_Bfree)
c:/altera/12.1/nios2eds/bin/gnu/h-i686-mingw32/bin/../lib/gcc/nios2-elf/4.1.2/../../../../nios2-elf/lib\libc.a(lib_a-reallocr.o)
                              c:/altera/12.1/nios2eds/bin/gnu/h-i686-mingw32/bin/../lib/gcc/nios2-elf/4.1.2/../../../../nios2-elf/lib\libc.a(lib_a-fvwrite.o) (_realloc_r)
c:/altera/12.1/nios2eds/bin/gnu/h-i686-mingw32/bin/../lib/gcc/nios2-elf/4.1.2/../../../../nios2-elf/lib\libc.a(lib_a-refill.o)
                              c:/altera/12.1/nios2eds/bin/gnu/h-i686-mingw32/bin/../lib/gcc/nios2-elf/4.1.2/../../../../nios2-elf/lib\libc.a(lib_a-rget.o) (__srefill_r)
c:/altera/12.1/nios2eds/bin/gnu/h-i686-mingw32/bin/../lib/gcc/nios2-elf/4.1.2/../../../../nios2-elf/lib\libc.a(lib_a-s_isinfd.o)
                              c:/altera/12.1/nios2eds/bin/gnu/h-i686-mingw32/bin/../lib/gcc/nios2-elf/4.1.2/../../../../nios2-elf/lib\libc.a(lib_a-vfprintf.o) (__isinfd)
c:/altera/12.1/nios2eds/bin/gnu/h-i686-mingw32/bin/../lib/gcc/nios2-elf/4.1.2/../../../../nios2-elf/lib\libc.a(lib_a-s_isnand.o)
                              c:/altera/12.1/nios2eds/bin/gnu/h-i686-mingw32/bin/../lib/gcc/nios2-elf/4.1.2/../../../../nios2-elf/lib\libc.a(lib_a-vfprintf.o) (__isnand)
c:/altera/12.1/nios2eds/bin/gnu/h-i686-mingw32/bin/../lib/gcc/nios2-elf/4.1.2/../../../../nios2-elf/lib\libc.a(lib_a-stdio.o)
                              c:/altera/12.1/nios2eds/bin/gnu/h-i686-mingw32/bin/../lib/gcc/nios2-elf/4.1.2/../../../../nios2-elf/lib\libc.a(lib_a-findfp.o) (__sclose)
c:/altera/12.1/nios2eds/bin/gnu/h-i686-mingw32/bin/../lib/gcc/nios2-elf/4.1.2/../../../../nios2-elf/lib\libc.a(lib_a-strcmp.o)
                              c:/altera/12.1/nios2eds/bin/gnu/h-i686-mingw32/bin/../lib/gcc/nios2-elf/4.1.2/../../../../nios2-elf/lib\libc.a(lib_a-locale.o) (strcmp)
c:/altera/12.1/nios2eds/bin/gnu/h-i686-mingw32/bin/../lib/gcc/nios2-elf/4.1.2/../../../../nios2-elf/lib\libc.a(lib_a-writer.o)
                              c:/altera/12.1/nios2eds/bin/gnu/h-i686-mingw32/bin/../lib/gcc/nios2-elf/4.1.2/../../../../nios2-elf/lib\libc.a(lib_a-stdio.o) (_write_r)
c:/altera/12.1/nios2eds/bin/gnu/h-i686-mingw32/bin/../lib/gcc/nios2-elf/4.1.2/../../../../nios2-elf/lib\libc.a(lib_a-callocr.o)
                              c:/altera/12.1/nios2eds/bin/gnu/h-i686-mingw32/bin/../lib/gcc/nios2-elf/4.1.2/../../../../nios2-elf/lib\libc.a(lib_a-mprec.o) (_calloc_r)
c:/altera/12.1/nios2eds/bin/gnu/h-i686-mingw32/bin/../lib/gcc/nios2-elf/4.1.2/../../../../nios2-elf/lib\libc.a(lib_a-closer.o)
                              c:/altera/12.1/nios2eds/bin/gnu/h-i686-mingw32/bin/../lib/gcc/nios2-elf/4.1.2/../../../../nios2-elf/lib\libc.a(lib_a-stdio.o) (_close_r)
c:/altera/12.1/nios2eds/bin/gnu/h-i686-mingw32/bin/../lib/gcc/nios2-elf/4.1.2/../../../../nios2-elf/lib\libc.a(lib_a-fclose.o)
                              c:/altera/12.1/nios2eds/bin/gnu/h-i686-mingw32/bin/../lib/gcc/nios2-elf/4.1.2/../../../../nios2-elf/lib\libc.a(lib_a-findfp.o) (fclose)
c:/altera/12.1/nios2eds/bin/gnu/h-i686-mingw32/bin/../lib/gcc/nios2-elf/4.1.2/../../../../nios2-elf/lib\libc.a(lib_a-fstatr.o)
                              c:/altera/12.1/nios2eds/bin/gnu/h-i686-mingw32/bin/../lib/gcc/nios2-elf/4.1.2/../../../../nios2-elf/lib\libc.a(lib_a-makebuf.o) (_fstat_r)
c:/altera/12.1/nios2eds/bin/gnu/h-i686-mingw32/bin/../lib/gcc/nios2-elf/4.1.2/../../../../nios2-elf/lib\libc.a(lib_a-isattyr.o)
                              c:/altera/12.1/nios2eds/bin/gnu/h-i686-mingw32/bin/../lib/gcc/nios2-elf/4.1.2/../../../../nios2-elf/lib\libc.a(lib_a-makebuf.o) (_isatty_r)
c:/altera/12.1/nios2eds/bin/gnu/h-i686-mingw32/bin/../lib/gcc/nios2-elf/4.1.2/../../../../nios2-elf/lib\libc.a(lib_a-lseekr.o)
                              c:/altera/12.1/nios2eds/bin/gnu/h-i686-mingw32/bin/../lib/gcc/nios2-elf/4.1.2/../../../../nios2-elf/lib\libc.a(lib_a-stdio.o) (_lseek_r)
c:/altera/12.1/nios2eds/bin/gnu/h-i686-mingw32/bin/../lib/gcc/nios2-elf/4.1.2/../../../../nios2-elf/lib\libc.a(lib_a-readr.o)
                              c:/altera/12.1/nios2eds/bin/gnu/h-i686-mingw32/bin/../lib/gcc/nios2-elf/4.1.2/../../../../nios2-elf/lib\libc.a(lib_a-stdio.o) (_read_r)
c:/altera/12.1/nios2eds/bin/gnu/h-i686-mingw32/bin/../lib/gcc/nios2-elf/4.1.2\libgcc.a(_udivdi3.o)
                              c:/altera/12.1/nios2eds/bin/gnu/h-i686-mingw32/bin/../lib/gcc/nios2-elf/4.1.2/../../../../nios2-elf/lib\libc.a(lib_a-vfprintf.o) (__udivdi3)
c:/altera/12.1/nios2eds/bin/gnu/h-i686-mingw32/bin/../lib/gcc/nios2-elf/4.1.2\libgcc.a(_umoddi3.o)
                              c:/altera/12.1/nios2eds/bin/gnu/h-i686-mingw32/bin/../lib/gcc/nios2-elf/4.1.2/../../../../nios2-elf/lib\libc.a(lib_a-vfprintf.o) (__umoddi3)
c:/altera/12.1/nios2eds/bin/gnu/h-i686-mingw32/bin/../lib/gcc/nios2-elf/4.1.2\libgcc.a(_addsub_df.o)
                              c:/altera/12.1/nios2eds/bin/gnu/h-i686-mingw32/bin/../lib/gcc/nios2-elf/4.1.2/../../../../nios2-elf/lib\libc.a(lib_a-dtoa.o) (__subdf3)
c:/altera/12.1/nios2eds/bin/gnu/h-i686-mingw32/bin/../lib/gcc/nios2-elf/4.1.2\libgcc.a(_mul_df.o)
                              c:/altera/12.1/nios2eds/bin/gnu/h-i686-mingw32/bin/../lib/gcc/nios2-elf/4.1.2/../../../../nios2-elf/lib\libc.a(lib_a-dtoa.o) (__muldf3)
c:/altera/12.1/nios2eds/bin/gnu/h-i686-mingw32/bin/../lib/gcc/nios2-elf/4.1.2\libgcc.a(_div_df.o)
                              c:/altera/12.1/nios2eds/bin/gnu/h-i686-mingw32/bin/../lib/gcc/nios2-elf/4.1.2/../../../../nios2-elf/lib\libc.a(lib_a-dtoa.o) (__divdf3)
c:/altera/12.1/nios2eds/bin/gnu/h-i686-mingw32/bin/../lib/gcc/nios2-elf/4.1.2\libgcc.a(_eq_df.o)
                              c:/altera/12.1/nios2eds/bin/gnu/h-i686-mingw32/bin/../lib/gcc/nios2-elf/4.1.2/../../../../nios2-elf/lib\libc.a(lib_a-vfprintf.o) (__eqdf2)
c:/altera/12.1/nios2eds/bin/gnu/h-i686-mingw32/bin/../lib/gcc/nios2-elf/4.1.2\libgcc.a(_ne_df.o)
                              c:/altera/12.1/nios2eds/bin/gnu/h-i686-mingw32/bin/../lib/gcc/nios2-elf/4.1.2/../../../../nios2-elf/lib\libc.a(lib_a-vfprintf.o) (__nedf2)
c:/altera/12.1/nios2eds/bin/gnu/h-i686-mingw32/bin/../lib/gcc/nios2-elf/4.1.2\libgcc.a(_gt_df.o)
                              c:/altera/12.1/nios2eds/bin/gnu/h-i686-mingw32/bin/../lib/gcc/nios2-elf/4.1.2/../../../../nios2-elf/lib\libc.a(lib_a-dtoa.o) (__gtdf2)
c:/altera/12.1/nios2eds/bin/gnu/h-i686-mingw32/bin/../lib/gcc/nios2-elf/4.1.2\libgcc.a(_ge_df.o)
                              c:/altera/12.1/nios2eds/bin/gnu/h-i686-mingw32/bin/../lib/gcc/nios2-elf/4.1.2/../../../../nios2-elf/lib\libc.a(lib_a-dtoa.o) (__gedf2)
c:/altera/12.1/nios2eds/bin/gnu/h-i686-mingw32/bin/../lib/gcc/nios2-elf/4.1.2\libgcc.a(_lt_df.o)
                              c:/altera/12.1/nios2eds/bin/gnu/h-i686-mingw32/bin/../lib/gcc/nios2-elf/4.1.2/../../../../nios2-elf/lib\libc.a(lib_a-vfprintf.o) (__ltdf2)
c:/altera/12.1/nios2eds/bin/gnu/h-i686-mingw32/bin/../lib/gcc/nios2-elf/4.1.2\libgcc.a(_si_to_df.o)
                              c:/altera/12.1/nios2eds/bin/gnu/h-i686-mingw32/bin/../lib/gcc/nios2-elf/4.1.2/../../../../nios2-elf/lib\libc.a(lib_a-dtoa.o) (__floatsidf)
c:/altera/12.1/nios2eds/bin/gnu/h-i686-mingw32/bin/../lib/gcc/nios2-elf/4.1.2\libgcc.a(_df_to_si.o)
                              c:/altera/12.1/nios2eds/bin/gnu/h-i686-mingw32/bin/../lib/gcc/nios2-elf/4.1.2/../../../../nios2-elf/lib\libc.a(lib_a-dtoa.o) (__fixdfsi)
c:/altera/12.1/nios2eds/bin/gnu/h-i686-mingw32/bin/../lib/gcc/nios2-elf/4.1.2\libgcc.a(_thenan_df.o)
                              c:/altera/12.1/nios2eds/bin/gnu/h-i686-mingw32/bin/../lib/gcc/nios2-elf/4.1.2\libgcc.a(_addsub_df.o) (__thenan_df)
c:/altera/12.1/nios2eds/bin/gnu/h-i686-mingw32/bin/../lib/gcc/nios2-elf/4.1.2\libgcc.a(_usi_to_df.o)
                              c:/altera/12.1/nios2eds/bin/gnu/h-i686-mingw32/bin/../lib/gcc/nios2-elf/4.1.2/../../../../nios2-elf/lib\libc.a(lib_a-dtoa.o) (__floatunsidf)
c:/altera/12.1/nios2eds/bin/gnu/h-i686-mingw32/bin/../lib/gcc/nios2-elf/4.1.2\libgcc.a(_muldi3.o)
                              c:/altera/12.1/nios2eds/bin/gnu/h-i686-mingw32/bin/../lib/gcc/nios2-elf/4.1.2\libgcc.a(_mul_df.o) (__muldi3)
c:/altera/12.1/nios2eds/bin/gnu/h-i686-mingw32/bin/../lib/gcc/nios2-elf/4.1.2\libgcc.a(_clz.o)
                              c:/altera/12.1/nios2eds/bin/gnu/h-i686-mingw32/bin/../lib/gcc/nios2-elf/4.1.2\libgcc.a(_udivdi3.o) (__clz_tab)
c:/altera/12.1/nios2eds/bin/gnu/h-i686-mingw32/bin/../lib/gcc/nios2-elf/4.1.2\libgcc.a(_clzsi2.o)
                              c:/altera/12.1/nios2eds/bin/gnu/h-i686-mingw32/bin/../lib/gcc/nios2-elf/4.1.2\libgcc.a(_si_to_df.o) (__clzsi2)
c:/altera/12.1/nios2eds/bin/gnu/h-i686-mingw32/bin/../lib/gcc/nios2-elf/4.1.2\libgcc.a(_pack_df.o)
                              c:/altera/12.1/nios2eds/bin/gnu/h-i686-mingw32/bin/../lib/gcc/nios2-elf/4.1.2\libgcc.a(_addsub_df.o) (__pack_d)
c:/altera/12.1/nios2eds/bin/gnu/h-i686-mingw32/bin/../lib/gcc/nios2-elf/4.1.2\libgcc.a(_unpack_df.o)
                              c:/altera/12.1/nios2eds/bin/gnu/h-i686-mingw32/bin/../lib/gcc/nios2-elf/4.1.2\libgcc.a(_addsub_df.o) (__unpack_d)
c:/altera/12.1/nios2eds/bin/gnu/h-i686-mingw32/bin/../lib/gcc/nios2-elf/4.1.2\libgcc.a(_fpcmp_parts_df.o)
                              c:/altera/12.1/nios2eds/bin/gnu/h-i686-mingw32/bin/../lib/gcc/nios2-elf/4.1.2\libgcc.a(_eq_df.o) (__fpcmp_parts_d)
../Car2X_communication_bsp/\libucosii_bsp.a(alt_exit.o)
                              c:/altera/12.1/nios2eds/bin/gnu/h-i686-mingw32/bin/../lib/gcc/nios2-elf/4.1.2/../../../../nios2-elf/lib\libc.a(lib_a-abort.o) (_exit)
../Car2X_communication_bsp/\libucosii_bsp.a(alt_fstat.o)
                              c:/altera/12.1/nios2eds/bin/gnu/h-i686-mingw32/bin/../lib/gcc/nios2-elf/4.1.2/../../../../nios2-elf/lib\libc.a(lib_a-fstatr.o) (fstat)
../Car2X_communication_bsp/\libucosii_bsp.a(alt_getpid.o)
                              c:/altera/12.1/nios2eds/bin/gnu/h-i686-mingw32/bin/../lib/gcc/nios2-elf/4.1.2/../../../../nios2-elf/lib\libc.a(lib_a-signalr.o) (getpid)
../Car2X_communication_bsp/\libucosii_bsp.a(alt_isatty.o)
                              c:/altera/12.1/nios2eds/bin/gnu/h-i686-mingw32/bin/../lib/gcc/nios2-elf/4.1.2/../../../../nios2-elf/lib\libc.a(lib_a-isattyr.o) (isatty)
../Car2X_communication_bsp/\libucosii_bsp.a(alt_kill.o)
                              c:/altera/12.1/nios2eds/bin/gnu/h-i686-mingw32/bin/../lib/gcc/nios2-elf/4.1.2/../../../../nios2-elf/lib\libc.a(lib_a-signalr.o) (kill)
../Car2X_communication_bsp/\libucosii_bsp.a(alt_load.o)
                              ../Car2X_communication_bsp//obj/HAL/src/crt0.o (alt_load)
../Car2X_communication_bsp/\libucosii_bsp.a(alt_lseek.o)
                              c:/altera/12.1/nios2eds/bin/gnu/h-i686-mingw32/bin/../lib/gcc/nios2-elf/4.1.2/../../../../nios2-elf/lib\libc.a(lib_a-lseekr.o) (lseek)
../Car2X_communication_bsp/\libucosii_bsp.a(alt_main.o)
                              ../Car2X_communication_bsp//obj/HAL/src/crt0.o (alt_main)
../Car2X_communication_bsp/\libucosii_bsp.a(alt_sbrk.o)
                              c:/altera/12.1/nios2eds/bin/gnu/h-i686-mingw32/bin/../lib/gcc/nios2-elf/4.1.2/../../../../nios2-elf/lib\libc.a(lib_a-sbrkr.o) (sbrk)
../Car2X_communication_bsp/\libucosii_bsp.a(alt_tick.o)
                              obj/default/terasic_lib/accelerometer_adxl345_spi.o (_alt_tick_rate)
../Car2X_communication_bsp/\libucosii_bsp.a(alt_usleep.o)
                              obj/default/terasic_lib/I2C.o (usleep)
../Car2X_communication_bsp/\libucosii_bsp.a(alt_env_lock.o)
                              ../Car2X_communication_bsp/\libucosii_bsp.a(alt_main.o) (alt_envsem)
../Car2X_communication_bsp/\libucosii_bsp.a(alt_malloc_lock.o)
                              c:/altera/12.1/nios2eds/bin/gnu/h-i686-mingw32/bin/../lib/gcc/nios2-elf/4.1.2/../../../../nios2-elf/lib\libc.a(lib_a-mallocr.o) (__malloc_lock)
../Car2X_communication_bsp/\libucosii_bsp.a(os_core.o)
                              ../Car2X_communication_bsp/\libucosii_bsp.a(alt_main.o) (OSInit)
../Car2X_communication_bsp/\libucosii_bsp.a(os_dbg.o)
                              ../Car2X_communication_bsp/\libucosii_bsp.a(os_core.o) (OSDebugInit)
../Car2X_communication_bsp/\libucosii_bsp.a(os_flag.o)
                              ../Car2X_communication_bsp/\libucosii_bsp.a(os_core.o) (OS_FlagInit)
../Car2X_communication_bsp/\libucosii_bsp.a(os_mem.o)
                              ../Car2X_communication_bsp/\libucosii_bsp.a(os_core.o) (OS_MemInit)
../Car2X_communication_bsp/\libucosii_bsp.a(os_q.o)
                              ../Car2X_communication_bsp/\libucosii_bsp.a(os_core.o) (OS_QInit)
../Car2X_communication_bsp/\libucosii_bsp.a(os_sem.o)
                              ../Car2X_communication_bsp/\libucosii_bsp.a(alt_main.o) (OSSemCreate)
../Car2X_communication_bsp/\libucosii_bsp.a(os_task.o)
                              obj/default/main.o (OSTaskCreateExt)
../Car2X_communication_bsp/\libucosii_bsp.a(os_time.o)
                              obj/default/main.o (OSTimeDly)
../Car2X_communication_bsp/\libucosii_bsp.a(alt_sys_init.o)
                              ../Car2X_communication_bsp/\libucosii_bsp.a(alt_main.o) (alt_irq_init)
../Car2X_communication_bsp/\libucosii_bsp.a(altera_avalon_jtag_uart_fd.o)
                              ../Car2X_communication_bsp/\libucosii_bsp.a(alt_sys_init.o) (altera_avalon_jtag_uart_read_fd)
../Car2X_communication_bsp/\libucosii_bsp.a(altera_avalon_jtag_uart_init.o)
                              ../Car2X_communication_bsp/\libucosii_bsp.a(alt_sys_init.o) (altera_avalon_jtag_uart_init)
../Car2X_communication_bsp/\libucosii_bsp.a(altera_avalon_jtag_uart_ioctl.o)
                              ../Car2X_communication_bsp/\libucosii_bsp.a(altera_avalon_jtag_uart_fd.o) (altera_avalon_jtag_uart_ioctl)
../Car2X_communication_bsp/\libucosii_bsp.a(altera_avalon_jtag_uart_read.o)
                              ../Car2X_communication_bsp/\libucosii_bsp.a(altera_avalon_jtag_uart_fd.o) (altera_avalon_jtag_uart_read)
../Car2X_communication_bsp/\libucosii_bsp.a(altera_avalon_jtag_uart_write.o)
                              ../Car2X_communication_bsp/\libucosii_bsp.a(altera_avalon_jtag_uart_fd.o) (altera_avalon_jtag_uart_write)
../Car2X_communication_bsp/\libucosii_bsp.a(altera_avalon_mutex.o)
                              ../Car2X_communication_bsp/\libucosii_bsp.a(alt_sys_init.o) (alt_mutex_list)
../Car2X_communication_bsp/\libucosii_bsp.a(altera_avalon_sgdma.o)
                              ../Car2X_communication_bsp/\libucosii_bsp.a(alt_sys_init.o) (alt_avalon_sgdma_init)
../Car2X_communication_bsp/\libucosii_bsp.a(altera_avalon_timer_sc.o)
                              ../Car2X_communication_bsp/\libucosii_bsp.a(alt_sys_init.o) (alt_avalon_timer_sc_init)
../Car2X_communication_bsp/\libucosii_bsp.a(altera_avalon_tse.o)
                              obj/default/tse_my_system.o (marvell_cfg_rgmii)
../Car2X_communication_bsp/\libucosii_bsp.a(ins_tse_mac.o)
                              ../Car2X_communication_bsp/\libucosii_bsp.a(alt_sys_init.o) (number_of_tse_mac)
../Car2X_communication_bsp/\libucosii_bsp.a(alt_iniche_close.o)
                              obj/default/socketserver.o (close)
../Car2X_communication_bsp/\libucosii_bsp.a(alt_iniche_dev.o)
                              ../Car2X_communication_bsp/\libucosii_bsp.a(alt_sys_init.o) (alt_iniche_dev_list)
../Car2X_communication_bsp/\libucosii_bsp.a(alt_iniche_read.o)
                              c:/altera/12.1/nios2eds/bin/gnu/h-i686-mingw32/bin/../lib/gcc/nios2-elf/4.1.2/../../../../nios2-elf/lib\libc.a(lib_a-readr.o) (read)
../Car2X_communication_bsp/\libucosii_bsp.a(alt_iniche_write.o)
                              c:/altera/12.1/nios2eds/bin/gnu/h-i686-mingw32/bin/../lib/gcc/nios2-elf/4.1.2/../../../../nios2-elf/lib\libc.a(lib_a-writer.o) (write)
../Car2X_communication_bsp/\libucosii_bsp.a(ipnet.o)
                              ../Car2X_communication_bsp/\libucosii_bsp.a(ins_tse_mac.o) (rcvdq)
../Car2X_communication_bsp/\libucosii_bsp.a(ipstart.o)
                              ../Car2X_communication_bsp/\libucosii_bsp.a(ipnet.o) (ifNumber)
../Car2X_communication_bsp/\libucosii_bsp.a(igmp_cmn.o)
                              ../Car2X_communication_bsp/\libucosii_bsp.a(ipstart.o) (igmp_init)
../Car2X_communication_bsp/\libucosii_bsp.a(bsdsock.o)
                              obj/default/socketserver.o (bsd_accept)
../Car2X_communication_bsp/\libucosii_bsp.a(cksum.o)
                              ../Car2X_communication_bsp/\libucosii_bsp.a(igmp_cmn.o) (cksum)
../Car2X_communication_bsp/\libucosii_bsp.a(in_utils.o)
                              ../Car2X_communication_bsp/\libucosii_bsp.a(ins_tse_mac.o) (ns_printf)
../Car2X_communication_bsp/\libucosii_bsp.a(netmain.o)
                              obj/default/main.o (iniche_net_ready)
../Car2X_communication_bsp/\libucosii_bsp.a(tk_crnos.o)
                              ../Car2X_communication_bsp/\libucosii_bsp.a(ipnet.o) (tk_yield)
../Car2X_communication_bsp/\libucosii_bsp.a(pktalloc.o)
                              ../Car2X_communication_bsp/\libucosii_bsp.a(ipnet.o) (pk_init)
../Car2X_communication_bsp/\libucosii_bsp.a(q.o)
                              ../Car2X_communication_bsp/\libucosii_bsp.a(ipnet.o) (getq)
../Car2X_communication_bsp/\libucosii_bsp.a(asm_cksum.o)
                              ../Car2X_communication_bsp/\libucosii_bsp.a(cksum.o) (asm_cksum)
../Car2X_communication_bsp/\libucosii_bsp.a(brdutils.o)
                              ../Car2X_communication_bsp/\libucosii_bsp.a(ipnet.o) (dtrap)
../Car2X_communication_bsp/\libucosii_bsp.a(osportco.o)
                              ../Car2X_communication_bsp/\libucosii_bsp.a(tk_crnos.o) (tcp_sleep_count)
../Car2X_communication_bsp/\libucosii_bsp.a(targnios.o)
                              obj/default/main.o (alt_iniche_init)
../Car2X_communication_bsp/\libucosii_bsp.a(nptcp.o)
                              ../Car2X_communication_bsp/\libucosii_bsp.a(bsdsock.o) (soq)
../Car2X_communication_bsp/\libucosii_bsp.a(rawsock.o)
                              ../Car2X_communication_bsp/\libucosii_bsp.a(nptcp.o) (rawip_usrreq)
../Car2X_communication_bsp/\libucosii_bsp.a(sockcall.o)
                              obj/default/socketserver.o (t_socket)
../Car2X_communication_bsp/\libucosii_bsp.a(socket.o)
                              ../Car2X_communication_bsp/\libucosii_bsp.a(sockcall.o) (socreate)
../Car2X_communication_bsp/\libucosii_bsp.a(socket2.o)
                              ../Car2X_communication_bsp/\libucosii_bsp.a(sockcall.o) (soqremque)
../Car2X_communication_bsp/\libucosii_bsp.a(soselect.o)
                              ../Car2X_communication_bsp/\libucosii_bsp.a(bsdsock.o) (t_select)
../Car2X_communication_bsp/\libucosii_bsp.a(tcp_in.o)
                              ../Car2X_communication_bsp/\libucosii_bsp.a(nptcp.o) (tcp_input)
../Car2X_communication_bsp/\libucosii_bsp.a(tcp_out.o)
                              ../Car2X_communication_bsp/\libucosii_bsp.a(tcp_in.o) (tcp_output)
../Car2X_communication_bsp/\libucosii_bsp.a(tcp_subr.o)
                              ../Car2X_communication_bsp/\libucosii_bsp.a(nptcp.o) (tcp_init)
../Car2X_communication_bsp/\libucosii_bsp.a(tcp_timr.o)
                              ../Car2X_communication_bsp/\libucosii_bsp.a(tcp_in.o) (tcp_keepidle)
../Car2X_communication_bsp/\libucosii_bsp.a(tcp_usr.o)
                              ../Car2X_communication_bsp/\libucosii_bsp.a(nptcp.o) (tcp_usrreq)
../Car2X_communication_bsp/\libucosii_bsp.a(tcpport.o)
                              ../Car2X_communication_bsp/\libucosii_bsp.a(ipstart.o) (tcpinit)
../Car2X_communication_bsp/\libucosii_bsp.a(udpsock.o)
                              ../Car2X_communication_bsp/\libucosii_bsp.a(nptcp.o) (udp_usrreq)
../Car2X_communication_bsp/\libucosii_bsp.a(alt_alarm_start.o)
                              ../Car2X_communication_bsp/\libucosii_bsp.a(altera_avalon_jtag_uart_init.o) (alt_alarm_start)
../Car2X_communication_bsp/\libucosii_bsp.a(alt_busy_sleep.o)
                              ../Car2X_communication_bsp/\libucosii_bsp.a(alt_usleep.o) (alt_busy_sleep)
../Car2X_communication_bsp/\libucosii_bsp.a(alt_close.o)
                              ../Car2X_communication_bsp/\libucosii_bsp.a(alt_iniche_close.o) (alt_close)
../Car2X_communication_bsp/\libucosii_bsp.a(alt_dcache_flush_all.o)
                              ../Car2X_communication_bsp/\libucosii_bsp.a(alt_load.o) (alt_dcache_flush_all)
../Car2X_communication_bsp/\libucosii_bsp.a(alt_dev.o)
                              ../Car2X_communication_bsp/\libucosii_bsp.a(alt_sys_init.o) (alt_dev_list)
../Car2X_communication_bsp/\libucosii_bsp.a(alt_dev_llist_insert.o)
                              ../Car2X_communication_bsp/\libucosii_bsp.a(alt_sys_init.o) (alt_dev_llist_insert)
../Car2X_communication_bsp/\libucosii_bsp.a(alt_do_ctors.o)
                              ../Car2X_communication_bsp/\libucosii_bsp.a(alt_main.o) (_do_ctors)
../Car2X_communication_bsp/\libucosii_bsp.a(alt_do_dtors.o)
                              ../Car2X_communication_bsp/\libucosii_bsp.a(alt_main.o) (_do_dtors)
../Car2X_communication_bsp/\libucosii_bsp.a(alt_errno.o)
                              ../Car2X_communication_bsp/\libucosii_bsp.a(alt_fstat.o) (alt_errno)
../Car2X_communication_bsp/\libucosii_bsp.a(alt_find_dev.o)
                              ../Car2X_communication_bsp/\libucosii_bsp.a(altera_avalon_mutex.o) (alt_find_dev)
../Car2X_communication_bsp/\libucosii_bsp.a(alt_icache_flush_all.o)
                              ../Car2X_communication_bsp/\libucosii_bsp.a(alt_load.o) (alt_icache_flush_all)
../Car2X_communication_bsp/\libucosii_bsp.a(alt_iic.o)
                              ../Car2X_communication_bsp/\libucosii_bsp.a(altera_avalon_jtag_uart_init.o) (alt_ic_isr_register)
../Car2X_communication_bsp/\libucosii_bsp.a(alt_iic_isr_register.o)
                              ../Car2X_communication_bsp/\libucosii_bsp.a(alt_iic.o) (alt_iic_isr_register)
../Car2X_communication_bsp/\libucosii_bsp.a(alt_io_redirect.o)
                              ../Car2X_communication_bsp/\libucosii_bsp.a(alt_main.o) (alt_io_redirect)
../Car2X_communication_bsp/\libucosii_bsp.a(alt_irq_entry.o)
                              ../Car2X_communication_bsp/\libucosii_bsp.a(alt_iic_isr_register.o) (alt_irq_entry)
../Car2X_communication_bsp/\libucosii_bsp.a(alt_irq_handler.o)
                              ../Car2X_communication_bsp/\libucosii_bsp.a(alt_iic_isr_register.o) (alt_irq_handler)
../Car2X_communication_bsp/\libucosii_bsp.a(alt_irq_vars.o)
                              ../Car2X_communication_bsp/\libucosii_bsp.a(alt_iic.o) (alt_irq_active)
../Car2X_communication_bsp/\libucosii_bsp.a(alt_open.o)
                              ../Car2X_communication_bsp/\libucosii_bsp.a(alt_io_redirect.o) (open)
../Car2X_communication_bsp/\libucosii_bsp.a(alt_read.o)
                              ../Car2X_communication_bsp/\libucosii_bsp.a(alt_iniche_read.o) (alt_read)
../Car2X_communication_bsp/\libucosii_bsp.a(alt_release_fd.o)
                              ../Car2X_communication_bsp/\libucosii_bsp.a(alt_close.o) (alt_release_fd)
../Car2X_communication_bsp/\libucosii_bsp.a(alt_remap_cached.o)
                              ../Car2X_communication_bsp/\libucosii_bsp.a(ins_tse_mac.o) (alt_remap_cached)
../Car2X_communication_bsp/\libucosii_bsp.a(alt_remap_uncached.o)
                              ../Car2X_communication_bsp/\libucosii_bsp.a(altera_avalon_sgdma.o) (alt_remap_uncached)
../Car2X_communication_bsp/\libucosii_bsp.a(alt_uncached_malloc.o)
                              ../Car2X_communication_bsp/\libucosii_bsp.a(ins_tse_mac.o) (alt_uncached_malloc)
../Car2X_communication_bsp/\libucosii_bsp.a(alt_write.o)
                              ../Car2X_communication_bsp/\libucosii_bsp.a(alt_iniche_write.o) (alt_write)
../Car2X_communication_bsp/\libucosii_bsp.a(altera_nios2_qsys_irq.o)
                              ../Car2X_communication_bsp/\libucosii_bsp.a(alt_sys_init.o) (altera_nios2_qsys_irq_init)
../Car2X_communication_bsp/\libucosii_bsp.a(os_cpu_a.o)
                              ../Car2X_communication_bsp/\libucosii_bsp.a(os_core.o) (OSIntCtxSw)
../Car2X_communication_bsp/\libucosii_bsp.a(os_cpu_c.o)
                              ../Car2X_communication_bsp/\libucosii_bsp.a(os_task.o) (OSTaskStkInit)
../Car2X_communication_bsp/\libucosii_bsp.a(allports.o)
                              ../Car2X_communication_bsp/\libucosii_bsp.a(netmain.o) (netmain_init)
../Car2X_communication_bsp/\libucosii_bsp.a(timeouts.o)
                              ../Car2X_communication_bsp/\libucosii_bsp.a(netmain.o) (inet_timer)
../Car2X_communication_bsp/\libucosii_bsp.a(tk_misc.o)
                              ../Car2X_communication_bsp/\libucosii_bsp.a(netmain.o) (create_apptasks)
../Car2X_communication_bsp/\libucosii_bsp.a(alt_iniche_fcntl.o)
                              ../Car2X_communication_bsp/\libucosii_bsp.a(brdutils.o) (fcntl)
../Car2X_communication_bsp/\libucosii_bsp.a(et_arp.o)
                              ../Car2X_communication_bsp/\libucosii_bsp.a(ipstart.o) (etainit)
../Car2X_communication_bsp/\libucosii_bsp.a(iface.o)
                              ../Car2X_communication_bsp/\libucosii_bsp.a(ipnet.o) (netlist)
../Car2X_communication_bsp/\libucosii_bsp.a(ip.o)
                              ../Car2X_communication_bsp/\libucosii_bsp.a(ipstart.o) (ip_init)
../Car2X_communication_bsp/\libucosii_bsp.a(ip_reasm.o)
                              ../Car2X_communication_bsp/\libucosii_bsp.a(timeouts.o) (ire_cticks)
../Car2X_communication_bsp/\libucosii_bsp.a(ipdemux.o)
                              ../Car2X_communication_bsp/\libucosii_bsp.a(ipnet.o) (ip_rcv)
../Car2X_communication_bsp/\libucosii_bsp.a(ipmc.o)
                              ../Car2X_communication_bsp/\libucosii_bsp.a(ipstart.o) (in_addmulti)
../Car2X_communication_bsp/\libucosii_bsp.a(ipport.o)
                              ../Car2X_communication_bsp/\libucosii_bsp.a(targnios.o) (port_prep)
../Car2X_communication_bsp/\libucosii_bsp.a(ipraw.o)
                              ../Car2X_communication_bsp/\libucosii_bsp.a(rawsock.o) (ipraw_eps)
../Car2X_communication_bsp/\libucosii_bsp.a(iproute.o)
                              ../Car2X_communication_bsp/\libucosii_bsp.a(ip.o) (cachedRoute)
../Car2X_communication_bsp/\libucosii_bsp.a(udp.o)
                              ../Car2X_communication_bsp/\libucosii_bsp.a(ipdemux.o) (udpdemux)
../Car2X_communication_bsp/\libucosii_bsp.a(igmp.o)
                              ../Car2X_communication_bsp/\libucosii_bsp.a(igmp_cmn.o) (igmpv1_input)
../Car2X_communication_bsp/\libucosii_bsp.a(igmp2.o)
                              ../Car2X_communication_bsp/\libucosii_bsp.a(igmp_cmn.o) (igmpv2_input)
../Car2X_communication_bsp/\libucosii_bsp.a(ipopt.o)
                              ../Car2X_communication_bsp/\libucosii_bsp.a(socket.o) (ip_setmoptions)
../Car2X_communication_bsp/\libucosii_bsp.a(u_mctest.o)
                              ../Car2X_communication_bsp/\libucosii_bsp.a(allports.o) (u_mctest_init)
../Car2X_communication_bsp/\libucosii_bsp.a(memdev.o)
                              ../Car2X_communication_bsp/\libucosii_bsp.a(allports.o) (init_memdev)
../Car2X_communication_bsp/\libucosii_bsp.a(parseip.o)
                              ../Car2X_communication_bsp/\libucosii_bsp.a(u_mctest.o) (inet_addr)
../Car2X_communication_bsp/\libucosii_bsp.a(tcpcksum.o)
                              ../Car2X_communication_bsp/\libucosii_bsp.a(nptcp.o) (tcp_cksum)
../Car2X_communication_bsp/\libucosii_bsp.a(udp_open.o)
                              ../Car2X_communication_bsp/\libucosii_bsp.a(nptcp.o) (firstudp)
../Car2X_communication_bsp/\libucosii_bsp.a(in_pcb.o)
                              ../Car2X_communication_bsp/\libucosii_bsp.a(tcp_usr.o) (in_pcballoc)
../Car2X_communication_bsp/\libucosii_bsp.a(vfsfiles.o)
                              ../Car2X_communication_bsp/\libucosii_bsp.a(memdev.o) (vfsystems)
../Car2X_communication_bsp/\libucosii_bsp.a(vfsport.o)
                              ../Car2X_communication_bsp/\libucosii_bsp.a(allports.o) (prep_vfs)
../Car2X_communication_bsp/\libucosii_bsp.a(alt_dcache_flush.o)
                              ../Car2X_communication_bsp/\libucosii_bsp.a(alt_remap_uncached.o) (alt_dcache_flush)
../Car2X_communication_bsp/\libucosii_bsp.a(alt_exception_entry.o)
                              ../Car2X_communication_bsp/\libucosii_bsp.a(alt_irq_entry.o) (alt_exception)
../Car2X_communication_bsp/\libucosii_bsp.a(alt_fcntl.o)
                              ../Car2X_communication_bsp/\libucosii_bsp.a(alt_iniche_fcntl.o) (alt_fcntl)
../Car2X_communication_bsp/\libucosii_bsp.a(alt_find_file.o)
                              ../Car2X_communication_bsp/\libucosii_bsp.a(alt_open.o) (alt_find_file)
../Car2X_communication_bsp/\libucosii_bsp.a(alt_get_fd.o)
                              ../Car2X_communication_bsp/\libucosii_bsp.a(alt_open.o) (alt_get_fd)
../Car2X_communication_bsp/\libucosii_bsp.a(alt_icache_flush.o)
                              ../Car2X_communication_bsp/\libucosii_bsp.a(alt_icache_flush_all.o) (alt_icache_flush)
../Car2X_communication_bsp/\libucosii_bsp.a(icmp.o)
                              ../Car2X_communication_bsp/\libucosii_bsp.a(ipdemux.o) (icmprcv)
c:/altera/12.1/nios2eds/bin/gnu/h-i686-mingw32/bin/../lib/gcc/nios2-elf/4.1.2/../../../../nios2-elf/lib\libc.a(lib_a-atexit.o)
                              ../Car2X_communication_bsp/\libucosii_bsp.a(alt_main.o) (atexit)
c:/altera/12.1/nios2eds/bin/gnu/h-i686-mingw32/bin/../lib/gcc/nios2-elf/4.1.2/../../../../nios2-elf/lib\libc.a(lib_a-atoi.o)
                              ../Car2X_communication_bsp/\libucosii_bsp.a(parseip.o) (atoi)
c:/altera/12.1/nios2eds/bin/gnu/h-i686-mingw32/bin/../lib/gcc/nios2-elf/4.1.2/../../../../nios2-elf/lib\libc.a(lib_a-calloc.o)
                              ../Car2X_communication_bsp/\libucosii_bsp.a(targnios.o) (calloc)
c:/altera/12.1/nios2eds/bin/gnu/h-i686-mingw32/bin/../lib/gcc/nios2-elf/4.1.2/../../../../nios2-elf/lib\libc.a(lib_a-exit.o)
                              ../Car2X_communication_bsp/\libucosii_bsp.a(alt_main.o) (exit)
c:/altera/12.1/nios2eds/bin/gnu/h-i686-mingw32/bin/../lib/gcc/nios2-elf/4.1.2/../../../../nios2-elf/lib\libc.a(lib_a-memcmp.o)
                              ../Car2X_communication_bsp/\libucosii_bsp.a(alt_find_dev.o) (memcmp)
c:/altera/12.1/nios2eds/bin/gnu/h-i686-mingw32/bin/../lib/gcc/nios2-elf/4.1.2/../../../../nios2-elf/lib\libc.a(lib_a-sprintf.o)
                              ../Car2X_communication_bsp/\libucosii_bsp.a(in_utils.o) (sprintf)
c:/altera/12.1/nios2eds/bin/gnu/h-i686-mingw32/bin/../lib/gcc/nios2-elf/4.1.2/../../../../nios2-elf/lib\libc.a(lib_a-strchr.o)
                              ../Car2X_communication_bsp/\libucosii_bsp.a(vfsfiles.o) (strchr)
c:/altera/12.1/nios2eds/bin/gnu/h-i686-mingw32/bin/../lib/gcc/nios2-elf/4.1.2/../../../../nios2-elf/lib\libc.a(lib_a-strcpy.o)
                              ../Car2X_communication_bsp/\libucosii_bsp.a(altera_avalon_tse.o) (strcpy)
c:/altera/12.1/nios2eds/bin/gnu/h-i686-mingw32/bin/../lib/gcc/nios2-elf/4.1.2/../../../../nios2-elf/lib\libc.a(lib_a-strncmp.o)
                              ../Car2X_communication_bsp/\libucosii_bsp.a(vfsfiles.o) (strncmp)
c:/altera/12.1/nios2eds/bin/gnu/h-i686-mingw32/bin/../lib/gcc/nios2-elf/4.1.2/../../../../nios2-elf/lib\libc.a(lib_a-strtol.o)
                              c:/altera/12.1/nios2eds/bin/gnu/h-i686-mingw32/bin/../lib/gcc/nios2-elf/4.1.2/../../../../nios2-elf/lib\libc.a(lib_a-atoi.o) (_strtol_r)
c:/altera/12.1/nios2eds/bin/gnu/h-i686-mingw32/bin/../lib/gcc/nios2-elf/4.1.2/../../../../nios2-elf/lib\libc.a(lib_a-vprintf.o)
                              ../Car2X_communication_bsp/\libucosii_bsp.a(in_utils.o) (vprintf)
c:/altera/12.1/nios2eds/bin/gnu/h-i686-mingw32/bin/../lib/gcc/nios2-elf/4.1.2/../../../../nios2-elf/lib\libc.a(lib_a-vsprintf.o)
                              ../Car2X_communication_bsp/\libucosii_bsp.a(in_utils.o) (vsprintf)
c:/altera/12.1/nios2eds/bin/gnu/h-i686-mingw32/bin/../lib/gcc/nios2-elf/4.1.2/../../../../nios2-elf/lib\libc.a(lib_a-__atexit.o)
                              c:/altera/12.1/nios2eds/bin/gnu/h-i686-mingw32/bin/../lib/gcc/nios2-elf/4.1.2/../../../../nios2-elf/lib\libc.a(lib_a-atexit.o) (__register_exitproc)
c:/altera/12.1/nios2eds/bin/gnu/h-i686-mingw32/bin/../lib/gcc/nios2-elf/4.1.2/../../../../nios2-elf/lib\libc.a(lib_a-__call_atexit.o)
                              c:/altera/12.1/nios2eds/bin/gnu/h-i686-mingw32/bin/../lib/gcc/nios2-elf/4.1.2/../../../../nios2-elf/lib\libc.a(lib_a-exit.o) (__call_exitprocs)

Allocating common symbols
Common symbol       size              file

soq                 0x14              ../Car2X_communication_bsp/\libucosii_bsp.a(nptcp.o)
alt_irq             0x100             ../Car2X_communication_bsp/\libucosii_bsp.a(alt_irq_handler.o)
tcp_optionbuf       0x4               ../Car2X_communication_bsp/\libucosii_bsp.a(tcp_out.o)
last_flash_sector_offset
                    0x4               obj/default/network_utilities.o
rt_mib              0x4               ../Car2X_communication_bsp/\libucosii_bsp.a(ip.o)
so_evtmap_create    0x4               ../Car2X_communication_bsp/\libucosii_bsp.a(ipport.o)
OSLockNesting       0x1               ../Car2X_communication_bsp/\libucosii_bsp.a(os_core.o)
tcb                 0x2c              ../Car2X_communication_bsp/\libucosii_bsp.a(tcp_subr.o)
OSRunning           0x1               ../Car2X_communication_bsp/\libucosii_bsp.a(os_core.o)
tcpstat             0xe0              ../Car2X_communication_bsp/\libucosii_bsp.a(tcp_subr.o)
OSIdleCtr           0x4               ../Car2X_communication_bsp/\libucosii_bsp.a(os_core.o)
udp_mib             0x10              ../Car2X_communication_bsp/\libucosii_bsp.a(udp.o)
to_netmain          0x1               ../Car2X_communication_bsp/\libucosii_bsp.a(netmain.o)
OSPrioHighRdy       0x1               ../Car2X_communication_bsp/\libucosii_bsp.a(os_core.o)
errno               0x4               c:/altera/12.1/nios2eds/bin/gnu/h-i686-mingw32/bin/../lib/gcc/nios2-elf/4.1.2/../../../../nios2-elf/lib\libc.a(lib_a-int_errno.o)
lilfreeq            0x14              ../Car2X_communication_bsp/\libucosii_bsp.a(pktalloc.o)
icmp_mib            0x68              ../Car2X_communication_bsp/\libucosii_bsp.a(icmp.o)
pmac_groups         0x10              ../Car2X_communication_bsp/\libucosii_bsp.a(altera_avalon_tse.o)
resid_semaphore     0x40              ../Car2X_communication_bsp/\libucosii_bsp.a(targnios.o)
alt_heapsem         0x4               ../Car2X_communication_bsp/\libucosii_bsp.a(alt_malloc_lock.o)
OSFlagTbl           0x370             ../Car2X_communication_bsp/\libucosii_bsp.a(os_core.o)
mbstat              0x8               ../Car2X_communication_bsp/\libucosii_bsp.a(nptcp.o)
netq_intmask        0x4               ../Car2X_communication_bsp/\libucosii_bsp.a(osportco.o)
select_wait         0x2               ../Car2X_communication_bsp/\libucosii_bsp.a(nptcp.o)
tse_iniche_dev_driver_data
                    0x30              ../Car2X_communication_bsp/\libucosii_bsp.a(ins_tse_mac.o)
tcpmib              0x3c              ../Car2X_communication_bsp/\libucosii_bsp.a(nptcp.o)
OSPrioCur           0x1               ../Car2X_communication_bsp/\libucosii_bsp.a(os_core.o)
tse                 0x130             ../Car2X_communication_bsp/\libucosii_bsp.a(ins_tse_mac.o)
mheap_sem_ptr       0x4               ../Car2X_communication_bsp/\libucosii_bsp.a(targnios.o)
netlist             0x14              ../Car2X_communication_bsp/\libucosii_bsp.a(iface.o)
mbufq               0x14              ../Car2X_communication_bsp/\libucosii_bsp.a(nptcp.o)
OSTCBList           0x4               ../Car2X_communication_bsp/\libucosii_bsp.a(os_core.o)
alt_fd_list_lock    0x4               ../Car2X_communication_bsp/\libucosii_bsp.a(alt_dev.o)
OSMemTbl            0xc30             ../Car2X_communication_bsp/\libucosii_bsp.a(os_core.o)
OSTickStepState     0x1               ../Car2X_communication_bsp/\libucosii_bsp.a(os_core.o)
OSTaskStatStk       0x800             ../Car2X_communication_bsp/\libucosii_bsp.a(os_core.o)
OSCtxSwCtr          0x4               ../Car2X_communication_bsp/\libucosii_bsp.a(os_core.o)
igmpstats           0x64              ../Car2X_communication_bsp/\libucosii_bsp.a(igmp_cmn.o)
ire_stats           0x18              ../Car2X_communication_bsp/\libucosii_bsp.a(ip_reasm.o)
old_mode            0x4               ../Car2X_communication_bsp/\libucosii_bsp.a(osportco.o)
vfs_dir_stale       0x4               ../Car2X_communication_bsp/\libucosii_bsp.a(vfsfiles.o)
pphy_profiles       0x10              ../Car2X_communication_bsp/\libucosii_bsp.a(altera_avalon_tse.o)
cticks_factor       0x4               ../Car2X_communication_bsp/\libucosii_bsp.a(brdutils.o)
OSIdleCtrMax        0x4               ../Car2X_communication_bsp/\libucosii_bsp.a(os_core.o)
memestats           0x10              ../Car2X_communication_bsp/\libucosii_bsp.a(pktalloc.o)
intimers            0x64              ../Car2X_communication_bsp/\libucosii_bsp.a(timeouts.o)
OSTCBFreeList       0x4               ../Car2X_communication_bsp/\libucosii_bsp.a(os_core.o)
global_TCPwakeup_setIndx
                    0x4               ../Car2X_communication_bsp/\libucosii_bsp.a(osportco.o)
SSSInitialTaskStk   0x2000            obj/default/main.o
rcvdq               0x14              ../Car2X_communication_bsp/\libucosii_bsp.a(ipnet.o)
global_tcb_ext      0xfc              ../Car2X_communication_bsp/\libucosii_bsp.a(osportco.o)
netstatic           0x300             ../Car2X_communication_bsp/\libucosii_bsp.a(ipstart.o)
tcp_maxidle         0x4               ../Car2X_communication_bsp/\libucosii_bsp.a(tcp_timr.o)
OSCPUUsage          0x1               ../Car2X_communication_bsp/\libucosii_bsp.a(os_core.o)
nets                0x10              ../Car2X_communication_bsp/\libucosii_bsp.a(ipstart.o)
pktlog              0xf0              ../Car2X_communication_bsp/\libucosii_bsp.a(pktalloc.o)
OSTaskCtr           0x1               ../Car2X_communication_bsp/\libucosii_bsp.a(os_core.o)
OSMemFreeList       0x4               ../Car2X_communication_bsp/\libucosii_bsp.a(os_core.o)
vfs_open_files      0x4               ../Car2X_communication_bsp/\libucosii_bsp.a(vfsfiles.o)
cticks              0x4               ../Car2X_communication_bsp/\libucosii_bsp.a(osportco.o)
to_nettick          0x1               ../Car2X_communication_bsp/\libucosii_bsp.a(netmain.o)
last_flash_sector   0x4               obj/default/network_utilities.o
OSQTbl              0x1e0             ../Car2X_communication_bsp/\libucosii_bsp.a(os_core.o)
OSTCBHighRdy        0x4               ../Car2X_communication_bsp/\libucosii_bsp.a(os_core.o)
OSQFreeList         0x4               ../Car2X_communication_bsp/\libucosii_bsp.a(os_core.o)
OSRdyGrp            0x1               ../Car2X_communication_bsp/\libucosii_bsp.a(os_core.o)
ip_mib              0x50              ../Car2X_communication_bsp/\libucosii_bsp.a(ip.o)
OS_TPS              0x4               ../Car2X_communication_bsp/\libucosii_bsp.a(brdutils.o)
_atexit0            0x190             c:/altera/12.1/nios2eds/bin/gnu/h-i686-mingw32/bin/../lib/gcc/nios2-elf/4.1.2/../../../../nios2-elf/lib\libc.a(lib_a-atexit.o)
OSRdyTbl            0x3               ../Car2X_communication_bsp/\libucosii_bsp.a(os_core.o)
igmp_all_hosts_group
                    0x4               ../Car2X_communication_bsp/\libucosii_bsp.a(igmp_cmn.o)
eth_prt_buf         0x12              ../Car2X_communication_bsp/\libucosii_bsp.a(in_utils.o)
app_semaphore       0x18              ../Car2X_communication_bsp/\libucosii_bsp.a(targnios.o)
rcvdq_sem_ptr       0x4               ../Car2X_communication_bsp/\libucosii_bsp.a(targnios.o)
OSEventFreeList     0x4               ../Car2X_communication_bsp/\libucosii_bsp.a(os_core.o)
mfreeq              0x14              ../Car2X_communication_bsp/\libucosii_bsp.a(nptcp.o)
to_ssstask          0x1               obj/default/main.o
global_TCPwakeup_set
                    0xf0              ../Car2X_communication_bsp/\libucosii_bsp.a(osportco.o)
bigfreeq            0x14              ../Car2X_communication_bsp/\libucosii_bsp.a(pktalloc.o)
so_evtmap_delete    0x4               ../Car2X_communication_bsp/\libucosii_bsp.a(ipport.o)
tcp_saveti          0x28              ../Car2X_communication_bsp/\libucosii_bsp.a(tcp_in.o)
OSIntNesting        0x1               ../Car2X_communication_bsp/\libucosii_bsp.a(os_core.o)
so_evtmap           0x1               ../Car2X_communication_bsp/\libucosii_bsp.a(ipport.o)
OSTCBCur            0x4               ../Car2X_communication_bsp/\libucosii_bsp.a(os_core.o)
arp_table           0x100             ../Car2X_communication_bsp/\libucosii_bsp.a(et_arp.o)
ethernet_subsystem_tse_mac_if
                    0xe0              ../Car2X_communication_bsp/\libucosii_bsp.a(alt_sys_init.o)
tcp_iss             0x4               ../Car2X_communication_bsp/\libucosii_bsp.a(tcp_timr.o)
vfs_total_rw_space  0x4               ../Car2X_communication_bsp/\libucosii_bsp.a(vfsfiles.o)
OSTime              0x4               ../Car2X_communication_bsp/\libucosii_bsp.a(os_core.o)
OSTaskIdleStk       0x800             ../Car2X_communication_bsp/\libucosii_bsp.a(os_core.o)
OSEventTbl          0xb40             ../Car2X_communication_bsp/\libucosii_bsp.a(os_core.o)
vfs_total_dyna_files
                    0x4               ../Car2X_communication_bsp/\libucosii_bsp.a(vfsfiles.o)
OSTCBTbl            0x510             ../Car2X_communication_bsp/\libucosii_bsp.a(os_core.o)
ipreturn            0x12              ../Car2X_communication_bsp/\libucosii_bsp.a(in_utils.o)
OSFlagFreeList      0x4               ../Car2X_communication_bsp/\libucosii_bsp.a(os_core.o)
dropline            0x4               ../Car2X_communication_bsp/\libucosii_bsp.a(tcp_in.o)
OSStatRdy           0x1               ../Car2X_communication_bsp/\libucosii_bsp.a(os_core.o)
OSTCBPrioTbl        0x54              ../Car2X_communication_bsp/\libucosii_bsp.a(os_core.o)
igmp_all_rtrs_group
                    0x4               ../Car2X_communication_bsp/\libucosii_bsp.a(igmp_cmn.o)
alt_envsem          0x4               ../Car2X_communication_bsp/\libucosii_bsp.a(alt_env_lock.o)
OSIdleCtrRun        0x4               ../Car2X_communication_bsp/\libucosii_bsp.a(os_core.o)

Discarded input sections

 .group         0x00000000        0x8 obj/default/COMM_CarProtocol/ADCInfoMessage.o
 .group         0x00000000        0x8 obj/default/COMM_CarProtocol/ADCInfoMessage.o
 .group         0x00000000        0x8 obj/default/COMM_CarProtocol/ADCInfoMessage.o
 .group         0x00000000        0x8 obj/default/COMM_CarProtocol/ADCValuesMessage.o
 .group         0x00000000        0x8 obj/default/COMM_CarProtocol/ADCValuesMessage.o
 .group         0x00000000        0x8 obj/default/COMM_CarProtocol/ADCValuesMessage.o
 .group         0x00000000        0x8 obj/default/COMM_CarProtocol/AccelerationValuesMessage.o
 .group         0x00000000        0x8 obj/default/COMM_CarProtocol/AccelerationValuesMessage.o
 .group         0x00000000        0x8 obj/default/COMM_CarProtocol/AccelerationValuesMessage.o
 .group         0x00000000        0x8 obj/default/COMM_CarProtocol/CarMessage.o
 .group         0x00000000        0x8 obj/default/COMM_CarProtocol/CarMessage.o
 .group         0x00000000        0x8 obj/default/COMM_CarProtocol/CarMessage.o
 .group         0x00000000        0x8 obj/default/COMM_CarProtocol/CarProtocol.o
 .group         0x00000000        0x8 obj/default/COMM_CarProtocol/CarProtocol.o
 .group         0x00000000        0x8 obj/default/COMM_CarProtocol/CarProtocol.o
 .group         0x00000000        0x8 obj/default/COMM_CarProtocol/MotorMeasurementMessage.o
 .group         0x00000000        0x8 obj/default/COMM_CarProtocol/MotorMeasurementMessage.o
 .group         0x00000000        0x8 obj/default/COMM_CarProtocol/MotorMeasurementMessage.o
 .group         0x00000000        0x8 obj/default/COMM_CarProtocol/MotorVelocityMessage.o
 .group         0x00000000        0x8 obj/default/COMM_CarProtocol/MotorVelocityMessage.o
 .group         0x00000000        0x8 obj/default/COMM_CarProtocol/MotorVelocityMessage.o
 .group         0x00000000        0x8 obj/default/COMM_CarProtocol/UltrasoundDistanceMessage.o
 .group         0x00000000        0x8 obj/default/COMM_CarProtocol/UltrasoundDistanceMessage.o
 .group         0x00000000        0x8 obj/default/COMM_CarProtocol/UltrasoundDistanceMessage.o
 .group         0x00000000        0x8 obj/default/COMM_CarProtocol/WelcomeMessage.o
 .group         0x00000000        0x8 obj/default/COMM_CarProtocol/WelcomeMessage.o
 .group         0x00000000        0x8 obj/default/COMM_CarProtocol/WelcomeMessage.o
 .group         0x00000000        0x8 obj/default/CarMessages/CControlMessage.o
 .group         0x00000000        0x8 obj/default/CarMessages/CControlMessage.o
 .group         0x00000000        0x8 obj/default/CarMessages/CControlMessage.o
 .group         0x00000000        0x8 obj/default/CarMessages/CEmergencyBrakeMessage.o
 .group         0x00000000        0x8 obj/default/CarMessages/CEmergencyBrakeMessage.o
 .group         0x00000000        0x8 obj/default/CarMessages/CEmergencyBrakeMessage.o
 .group         0x00000000        0x8 obj/default/sensors/ADCSensor.o
 .group         0x00000000        0x8 obj/default/sensors/ADCSensor.o
 .group         0x00000000        0x8 obj/default/sensors/ADCSensor.o
 .group         0x00000000        0x8 obj/default/sensors/AccelerationSensor.o
 .group         0x00000000        0x8 obj/default/sensors/AccelerationSensor.o
 .group         0x00000000        0x8 obj/default/sensors/AccelerationSensor.o
 .group         0x00000000        0x8 obj/default/sensors/SensorState.o
 .group         0x00000000        0x8 obj/default/sensors/SensorState.o
 .group         0x00000000        0x8 obj/default/sensors/SensorState.o
 .group         0x00000000        0x8 obj/default/sensors/UltrasoundSensor.o
 .group         0x00000000        0x8 obj/default/sensors/UltrasoundSensor.o
 .group         0x00000000        0x8 obj/default/sensors/UltrasoundSensor.o
 .group         0x00000000        0x8 c:/altera/12.1/nios2eds/bin/gnu/h-i686-mingw32/bin/../lib/gcc/nios2-elf/4.1.2/../../../../nios2-elf/lib\libstdc++.a(eh_exception.o)
 .group         0x00000000        0x8 c:/altera/12.1/nios2eds/bin/gnu/h-i686-mingw32/bin/../lib/gcc/nios2-elf/4.1.2/../../../../nios2-elf/lib\libstdc++.a(eh_exception.o)
 .group         0x00000000        0x8 c:/altera/12.1/nios2eds/bin/gnu/h-i686-mingw32/bin/../lib/gcc/nios2-elf/4.1.2/../../../../nios2-elf/lib\libstdc++.a(eh_exception.o)
 .group         0x00000000        0x8 c:/altera/12.1/nios2eds/bin/gnu/h-i686-mingw32/bin/../lib/gcc/nios2-elf/4.1.2/../../../../nios2-elf/lib\libstdc++.a(eh_exception.o)
 .group         0x00000000        0x8 c:/altera/12.1/nios2eds/bin/gnu/h-i686-mingw32/bin/../lib/gcc/nios2-elf/4.1.2/../../../../nios2-elf/lib\libstdc++.a(eh_exception.o)
 .group         0x00000000        0x8 c:/altera/12.1/nios2eds/bin/gnu/h-i686-mingw32/bin/../lib/gcc/nios2-elf/4.1.2/../../../../nios2-elf/lib\libstdc++.a(eh_exception.o)
 .group         0x00000000        0x8 c:/altera/12.1/nios2eds/bin/gnu/h-i686-mingw32/bin/../lib/gcc/nios2-elf/4.1.2/../../../../nios2-elf/lib\libstdc++.a(class_type_info.o)
 .group         0x00000000        0x8 c:/altera/12.1/nios2eds/bin/gnu/h-i686-mingw32/bin/../lib/gcc/nios2-elf/4.1.2/../../../../nios2-elf/lib\libstdc++.a(class_type_info.o)
 .group         0x00000000        0x8 c:/altera/12.1/nios2eds/bin/gnu/h-i686-mingw32/bin/../lib/gcc/nios2-elf/4.1.2/../../../../nios2-elf/lib\libstdc++.a(class_type_info.o)
 .group         0x00000000        0x8 c:/altera/12.1/nios2eds/bin/gnu/h-i686-mingw32/bin/../lib/gcc/nios2-elf/4.1.2/../../../../nios2-elf/lib\libstdc++.a(si_class_type_info.o)
 .group         0x00000000        0x8 c:/altera/12.1/nios2eds/bin/gnu/h-i686-mingw32/bin/../lib/gcc/nios2-elf/4.1.2/../../../../nios2-elf/lib\libstdc++.a(si_class_type_info.o)
 .group         0x00000000        0x8 c:/altera/12.1/nios2eds/bin/gnu/h-i686-mingw32/bin/../lib/gcc/nios2-elf/4.1.2/../../../../nios2-elf/lib\libstdc++.a(si_class_type_info.o)
 .group         0x00000000        0x8 c:/altera/12.1/nios2eds/bin/gnu/h-i686-mingw32/bin/../lib/gcc/nios2-elf/4.1.2/../../../../nios2-elf/lib\libstdc++.a(tinfo.o)
 .group         0x00000000        0x8 c:/altera/12.1/nios2eds/bin/gnu/h-i686-mingw32/bin/../lib/gcc/nios2-elf/4.1.2/../../../../nios2-elf/lib\libstdc++.a(tinfo.o)
 .group         0x00000000        0x8 c:/altera/12.1/nios2eds/bin/gnu/h-i686-mingw32/bin/../lib/gcc/nios2-elf/4.1.2/../../../../nios2-elf/lib\libstdc++.a(tinfo.o)
 .group         0x00000000        0x8 c:/altera/12.1/nios2eds/bin/gnu/h-i686-mingw32/bin/../lib/gcc/nios2-elf/4.1.2/../../../../nios2-elf/lib\libstdc++.a(new_handler.o)
 .group         0x00000000        0x8 c:/altera/12.1/nios2eds/bin/gnu/h-i686-mingw32/bin/../lib/gcc/nios2-elf/4.1.2/../../../../nios2-elf/lib\libstdc++.a(new_handler.o)
 .group         0x00000000        0x8 c:/altera/12.1/nios2eds/bin/gnu/h-i686-mingw32/bin/../lib/gcc/nios2-elf/4.1.2/../../../../nios2-elf/lib\libstdc++.a(new_handler.o)

Memory Configuration

Name             Origin             Length             Attributes
com_memory_BEFORE_RESET 0x04000000         0x00005000
reset            0x04005000         0x00000020
com_memory       0x04005020         0x03ffafe0
ethernet_subsystem_descriptor_memory 0x08000000         0x00002000
shared_memory    0x08002000         0x00001000
com_ocmemory     0x08004000         0x00000400
*default*        0x00000000         0xffffffff

Linker script and memory map

LOAD ../Car2X_communication_bsp//obj/HAL/src/crt0.o
LOAD obj/default/alt_error_handler.o
LOAD obj/default/main.o
LOAD obj/default/network_utilities.o
LOAD obj/default/tse_my_system.o
LOAD obj/default/COMM_CarProtocol/ADCInfoMessage.o
LOAD obj/default/COMM_CarProtocol/ADCValuesMessage.o
LOAD obj/default/COMM_CarProtocol/AccelerationValuesMessage.o
LOAD obj/default/COMM_CarProtocol/CarMessage.o
LOAD obj/default/COMM_CarProtocol/CarProtocol.o
LOAD obj/default/COMM_CarProtocol/MotorMeasurementMessage.o
LOAD obj/default/COMM_CarProtocol/MotorVelocityMessage.o
LOAD obj/default/COMM_CarProtocol/UltrasoundDistanceMessage.o
LOAD obj/default/COMM_CarProtocol/WelcomeMessage.o
LOAD obj/default/CarMessages/CControlMessage.o
LOAD obj/default/CarMessages/CEmergencyBrakeMessage.o
LOAD obj/default/etc/utility.o
LOAD obj/default/external_drivers/accelerometer_interface.o
LOAD obj/default/external_drivers/adc_interface.o
LOAD obj/default/external_drivers/ultrasound_interface.o
LOAD obj/default/sensors/ADCSensor.o
LOAD obj/default/sensors/AccelerationSensor.o
LOAD obj/default/sensors/SensorState.o
LOAD obj/default/sensors/UltrasoundSensor.o
LOAD obj/default/socketserver.o
LOAD obj/default/terasic_lib/I2C.o
LOAD obj/default/terasic_lib/accelerometer_adxl345_spi.o
LOAD obj/default/terasic_lib/adc_spi_read.o
LOAD obj/default/terasic_lib/terasic_spi.o
LOAD c:/altera/12.1/nios2eds/bin/gnu/h-i686-mingw32/bin/../lib/gcc/nios2-elf/4.1.2/../../../../nios2-elf/lib\libstdc++.a
LOAD c:/altera/12.1/nios2eds/bin/gnu/h-i686-mingw32/bin/../lib/gcc/nios2-elf/4.1.2/../../../../nios2-elf/lib\libm.a
LOAD c:/altera/12.1/nios2eds/bin/gnu/h-i686-mingw32/bin/../lib/gcc/nios2-elf/4.1.2\libgcc.a
START GROUP
LOAD c:/altera/12.1/nios2eds/bin/gnu/h-i686-mingw32/bin/../lib/gcc/nios2-elf/4.1.2/../../../../nios2-elf/lib\libc.a
LOAD c:/altera/12.1/nios2eds/bin/gnu/h-i686-mingw32/bin/../lib/gcc/nios2-elf/4.1.2\libgcc.a
LOAD ../Car2X_communication_bsp/\libucosii_bsp.a
END GROUP
LOAD c:/altera/12.1/nios2eds/bin/gnu/h-i686-mingw32/bin/../lib/gcc/nios2-elf/4.1.2\libgcc.a
                0x04000000                __alt_mem_com_memory = 0x4000000
                0x08000000                __alt_mem_ethernet_subsystem_descriptor_memory = 0x8000000
                0x08002000                __alt_mem_shared_memory = 0x8002000
                0x08004000                __alt_mem_com_ocmemory = 0x8004000

.entry          0x04005000       0x20
 *(.entry)
 .entry         0x04005000       0x20 ../Car2X_communication_bsp//obj/HAL/src/crt0.o
                0x04005000                __reset

.exceptions     0x04005020      0x19c
                0x04005020                PROVIDE (__ram_exceptions_start, ABSOLUTE (.))
                0x04005020                . = ALIGN (0x20)
 *(.irq)
 *(.exceptions.entry.label)
 .exceptions.entry.label
                0x04005020        0x0 ../Car2X_communication_bsp/\libucosii_bsp.a(alt_irq_entry.o)
                0x04005020                alt_irq_entry
 .exceptions.entry.label
                0x04005020        0x0 ../Car2X_communication_bsp/\libucosii_bsp.a(alt_exception_entry.o)
                0x04005020                alt_exception
 *(.exceptions.entry.user)
 *(.exceptions.entry)
 .exceptions.entry
                0x04005020       0x54 ../Car2X_communication_bsp/\libucosii_bsp.a(alt_exception_entry.o)
 *(.exceptions.irqtest.user)
 *(.exceptions.irqtest)
 .exceptions.irqtest
                0x04005074       0x10 ../Car2X_communication_bsp/\libucosii_bsp.a(alt_irq_entry.o)
 *(.exceptions.irqhandler.user)
 *(.exceptions.irqhandler)
 .exceptions.irqhandler
                0x04005084        0x4 ../Car2X_communication_bsp/\libucosii_bsp.a(alt_irq_entry.o)
 *(.exceptions.irqreturn.user)
 *(.exceptions.irqreturn)
 .exceptions.irqreturn
                0x04005088        0x4 ../Car2X_communication_bsp/\libucosii_bsp.a(alt_irq_entry.o)
 *(.exceptions.notirq.label)
 .exceptions.notirq.label
                0x0400508c        0x0 ../Car2X_communication_bsp/\libucosii_bsp.a(alt_irq_entry.o)
 *(.exceptions.notirq.user)
 *(.exceptions.notirq)
 .exceptions.notirq
                0x0400508c        0x8 ../Car2X_communication_bsp/\libucosii_bsp.a(alt_exception_entry.o)
 *(.exceptions.soft.user)
 *(.exceptions.soft)
 *(.exceptions.unknown.user)
 *(.exceptions.unknown)
 .exceptions.unknown
                0x04005094        0x4 ../Car2X_communication_bsp/\libucosii_bsp.a(alt_exception_entry.o)
 *(.exceptions.exit.label)
 .exceptions.exit.label
                0x04005098        0x0 ../Car2X_communication_bsp/\libucosii_bsp.a(alt_irq_entry.o)
 .exceptions.exit.label
                0x04005098        0x0 ../Car2X_communication_bsp/\libucosii_bsp.a(alt_exception_entry.o)
 *(.exceptions.exit.user)
 *(.exceptions.exit)
 .exceptions.exit
                0x04005098       0x54 ../Car2X_communication_bsp/\libucosii_bsp.a(alt_exception_entry.o)
 *(.exceptions)
 .exceptions    0x040050ec       0xd0 ../Car2X_communication_bsp/\libucosii_bsp.a(alt_irq_handler.o)
                0x040050ec                alt_irq_handler
                0x040051bc                PROVIDE (__ram_exceptions_end, ABSOLUTE (.))
                0x04005020                PROVIDE (__flash_exceptions_start, LOADADDR (.exceptions))

.text           0x040051bc    0x4e954
                0x040051bc                PROVIDE (stext, ABSOLUTE (.))
 *(.interp)
 *(.hash)
 *(.dynsym)
 *(.dynstr)
 *(.gnu.version)
 *(.gnu.version_d)
 *(.gnu.version_r)
 *(.rel.init)
 *(.rela.init)
 *(.rel.text .rel.text.* .rel.gnu.linkonce.t.*)
 *(.rela.text .rela.text.* .rela.gnu.linkonce.t.*)
 *(.rel.fini)
 *(.rela.fini)
 *(.rel.rodata .rel.rodata.* .rel.gnu.linkonce.r.*)
 *(.rela.rodata .rela.rodata.* .rela.gnu.linkonce.r.*)
 *(.rel.data .rel.data.* .rel.gnu.linkonce.d.*)
 *(.rela.data .rela.data.* .rela.gnu.linkonce.d.*)
 *(.rel.tdata .rel.tdata.* .rel.gnu.linkonce.td.*)
 *(.rela.tdata .rela.tdata.* .rela.gnu.linkonce.td.*)
 *(.rel.tbss .rel.tbss.* .rel.gnu.linkonce.tb.*)
 *(.rela.tbss .rela.tbss.* .rela.gnu.linkonce.tb.*)
 *(.rel.ctors)
 *(.rela.ctors)
 *(.rel.dtors)
 *(.rela.dtors)
 *(.rel.got)
 *(.rela.got)
 *(.rel.sdata .rel.sdata.* .rel.gnu.linkonce.s.*)
 *(.rela.sdata .rela.sdata.* .rela.gnu.linkonce.s.*)
 *(.rel.sbss .rel.sbss.* .rel.gnu.linkonce.sb.*)
 *(.rela.sbss .rela.sbss.* .rela.gnu.linkonce.sb.*)
 *(.rel.sdata2 .rel.sdata2.* .rel.gnu.linkonce.s2.*)
 *(.rela.sdata2 .rela.sdata2.* .rela.gnu.linkonce.s2.*)
 *(.rel.sbss2 .rel.sbss2.* .rel.gnu.linkonce.sb2.*)
 *(.rela.sbss2 .rela.sbss2.* .rela.gnu.linkonce.sb2.*)
 *(.rel.bss .rel.bss.* .rel.gnu.linkonce.b.*)
 *(.rela.bss .rela.bss.* .rela.gnu.linkonce.b.*)
 *(.rel.plt)
 *(.rela.plt)
 *(.rel.dyn)
 *(.init)
 *(.plt)
 *(.text .stub .text.* .gnu.linkonce.t.*)
 .text          0x040051bc       0x4c ../Car2X_communication_bsp//obj/HAL/src/crt0.o
                0x040051bc                _start
 .text          0x04005208      0xba8 obj/default/alt_error_handler.o
                0x04005208                alt_uCOSIIErrorHandler
                0x0400582c                alt_NetworkErrorHandler
                0x04005ac4                alt_SSSErrorHandler
 .text          0x04005db0       0xec obj/default/main.o
                0x04005db0                SSSInitialTask
                0x04005e20                main
 .text          0x04005e9c      0x5f8 obj/default/network_utilities.o
                0x04005e9c                get_mac_addr
                0x04005ef4                get_ip_addr
                0x040060b8                get_serial_number
                0x04006294                generate_and_store_mac_addr
                0x040062c0                generate_mac_addr
                0x040063fc                get_board_mac_addr
                0x0400646c                FindLastFlashSectorOffset
 .text          0x04006494        0x0 obj/default/tse_my_system.o
 .text          0x04006494      0xb78 obj/default/COMM_CarProtocol/ADCInfoMessage.o
                0x04006494                CADCInfoMessage::doAction()
                0x040064b4                CADCInfoMessage::answerMessage(unsigned char, unsigned char*, unsigned char*)
                0x04006614                CADCInfoMessage::getLength()
                0x04006638                CADCInfoMessage::parseMessage(unsigned char*, int)
                0x040067c8                CADCInfoMessage::getBytes(unsigned char*)
                0x04006984                CADCInfoMessage::~CADCInfoMessage()
                0x040069dc                CADCInfoMessage::~CADCInfoMessage()
                0x04006a34                CADCInfoMessage::~CADCInfoMessage()
                0x04006a8c                CADCInfoMessage::CADCInfoMessage(unsigned char*, int)
                0x04006be8                CADCInfoMessage::CADCInfoMessage(unsigned char*, int)
                0x04006d44                CADCInfoMessage::CADCInfoMessage(unsigned char*)
                0x04006ea8                CADCInfoMessage::CADCInfoMessage(unsigned char*)
 .text          0x0400700c      0x914 obj/default/COMM_CarProtocol/ADCValuesMessage.o
                0x0400700c                CADCValuesMessage::doAction()
                0x0400702c                CADCValuesMessage::answerMessage(unsigned char*, unsigned short*)
                0x04007090                CADCValuesMessage::getLength()
                0x040070b4                CADCValuesMessage::parseMessage(unsigned char*, int)
                0x04007194                CADCValuesMessage::getBytes(unsigned char*)
                0x040072a8                CADCValuesMessage::~CADCValuesMessage()
                0x04007300                CADCValuesMessage::~CADCValuesMessage()
                0x04007358                CADCValuesMessage::~CADCValuesMessage()
                0x040073b0                CADCValuesMessage::CADCValuesMessage(unsigned char*, int)
                0x0400750c                CADCValuesMessage::CADCValuesMessage(unsigned char*, int)
                0x04007668                CADCValuesMessage::CADCValuesMessage(unsigned char*)
                0x040077c4                CADCValuesMessage::CADCValuesMessage(unsigned char*)
 .text          0x04007920      0xa48 obj/default/COMM_CarProtocol/AccelerationValuesMessage.o
                0x04007920                CAccelerationValuesMessage::answerMessage(short, short, short, unsigned char)
                0x0400799c                CAccelerationValuesMessage::getLength()
                0x040079c0                CAccelerationValuesMessage::parseMessage(unsigned char*, int)
                0x04007ab8                CAccelerationValuesMessage::getBytes(unsigned char*)
                0x04007c3c                CAccelerationValuesMessage::doAction()
                0x04007d00                CAccelerationValuesMessage::~CAccelerationValuesMessage()
                0x04007d58                CAccelerationValuesMessage::~CAccelerationValuesMessage()
                0x04007db0                CAccelerationValuesMessage::~CAccelerationValuesMessage()
                0x04007e08                CAccelerationValuesMessage::CAccelerationValuesMessage(unsigned char*, int)
                0x04007f64                CAccelerationValuesMessage::CAccelerationValuesMessage(unsigned char*, int)
                0x040080c0                CAccelerationValuesMessage::CAccelerationValuesMessage()
                0x04008214                CAccelerationValuesMessage::CAccelerationValuesMessage()
 .text          0x04008368      0x614 obj/default/COMM_CarProtocol/CarMessage.o
                0x04008368                CCarMessage::CCarMessage()
                0x040083a0                CCarMessage::CCarMessage()
                0x040083d8                CCarMessage::doAction()
                0x040083f8                CCarMessage::getBytes(unsigned char*)
                0x04008494                CCarMessage::getLength()
                0x040084b8                CCarMessage::getType()
                0x040084e4                CCarMessage::getSubType()
                0x04008510                CCarMessage::isValid()
                0x0400853c                CCarMessage::setHeader(unsigned char, unsigned char, bool)
                0x040085a0                CCarMessage::CCarMessage(unsigned char, unsigned char, bool)
                0x040085f8                CCarMessage::CCarMessage(unsigned char, unsigned char, bool)
                0x04008650                CCarMessage::setHeader(unsigned char, unsigned char, unsigned char, bool)
                0x040086c0                CCarMessage::parseHeader(unsigned char*, int)
                0x0400874c                CCarMessage::CCarMessage(unsigned char*, int)
                0x040087a4                CCarMessage::CCarMessage(unsigned char*, int)
                0x040087fc                CCarMessage::writeHeaderToBuffer(unsigned char*, int)
                0x0400888c                CCarMessage::~CCarMessage()
                0x040088dc                CCarMessage::~CCarMessage()
                0x0400892c                CCarMessage::~CCarMessage()
 .text          0x0400897c     0x1688 obj/default/COMM_CarProtocol/CarProtocol.o
                0x0400897c                CCarProtocol::CCarProtocol(unsigned short, CCarMessage**, unsigned long)
                0x04008a3c                CCarProtocol::CCarProtocol(unsigned short, CCarMessage**, unsigned long)
                0x04008afc                CCarProtocol::isValid()
                0x04008b28                CCarProtocol::getLength()
                0x04008bd8                CCarProtocol::getNthMessage(unsigned long)
                0x04008c38                CCarProtocol::getMessageCount()
                0x04008c60                CCarProtocol::getBytes(unsigned char*)
                0x04008e6c                CCarProtocol::~CCarProtocol()
                0x04008f8c                CCarProtocol::~CCarProtocol()
                0x040090ac                CCarProtocol::~CCarProtocol()
                0x040091cc                CCarProtocol::parsePacket(unsigned char*, int)
                0x04009f44                CCarProtocol::CCarProtocol(unsigned char*, int)
                0x04009fa4                CCarProtocol::CCarProtocol(unsigned char*, int)
 .text          0x0400a004      0x9e0 obj/default/COMM_CarProtocol/MotorMeasurementMessage.o
                0x0400a004                CMotorMeasurementMessage::doAction()
                0x0400a024                CMotorMeasurementMessage::getLength()
                0x0400a048                CMotorMeasurementMessage::answerMessage(short, unsigned short, short, short, short)
                0x0400a0d8                CMotorMeasurementMessage::getBytes(unsigned char*)
                0x0400a20c                CMotorMeasurementMessage::parseMessage(unsigned char*, int)
                0x0400a344                CMotorMeasurementMessage::~CMotorMeasurementMessage()
                0x0400a39c                CMotorMeasurementMessage::~CMotorMeasurementMessage()
                0x0400a3f4                CMotorMeasurementMessage::~CMotorMeasurementMessage()
                0x0400a44c                CMotorMeasurementMessage::CMotorMeasurementMessage(unsigned char*, int)
                0x0400a5a8                CMotorMeasurementMessage::CMotorMeasurementMessage(unsigned char*, int)
                0x0400a704                CMotorMeasurementMessage::CMotorMeasurementMessage()
                0x0400a874                CMotorMeasurementMessage::CMotorMeasurementMessage()
 .text          0x0400a9e4      0x824 obj/default/COMM_CarProtocol/MotorVelocityMessage.o
                0x0400a9e4                CMotorVelocityMessage::doAction()
                0x0400aa04                CMotorVelocityMessage::getLength()
                0x0400aa28                CMotorVelocityMessage::answerMessage(short)
                0x0400aa70                CMotorVelocityMessage::parseMessage(unsigned char*, int)
                0x0400ab04                CMotorVelocityMessage::getBytes(unsigned char*)
                0x0400ab98                CMotorVelocityMessage::~CMotorVelocityMessage()
                0x0400abf0                CMotorVelocityMessage::~CMotorVelocityMessage()
                0x0400ac48                CMotorVelocityMessage::~CMotorVelocityMessage()
                0x0400aca0                CMotorVelocityMessage::CMotorVelocityMessage(unsigned char*, int)
                0x0400adfc                CMotorVelocityMessage::CMotorVelocityMessage(unsigned char*, int)
                0x0400af58                CMotorVelocityMessage::CMotorVelocityMessage(short)
                0x0400b0b0                CMotorVelocityMessage::CMotorVelocityMessage(short)
 .text          0x0400b208      0x864 obj/default/COMM_CarProtocol/UltrasoundDistanceMessage.o
                0x0400b208                CUltrasoundDistanceMessage::doAction()
                0x0400b228                CUltrasoundDistanceMessage::answerMessage(long)
                0x0400b298                CUltrasoundDistanceMessage::getLength()
                0x0400b2bc                CUltrasoundDistanceMessage::parseMessage(unsigned char*, int)
                0x0400b350                CUltrasoundDistanceMessage::getBytes(unsigned char*)
                0x0400b40c                CUltrasoundDistanceMessage::~CUltrasoundDistanceMessage()
                0x0400b464                CUltrasoundDistanceMessage::~CUltrasoundDistanceMessage()
                0x0400b4bc                CUltrasoundDistanceMessage::~CUltrasoundDistanceMessage()
                0x0400b514                CUltrasoundDistanceMessage::CUltrasoundDistanceMessage(unsigned char*, int)
                0x0400b670                CUltrasoundDistanceMessage::CUltrasoundDistanceMessage(unsigned char*, int)
                0x0400b7cc                CUltrasoundDistanceMessage::CUltrasoundDistanceMessage()
                0x0400b91c                CUltrasoundDistanceMessage::CUltrasoundDistanceMessage()
 .text          0x0400ba6c      0x9b0 obj/default/COMM_CarProtocol/WelcomeMessage.o
                0x0400ba6c                CWelcomeMessage::doAction()
                0x0400ba8c                CWelcomeMessage::getLength()
                0x0400bab0                CWelcomeMessage::parseMessage(unsigned char*, int)
                0x0400bb84                CWelcomeMessage::answerMessage(unsigned char, unsigned char, unsigned char, unsigned char*)
                0x0400bc48                CWelcomeMessage::getBytes(unsigned char*)
                0x0400bd24                CWelcomeMessage::~CWelcomeMessage()
                0x0400bd7c                CWelcomeMessage::~CWelcomeMessage()
                0x0400bdd4                CWelcomeMessage::~CWelcomeMessage()
                0x0400be2c                CWelcomeMessage::CWelcomeMessage(unsigned char)
                0x0400bfc8                CWelcomeMessage::CWelcomeMessage(unsigned char)
                0x0400c164                CWelcomeMessage::CWelcomeMessage(unsigned char*, int)
                0x0400c2c0                CWelcomeMessage::CWelcomeMessage(unsigned char*, int)
 .text          0x0400c41c      0x2d0 obj/default/CarMessages/CControlMessage.o
                0x0400c41c                CControlMessage::answerMessage(bool)
                0x0400c440                CControlMessage::doAction()
                0x0400c460                CControlMessage::getBytes(unsigned char*)
                0x0400c488                CControlMessage::getLength()
                0x0400c4ac                CControlMessage::parseMessage(unsigned char*, int)
                0x0400c4d4                CControlMessage::~CControlMessage()
                0x0400c52c                CControlMessage::~CControlMessage()
                0x0400c584                CControlMessage::~CControlMessage()
                0x0400c5dc                CControlMessage::CControlMessage(unsigned char*, int)
                0x0400c624                CControlMessage::CControlMessage(unsigned char*, int)
                0x0400c66c                CControlMessage::CControlMessage()
                0x0400c6ac                CControlMessage::CControlMessage()
 .text          0x0400c6ec      0x2d0 obj/default/CarMessages/CEmergencyBrakeMessage.o
                0x0400c6ec                CEmergencyBrakeMessage::answerMessage(bool)
                0x0400c710                CEmergencyBrakeMessage::doAction()
                0x0400c730                CEmergencyBrakeMessage::getBytes(unsigned char*)
                0x0400c758                CEmergencyBrakeMessage::getLength()
                0x0400c77c                CEmergencyBrakeMessage::parseMessage(unsigned char*, int)
                0x0400c7a4                CEmergencyBrakeMessage::~CEmergencyBrakeMessage()
                0x0400c7fc                CEmergencyBrakeMessage::~CEmergencyBrakeMessage()
                0x0400c854                CEmergencyBrakeMessage::~CEmergencyBrakeMessage()
                0x0400c8ac                CEmergencyBrakeMessage::CEmergencyBrakeMessage(unsigned char*, int)
                0x0400c8f4                CEmergencyBrakeMessage::CEmergencyBrakeMessage(unsigned char*, int)
                0x0400c93c                CEmergencyBrakeMessage::CEmergencyBrakeMessage()
                0x0400c97c                CEmergencyBrakeMessage::CEmergencyBrakeMessage()
 .text          0x0400c9bc       0xf8 obj/default/etc/utility.o
                0x0400c9bc                delay(unsigned int)
                0x0400ca04                swapEndianess(unsigned char*, unsigned long)
 .text          0x0400cab4      0x110 obj/default/external_drivers/accelerometer_interface.o
                0x0400cab4                getAcceleration(short*)
 .text          0x0400cbc4      0x1fc obj/default/external_drivers/adc_interface.o
                0x0400cbc4                ReadADCChannels(unsigned char*, unsigned char, unsigned long*)
 .text          0x0400cdc0      0x104 obj/default/external_drivers/ultrasound_interface.o
                0x0400cdc0                measuredistance(unsigned long)
 .text          0x0400cec4      0x4c4 obj/default/sensors/ADCSensor.o
                0x0400cec4                CADCSensor::updateSensorState(CCarMessage*)
                0x0400ceec                CADCSensor::getValueByChannel(unsigned char)
                0x0400cf6c                CADCSensor::getChannelAliasStrings()
                0x0400cf94                CADCSensor::getCarMessage()
                0x0400d1a8                CADCSensor::~CADCSensor()
                0x0400d200                CADCSensor::~CADCSensor()
                0x0400d258                CADCSensor::~CADCSensor()
                0x0400d2b0                CADCSensor::CADCSensor()
                0x0400d31c                CADCSensor::CADCSensor()
 .text          0x0400d388      0x3bc obj/default/sensors/AccelerationSensor.o
                0x0400d388                CAccelerationSensor::updateSensorState(CCarMessage*)
                0x0400d3b0                CAccelerationSensor::getXAcceleration()
                0x0400d3e4                CAccelerationSensor::getYAcceleration()
                0x0400d418                CAccelerationSensor::getZAcceleration()
                0x0400d44c                CAccelerationSensor::isAccelerationValid()
                0x0400d478                CAccelerationSensor::getCarMessage()
                0x0400d594                CAccelerationSensor::~CAccelerationSensor()
                0x0400d5ec                CAccelerationSensor::~CAccelerationSensor()
                0x0400d644                CAccelerationSensor::~CAccelerationSensor()
                0x0400d69c                CAccelerationSensor::CAccelerationSensor()
                0x0400d6f0                CAccelerationSensor::CAccelerationSensor()
 .text          0x0400d744      0x1f4 obj/default/sensors/SensorState.o
                0x0400d744                CSensorState::CSensorState()
                0x0400d774                CSensorState::CSensorState()
                0x0400d7a4                CSensorState::getCarMessage()
                0x0400d7c8                CSensorState::updateSensorState(CCarMessage*)
                0x0400d7f0                CSensorState::getType()
                0x0400d81c                CSensorState::isValid()
                0x0400d848                CSensorState::~CSensorState()
                0x0400d898                CSensorState::~CSensorState()
                0x0400d8e8                CSensorState::~CSensorState()
 .text          0x0400d938      0x340 obj/default/sensors/UltrasoundSensor.o
                0x0400d938                CUltrasoundSensor::updateSensorState(CCarMessage*)
                0x0400d960                CUltrasoundSensor::getDistance()
                0x0400d98c                CUltrasoundSensor::isDistanceValid()
                0x0400d9bc                CUltrasoundSensor::getCarMessage()
                0x0400dad8                CUltrasoundSensor::~CUltrasoundSensor()
                0x0400db30                CUltrasoundSensor::~CUltrasoundSensor()
                0x0400db88                CUltrasoundSensor::~CUltrasoundSensor()
                0x0400dbe0                CUltrasoundSensor::CUltrasoundSensor()
                0x0400dc2c                CUltrasoundSensor::CUltrasoundSensor()
 .text          0x0400dc78      0x8ec obj/default/socketserver.o
                0x0400dc78                sss_reset_connection(SSS_SOCKET*)
                0x0400dcd8                receive_bytes(SSS_SOCKET*)
                0x0400dd64                sss_exec_command(CCarProtocol*)
                0x0400decc                sss_handle_receive(SSS_SOCKET*)
                0x0400e2b8                sss_handle_accept(int, SSS_SOCKET*)
                0x0400e378                SSSSimpleSocketServerTask
 .text          0x0400e564      0xb44 obj/default/terasic_lib/I2C.o
                0x0400e564                i2c_stop(unsigned long, unsigned long)
                0x0400e5dc                i2c_start(unsigned long, unsigned long)
                0x0400e664                i2c_read(unsigned long, unsigned long, unsigned char*, bool)
                0x0400e7b8                i2c_write(unsigned long, unsigned long, unsigned char)
                0x0400e8d8                I2C_MultipleRead(unsigned long, unsigned long, signed char, unsigned char, unsigned char*, unsigned short)
                0x0400eaa4                I2C_MultipleWrite(unsigned long, unsigned long, signed char, unsigned char, unsigned char*, unsigned short)
                0x0400ebf0                I2C_Read(unsigned long, unsigned long, signed char, unsigned char, unsigned char*)
                0x0400ed64                I2C_Write(unsigned long, unsigned long, signed char, unsigned char, unsigned char)
                0x0400eeac                i2c_data_verify(unsigned long, unsigned long, unsigned char)
                0x0400f024                I2C_Verify(unsigned long, unsigned long, unsigned long)
 .text          0x0400f0a8      0x324 obj/default/terasic_lib/accelerometer_adxl345_spi.o
                0x0400f0a8                ADXL345_SPI_IdRead(unsigned long, unsigned char*)
                0x0400f0ec                ADXL345_SPI_IsDataReady(unsigned long)
                0x0400f158                ADXL345_SPI_XYZ_Read(unsigned long, unsigned short*)
                0x0400f224                ADXL345_SPI_Init(unsigned long)
                0x0400f2f4                ADXL345_SPI_WaitDataReady(unsigned long)
 .text          0x0400f3cc      0x108 obj/default/terasic_lib/adc_spi_read.o
                0x0400f3cc                ADC_Read(unsigned char)
 .text          0x0400f4d4      0x3c4 obj/default/terasic_lib/terasic_spi.o
                0x0400f4d4                SPI_Init(unsigned long)
                0x0400f520                SPI_MultipleRead(unsigned long, unsigned char, unsigned char*, unsigned char)
                0x0400f6a4                SPI_Read(unsigned long, unsigned char, unsigned char*)
                0x0400f6ec                SPI_MultipleWrite(unsigned long, unsigned char, unsigned char*, unsigned char)
                0x0400f850                SPI_Write(unsigned long, unsigned char, unsigned char)
 .text          0x0400f898      0xbec c:/altera/12.1/nios2eds/bin/gnu/h-i686-mingw32/bin/../lib/gcc/nios2-elf/4.1.2/../../../../nios2-elf/lib\libstdc++.a(eh_personality.o)
                0x0400fe24                __cxa_call_unexpected
                0x0400ffa4                __gxx_personality_sj0
 .text          0x04010484       0x94 c:/altera/12.1/nios2eds/bin/gnu/h-i686-mingw32/bin/../lib/gcc/nios2-elf/4.1.2/../../../../nios2-elf/lib\libstdc++.a(eh_exception.o)
                0x04010484                std::exception::what() const
                0x04010494                std::exception::~exception()
                0x040104a4                std::exception::~exception()
                0x040104b4                std::exception::~exception()
                0x040104c4                std::bad_exception::~bad_exception()
                0x040104f8                std::bad_exception::~bad_exception()
                0x04010508                std::bad_exception::~bad_exception()
 .text          0x04010518        0xc c:/altera/12.1/nios2eds/bin/gnu/h-i686-mingw32/bin/../lib/gcc/nios2-elf/4.1.2/../../../../nios2-elf/lib\libstdc++.a(del_op.o)
                0x04010518                operator delete(void*)
 .text          0x04010524       0x44 c:/altera/12.1/nios2eds/bin/gnu/h-i686-mingw32/bin/../lib/gcc/nios2-elf/4.1.2/../../../../nios2-elf/lib\libstdc++.a(eh_call.o)
                0x04010524                __cxa_call_terminate
 .text          0x04010568      0x1bc c:/altera/12.1/nios2eds/bin/gnu/h-i686-mingw32/bin/../lib/gcc/nios2-elf/4.1.2/../../../../nios2-elf/lib\libstdc++.a(class_type_info.o)
                0x04010568                __cxxabiv1::__class_type_info::__do_upcast(__cxxabiv1::__class_type_info const*, void**) const
                0x040105d4                __cxxabiv1::__class_type_info::__do_find_public_src(long, void const*, __cxxabiv1::__class_type_info const*, void const*) const
                0x040105f4                __cxxabiv1::__class_type_info::~__class_type_info()
                0x04010628                __cxxabiv1::__class_type_info::~__class_type_info()
                0x04010638                __cxxabiv1::__class_type_info::~__class_type_info()
                0x04010648                __cxxabiv1::__class_type_info::__do_catch(std::type_info const*, void**, unsigned int) const
                0x040106a8                __cxxabiv1::__class_type_info::__do_upcast(__cxxabiv1::__class_type_info const*, void const*, __cxxabiv1::__class_type_info::__upcast_result&) const
                0x040106d8                __cxxabiv1::__class_type_info::__do_dyncast(long, __cxxabiv1::__class_type_info::__sub_kind, __cxxabiv1::__class_type_info const*, void const*, __cxxabiv1::__class_type_info const*, void const*, __cxxabiv1::__class_type_info::__dyncast_result&) const
 .text          0x04010724      0x100 c:/altera/12.1/nios2eds/bin/gnu/h-i686-mingw32/bin/../lib/gcc/nios2-elf/4.1.2/../../../../nios2-elf/lib\libstdc++.a(new_op.o)
                0x04010724                operator new(unsigned long)
 .text          0x04010824      0x1c8 c:/altera/12.1/nios2eds/bin/gnu/h-i686-mingw32/bin/../lib/gcc/nios2-elf/4.1.2/../../../../nios2-elf/lib\libstdc++.a(si_class_type_info.o)
                0x04010824                __cxxabiv1::__si_class_type_info::__do_upcast(__cxxabiv1::__class_type_info const*, void const*, __cxxabiv1::__class_type_info::__upcast_result&) const
                0x0401089c                __cxxabiv1::__si_class_type_info::~__si_class_type_info()
                0x040108d0                __cxxabiv1::__si_class_type_info::~__si_class_type_info()
                0x040108e0                __cxxabiv1::__si_class_type_info::~__si_class_type_info()
                0x040108f0                __cxxabiv1::__si_class_type_info::__do_find_public_src(long, void const*, __cxxabiv1::__class_type_info const*, void const*) const
                0x04010924                __cxxabiv1::__si_class_type_info::__do_dyncast(long, __cxxabiv1::__class_type_info::__sub_kind, __cxxabiv1::__class_type_info const*, void const*, __cxxabiv1::__class_type_info const*, void const*, __cxxabiv1::__class_type_info::__dyncast_result&) const
 .text          0x040109ec      0x174 c:/altera/12.1/nios2eds/bin/gnu/h-i686-mingw32/bin/../lib/gcc/nios2-elf/4.1.2/../../../../nios2-elf/lib\libstdc++.a(eh_alloc.o)
                0x040109ec                __cxa_free_exception
                0x04010a2c                __cxa_allocate_exception
 .text          0x04010b60       0x58 c:/altera/12.1/nios2eds/bin/gnu/h-i686-mingw32/bin/../lib/gcc/nios2-elf/4.1.2/../../../../nios2-elf/lib\libstdc++.a(tinfo.o)
                0x04010b60                std::type_info::__is_pointer_p() const
                0x04010b68                std::type_info::__is_function_p() const
                0x04010b70                std::type_info::__do_catch(std::type_info const*, void**, unsigned int) const
                0x04010b80                std::type_info::__do_upcast(__cxxabiv1::__class_type_info const*, void**) const
                0x04010b88                std::type_info::~type_info()
                0x04010b98                std::type_info::~type_info()
                0x04010ba8                std::type_info::~type_info()
 .text          0x04010bb8      0x148 c:/altera/12.1/nios2eds/bin/gnu/h-i686-mingw32/bin/../lib/gcc/nios2-elf/4.1.2/../../../../nios2-elf/lib\libstdc++.a(eh_throw.o)
                0x04010bb8                __cxa_rethrow
                0x04010c2c                __cxa_throw
 .text          0x04010d00      0x10c c:/altera/12.1/nios2eds/bin/gnu/h-i686-mingw32/bin/../lib/gcc/nios2-elf/4.1.2/../../../../nios2-elf/lib\libstdc++.a(eh_terminate.o)
                0x04010d00                std::set_terminate(void (*)())
                0x04010d14                std::set_unexpected(void (*)())
                0x04010d28                __cxxabiv1::__terminate(void (*)())
                0x04010dcc                std::terminate()
                0x04010de4                __cxxabiv1::__unexpected(void (*)())
                0x04010df4                std::unexpected()
 .text          0x04010e0c       0x10 c:/altera/12.1/nios2eds/bin/gnu/h-i686-mingw32/bin/../lib/gcc/nios2-elf/4.1.2/../../../../nios2-elf/lib\libstdc++.a(eh_globals.o)
                0x04010e0c                __cxa_get_globals_fast
                0x04010e14                __cxa_get_globals
 .text          0x04010e1c        0x0 c:/altera/12.1/nios2eds/bin/gnu/h-i686-mingw32/bin/../lib/gcc/nios2-elf/4.1.2/../../../../nios2-elf/lib\libstdc++.a(eh_unex_handler.o)
 .text          0x04010e1c       0x60 c:/altera/12.1/nios2eds/bin/gnu/h-i686-mingw32/bin/../lib/gcc/nios2-elf/4.1.2/../../../../nios2-elf/lib\libstdc++.a(new_handler.o)
                0x04010e1c                std::set_new_handler(void (*)())
                0x04010e28                std::bad_alloc::~bad_alloc()
                0x04010e5c                std::bad_alloc::~bad_alloc()
                0x04010e6c                std::bad_alloc::~bad_alloc()
 .text          0x04010e7c      0x1e4 c:/altera/12.1/nios2eds/bin/gnu/h-i686-mingw32/bin/../lib/gcc/nios2-elf/4.1.2/../../../../nios2-elf/lib\libstdc++.a(eh_catch.o)
                0x04010e7c                __cxa_get_exception_ptr
                0x04010e84                std::uncaught_exception()
                0x04010ea4                __cxa_end_catch
                0x04010f48                __cxa_begin_catch
 .text          0x04011060        0x0 c:/altera/12.1/nios2eds/bin/gnu/h-i686-mingw32/bin/../lib/gcc/nios2-elf/4.1.2/../../../../nios2-elf/lib\libstdc++.a(eh_term_handler.o)
 .text          0x04011060      0x14c c:/altera/12.1/nios2eds/bin/gnu/h-i686-mingw32/bin/../lib/gcc/nios2-elf/4.1.2\libgcc.a(lib2-divmod.o)
                0x040110dc                __divsi3
                0x0401113c                __modsi3
                0x0401119c                __udivsi3
                0x040111a4                __umodsi3
 .text          0x040111ac      0x548 c:/altera/12.1/nios2eds/bin/gnu/h-i686-mingw32/bin/../lib/gcc/nios2-elf/4.1.2\libgcc.a(unwind-sjlj.o)
                0x040111ac                _Unwind_SjLj_Register
                0x040111bc                _Unwind_SjLj_Unregister
                0x040111c8                _Unwind_GetGR
                0x040111e0                _Unwind_GetCFA
                0x040111f4                _Unwind_SetGR
                0x0401120c                _Unwind_GetIP
                0x0401121c                _Unwind_GetIPInfo
                0x04011230                _Unwind_SetIP
                0x04011240                _Unwind_GetLanguageSpecificData
                0x0401124c                _Unwind_GetRegionStart
                0x04011254                _Unwind_FindEnclosingFunction
                0x0401125c                _Unwind_GetDataRelBase
                0x04011264                _Unwind_GetTextRelBase
                0x0401136c                _Unwind_DeleteException
                0x04011478                _Unwind_SjLj_Resume
                0x040114d4                _Unwind_SjLj_RaiseException
                0x040115cc                _Unwind_SjLj_ForcedUnwind
                0x0401161c                _Unwind_Backtrace
                0x0401169c                _Unwind_SjLj_Resume_or_Rethrow
 .text          0x040116f4       0x18 c:/altera/12.1/nios2eds/bin/gnu/h-i686-mingw32/bin/../lib/gcc/nios2-elf/4.1.2/../../../../nios2-elf/lib\libc.a(lib_a-abort.o)
                0x040116f4                abort
 .text          0x0401170c        0x0 c:/altera/12.1/nios2eds/bin/gnu/h-i686-mingw32/bin/../lib/gcc/nios2-elf/4.1.2/../../../../nios2-elf/lib\libc.a(lib_a-ctype_.o)
 .text          0x0401170c       0x60 c:/altera/12.1/nios2eds/bin/gnu/h-i686-mingw32/bin/../lib/gcc/nios2-elf/4.1.2/../../../../nios2-elf/lib\libc.a(lib_a-fprintf.o)
                0x0401170c                fprintf
                0x04011738                _fprintf_r
 .text          0x0401176c       0xdc c:/altera/12.1/nios2eds/bin/gnu/h-i686-mingw32/bin/../lib/gcc/nios2-elf/4.1.2/../../../../nios2-elf/lib\libc.a(lib_a-fwrite.o)
                0x0401176c                _fwrite_r
                0x04011808                fwrite
 .text          0x04011848      0x128 c:/altera/12.1/nios2eds/bin/gnu/h-i686-mingw32/bin/../lib/gcc/nios2-elf/4.1.2/../../../../nios2-elf/lib\libc.a(lib_a-getc.o)
                0x04011848                getc
                0x040118e0                _getc_r
 .text          0x04011970        0x0 c:/altera/12.1/nios2eds/bin/gnu/h-i686-mingw32/bin/../lib/gcc/nios2-elf/4.1.2/../../../../nios2-elf/lib\libc.a(lib_a-impure.o)
 .text          0x04011970       0x28 c:/altera/12.1/nios2eds/bin/gnu/h-i686-mingw32/bin/../lib/gcc/nios2-elf/4.1.2/../../../../nios2-elf/lib\libc.a(lib_a-malloc.o)
                0x04011970                free
                0x04011984                malloc
 .text          0x04011998      0x740 c:/altera/12.1/nios2eds/bin/gnu/h-i686-mingw32/bin/../lib/gcc/nios2-elf/4.1.2/../../../../nios2-elf/lib\libc.a(lib_a-mallocr.o)
                0x04011998                _malloc_r
 .text          0x040120d8       0xe0 c:/altera/12.1/nios2eds/bin/gnu/h-i686-mingw32/bin/../lib/gcc/nios2-elf/4.1.2/../../../../nios2-elf/lib\libc.a(lib_a-memmove.o)
                0x040120d8                memmove
 .text          0x040121b8       0x98 c:/altera/12.1/nios2eds/bin/gnu/h-i686-mingw32/bin/../lib/gcc/nios2-elf/4.1.2/../../../../nios2-elf/lib\libc.a(lib_a-memset.o)
                0x040121b8                memset
 .text          0x04012250       0x80 c:/altera/12.1/nios2eds/bin/gnu/h-i686-mingw32/bin/../lib/gcc/nios2-elf/4.1.2/../../../../nios2-elf/lib\libc.a(lib_a-perror.o)
                0x04012250                _perror_r
                0x040122bc                perror
 .text          0x040122d0       0x78 c:/altera/12.1/nios2eds/bin/gnu/h-i686-mingw32/bin/../lib/gcc/nios2-elf/4.1.2/../../../../nios2-elf/lib\libc.a(lib_a-printf.o)
                0x040122d0                printf
                0x04012314                _printf_r
 .text          0x04012348      0x1ec c:/altera/12.1/nios2eds/bin/gnu/h-i686-mingw32/bin/../lib/gcc/nios2-elf/4.1.2/../../../../nios2-elf/lib\libc.a(lib_a-putc.o)
                0x04012348                putc
                0x0401244c                _putc_r
 .text          0x04012534       0x24 c:/altera/12.1/nios2eds/bin/gnu/h-i686-mingw32/bin/../lib/gcc/nios2-elf/4.1.2/../../../../nios2-elf/lib\libc.a(lib_a-putchar.o)
                0x04012534                putchar
                0x04012550                _putchar_r
 .text          0x04012558       0xb4 c:/altera/12.1/nios2eds/bin/gnu/h-i686-mingw32/bin/../lib/gcc/nios2-elf/4.1.2/../../../../nios2-elf/lib\libc.a(lib_a-puts.o)
                0x04012558                _puts_r
                0x040125f8                puts
 .text          0x0401260c       0x60 c:/altera/12.1/nios2eds/bin/gnu/h-i686-mingw32/bin/../lib/gcc/nios2-elf/4.1.2/../../../../nios2-elf/lib\libc.a(lib_a-rget.o)
                0x0401260c                __srget_r
                0x04012658                __srget
 .text          0x0401266c       0x70 c:/altera/12.1/nios2eds/bin/gnu/h-i686-mingw32/bin/../lib/gcc/nios2-elf/4.1.2/../../../../nios2-elf/lib\libc.a(lib_a-sbrkr.o)
                0x0401266c                _sbrk_r
 .text          0x040126dc      0x2d8 c:/altera/12.1/nios2eds/bin/gnu/h-i686-mingw32/bin/../lib/gcc/nios2-elf/4.1.2/../../../../nios2-elf/lib\libc.a(lib_a-signal.o)
                0x040126dc                _raise_r
                0x040127a8                raise
                0x040127bc                _init_signal_r
                0x04012820                _init_signal
                0x04012830                __sigtramp_r
                0x040128e4                __sigtramp
                0x040128f8                _signal_r
                0x04012998                signal
 .text          0x040129b4       0x78 c:/altera/12.1/nios2eds/bin/gnu/h-i686-mingw32/bin/../lib/gcc/nios2-elf/4.1.2/../../../../nios2-elf/lib\libc.a(lib_a-signalr.o)
                0x040129b4                _getpid_r
                0x040129b8                _kill_r
 .text          0x04012a2c      0x674 c:/altera/12.1/nios2eds/bin/gnu/h-i686-mingw32/bin/../lib/gcc/nios2-elf/4.1.2/../../../../nios2-elf/lib\libc.a(lib_a-strerror.o)
                0x04012a2c                strerror
 .text          0x040130a0       0x74 c:/altera/12.1/nios2eds/bin/gnu/h-i686-mingw32/bin/../lib/gcc/nios2-elf/4.1.2/../../../../nios2-elf/lib\libc.a(lib_a-strlen.o)
                0x040130a0                strlen
 .text          0x04013114        0x8 c:/altera/12.1/nios2eds/bin/gnu/h-i686-mingw32/bin/../lib/gcc/nios2-elf/4.1.2/../../../../nios2-elf/lib\libc.a(lib_a-u_strerr.o)
                0x04013114                _user_strerror
 .text          0x0401311c     0x1f28 c:/altera/12.1/nios2eds/bin/gnu/h-i686-mingw32/bin/../lib/gcc/nios2-elf/4.1.2/../../../../nios2-elf/lib\libc.a(lib_a-vfprintf.o)
                0x04013174                ___vfprintf_internal_r
                0x04015020                __vfprintf_internal
 .text          0x04015044      0x14c c:/altera/12.1/nios2eds/bin/gnu/h-i686-mingw32/bin/../lib/gcc/nios2-elf/4.1.2/../../../../nios2-elf/lib\libc.a(lib_a-wbuf.o)
                0x04015044                __swbuf_r
                0x04015174                __swbuf
 .text          0x04015190      0x13c c:/altera/12.1/nios2eds/bin/gnu/h-i686-mingw32/bin/../lib/gcc/nios2-elf/4.1.2/../../../../nios2-elf/lib\libc.a(lib_a-wsetup.o)
                0x04015190                __swsetup_r
 .text          0x040152cc     0x17cc c:/altera/12.1/nios2eds/bin/gnu/h-i686-mingw32/bin/../lib/gcc/nios2-elf/4.1.2/../../../../nios2-elf/lib\libc.a(lib_a-dtoa.o)
                0x040154e4                _dtoa_r
 .text          0x04016a98      0x230 c:/altera/12.1/nios2eds/bin/gnu/h-i686-mingw32/bin/../lib/gcc/nios2-elf/4.1.2/../../../../nios2-elf/lib\libc.a(lib_a-fflush.o)
                0x04016a98                _fflush_r
                0x04016c94                fflush
 .text          0x04016cc8      0x2c0 c:/altera/12.1/nios2eds/bin/gnu/h-i686-mingw32/bin/../lib/gcc/nios2-elf/4.1.2/../../../../nios2-elf/lib\libc.a(lib_a-findfp.o)
                0x04016d20                __sfp_lock_acquire
                0x04016d24                __sfp_lock_release
                0x04016d28                __sinit_lock_acquire
                0x04016d2c                __sinit_lock_release
                0x04016d30                __sinit
                0x04016de4                __fp_unlock_all
                0x04016dfc                __fp_lock_all
                0x04016e14                _cleanup_r
                0x04016e20                _cleanup
                0x04016e30                __sfmoreglue
                0x04016e98                __sfp
 .text          0x04016f88       0xbc c:/altera/12.1/nios2eds/bin/gnu/h-i686-mingw32/bin/../lib/gcc/nios2-elf/4.1.2/../../../../nios2-elf/lib\libc.a(lib_a-fputc.o)
                0x04016f88                fputc
                0x04016fec                _fputc_r
 .text          0x04017044       0x90 c:/altera/12.1/nios2eds/bin/gnu/h-i686-mingw32/bin/../lib/gcc/nios2-elf/4.1.2/../../../../nios2-elf/lib\libc.a(lib_a-fputs.o)
                0x04017044                _fputs_r
                0x040170b8                fputs
 .text          0x040170d4      0x440 c:/altera/12.1/nios2eds/bin/gnu/h-i686-mingw32/bin/../lib/gcc/nios2-elf/4.1.2/../../../../nios2-elf/lib\libc.a(lib_a-freer.o)
                0x040170d4                _malloc_trim_r
                0x04017200                _free_r
 .text          0x04017514      0x49c c:/altera/12.1/nios2eds/bin/gnu/h-i686-mingw32/bin/../lib/gcc/nios2-elf/4.1.2/../../../../nios2-elf/lib\libc.a(lib_a-fvwrite.o)
                0x04017514                __sfvwrite_r
 .text          0x040179b0      0x180 c:/altera/12.1/nios2eds/bin/gnu/h-i686-mingw32/bin/../lib/gcc/nios2-elf/4.1.2/../../../../nios2-elf/lib\libc.a(lib_a-fwalk.o)
                0x040179b0                _fwalk_reent
                0x04017a78                _fwalk
 .text          0x04017b30        0x0 c:/altera/12.1/nios2eds/bin/gnu/h-i686-mingw32/bin/../lib/gcc/nios2-elf/4.1.2/../../../../nios2-elf/lib\libc.a(lib_a-int_errno.o)
 .text          0x04017b30       0xc4 c:/altera/12.1/nios2eds/bin/gnu/h-i686-mingw32/bin/../lib/gcc/nios2-elf/4.1.2/../../../../nios2-elf/lib\libc.a(lib_a-locale.o)
                0x04017b30                __locale_charset
                0x04017b38                _localeconv_r
                0x04017b44                localeconv
                0x04017b54                _setlocale_r
                0x04017bd8                setlocale
 .text          0x04017bf4      0x194 c:/altera/12.1/nios2eds/bin/gnu/h-i686-mingw32/bin/../lib/gcc/nios2-elf/4.1.2/../../../../nios2-elf/lib\libc.a(lib_a-makebuf.o)
                0x04017bf4                __smakebuf_r
 .text          0x04017d88       0xe4 c:/altera/12.1/nios2eds/bin/gnu/h-i686-mingw32/bin/../lib/gcc/nios2-elf/4.1.2/../../../../nios2-elf/lib\libc.a(lib_a-memchr.o)
                0x04017d88                memchr
 .text          0x04017e6c       0xa0 c:/altera/12.1/nios2eds/bin/gnu/h-i686-mingw32/bin/../lib/gcc/nios2-elf/4.1.2/../../../../nios2-elf/lib\libc.a(lib_a-memcpy.o)
                0x04017e6c                memcpy
 .text          0x04017f0c      0xff4 c:/altera/12.1/nios2eds/bin/gnu/h-i686-mingw32/bin/../lib/gcc/nios2-elf/4.1.2/../../../../nios2-elf/lib\libc.a(lib_a-mprec.o)
                0x04017f0c                _Bfree
                0x04017f34                __hi0bits
                0x04017fa4                __lo0bits
                0x04018068                __mcmp
                0x040180c8                __ulp
                0x04018148                __b2d
                0x04018268                __ratio
                0x04018318                _mprec_log10
                0x040183ac                __copybits
                0x04018404                __any_on
                0x0401848c                _Balloc
                0x04018548                __d2b
                0x040186c4                __mdiff
                0x04018850                __lshift
                0x0401899c                __multiply
                0x04018b84                __i2b
                0x04018bc0                __multadd
                0x04018cc0                __pow5mult
                0x04018de0                __s2b
 .text          0x04018f00      0x5f4 c:/altera/12.1/nios2eds/bin/gnu/h-i686-mingw32/bin/../lib/gcc/nios2-elf/4.1.2/../../../../nios2-elf/lib\libc.a(lib_a-reallocr.o)
                0x04018f00                _realloc_r
 .text          0x040194f4      0x1e0 c:/altera/12.1/nios2eds/bin/gnu/h-i686-mingw32/bin/../lib/gcc/nios2-elf/4.1.2/../../../../nios2-elf/lib\libc.a(lib_a-refill.o)
                0x040194f4                __srefill_r
 .text          0x040196d4       0x40 c:/altera/12.1/nios2eds/bin/gnu/h-i686-mingw32/bin/../lib/gcc/nios2-elf/4.1.2/../../../../nios2-elf/lib\libc.a(lib_a-s_isinfd.o)
                0x040196d4                __isinfd
 .text          0x04019714       0x30 c:/altera/12.1/nios2eds/bin/gnu/h-i686-mingw32/bin/../lib/gcc/nios2-elf/4.1.2/../../../../nios2-elf/lib\libc.a(lib_a-s_isnand.o)
                0x04019714                __isnand
 .text          0x04019744      0x14c c:/altera/12.1/nios2eds/bin/gnu/h-i686-mingw32/bin/../lib/gcc/nios2-elf/4.1.2/../../../../nios2-elf/lib\libc.a(lib_a-stdio.o)
                0x04019744                __sclose
                0x0401974c                __sseek
                0x040197b4                __swrite
                0x04019830                __sread
 .text          0x04019890       0xbc c:/altera/12.1/nios2eds/bin/gnu/h-i686-mingw32/bin/../lib/gcc/nios2-elf/4.1.2/../../../../nios2-elf/lib\libc.a(lib_a-strcmp.o)
                0x04019890                strcmp
 .text          0x0401994c       0x78 c:/altera/12.1/nios2eds/bin/gnu/h-i686-mingw32/bin/../lib/gcc/nios2-elf/4.1.2/../../../../nios2-elf/lib\libc.a(lib_a-writer.o)
                0x0401994c                _write_r
 .text          0x040199c4       0xb4 c:/altera/12.1/nios2eds/bin/gnu/h-i686-mingw32/bin/../lib/gcc/nios2-elf/4.1.2/../../../../nios2-elf/lib\libc.a(lib_a-callocr.o)
                0x040199c4                _calloc_r
 .text          0x04019a78       0x70 c:/altera/12.1/nios2eds/bin/gnu/h-i686-mingw32/bin/../lib/gcc/nios2-elf/4.1.2/../../../../nios2-elf/lib\libc.a(lib_a-closer.o)
                0x04019a78                _close_r
 .text          0x04019ae8      0x124 c:/altera/12.1/nios2eds/bin/gnu/h-i686-mingw32/bin/../lib/gcc/nios2-elf/4.1.2/../../../../nios2-elf/lib\libc.a(lib_a-fclose.o)
                0x04019ae8                _fclose_r
                0x04019bf8                fclose
 .text          0x04019c0c       0x74 c:/altera/12.1/nios2eds/bin/gnu/h-i686-mingw32/bin/../lib/gcc/nios2-elf/4.1.2/../../../../nios2-elf/lib\libc.a(lib_a-fstatr.o)
                0x04019c0c                _fstat_r
 .text          0x04019c80       0x70 c:/altera/12.1/nios2eds/bin/gnu/h-i686-mingw32/bin/../lib/gcc/nios2-elf/4.1.2/../../../../nios2-elf/lib\libc.a(lib_a-isattyr.o)
                0x04019c80                _isatty_r
 .text          0x04019cf0       0x78 c:/altera/12.1/nios2eds/bin/gnu/h-i686-mingw32/bin/../lib/gcc/nios2-elf/4.1.2/../../../../nios2-elf/lib\libc.a(lib_a-lseekr.o)
                0x04019cf0                _lseek_r
 .text          0x04019d68       0x78 c:/altera/12.1/nios2eds/bin/gnu/h-i686-mingw32/bin/../lib/gcc/nios2-elf/4.1.2/../../../../nios2-elf/lib\libc.a(lib_a-readr.o)
                0x04019d68                _read_r
 .text          0x04019de0      0x5dc c:/altera/12.1/nios2eds/bin/gnu/h-i686-mingw32/bin/../lib/gcc/nios2-elf/4.1.2\libgcc.a(_udivdi3.o)
                0x04019de0                __udivdi3
 .text          0x0401a3bc      0x5b0 c:/altera/12.1/nios2eds/bin/gnu/h-i686-mingw32/bin/../lib/gcc/nios2-elf/4.1.2\libgcc.a(_umoddi3.o)
                0x0401a3bc                __umoddi3
 .text          0x0401a96c      0x504 c:/altera/12.1/nios2eds/bin/gnu/h-i686-mingw32/bin/../lib/gcc/nios2-elf/4.1.2\libgcc.a(_addsub_df.o)
                0x0401ad7c                __subdf3
                0x0401adfc                __adddf3
 .text          0x0401ae70      0x3c4 c:/altera/12.1/nios2eds/bin/gnu/h-i686-mingw32/bin/../lib/gcc/nios2-elf/4.1.2\libgcc.a(_mul_df.o)
                0x0401ae70                __muldf3
 .text          0x0401b234      0x258 c:/altera/12.1/nios2eds/bin/gnu/h-i686-mingw32/bin/../lib/gcc/nios2-elf/4.1.2\libgcc.a(_div_df.o)
                0x0401b234                __divdf3
 .text          0x0401b48c       0x88 c:/altera/12.1/nios2eds/bin/gnu/h-i686-mingw32/bin/../lib/gcc/nios2-elf/4.1.2\libgcc.a(_eq_df.o)
                0x0401b48c                __eqdf2
 .text          0x0401b514       0x88 c:/altera/12.1/nios2eds/bin/gnu/h-i686-mingw32/bin/../lib/gcc/nios2-elf/4.1.2\libgcc.a(_ne_df.o)
                0x0401b514                __nedf2
 .text          0x0401b59c       0x88 c:/altera/12.1/nios2eds/bin/gnu/h-i686-mingw32/bin/../lib/gcc/nios2-elf/4.1.2\libgcc.a(_gt_df.o)
                0x0401b59c                __gtdf2
 .text          0x0401b624       0x88 c:/altera/12.1/nios2eds/bin/gnu/h-i686-mingw32/bin/../lib/gcc/nios2-elf/4.1.2\libgcc.a(_ge_df.o)
                0x0401b624                __gedf2
 .text          0x0401b6ac       0x88 c:/altera/12.1/nios2eds/bin/gnu/h-i686-mingw32/bin/../lib/gcc/nios2-elf/4.1.2\libgcc.a(_lt_df.o)
                0x0401b6ac                __ltdf2
 .text          0x0401b734       0xf8 c:/altera/12.1/nios2eds/bin/gnu/h-i686-mingw32/bin/../lib/gcc/nios2-elf/4.1.2\libgcc.a(_si_to_df.o)
                0x0401b734                __floatsidf
 .text          0x0401b82c       0xd8 c:/altera/12.1/nios2eds/bin/gnu/h-i686-mingw32/bin/../lib/gcc/nios2-elf/4.1.2\libgcc.a(_df_to_si.o)
                0x0401b82c                __fixdfsi
 .text          0x0401b904        0x0 c:/altera/12.1/nios2eds/bin/gnu/h-i686-mingw32/bin/../lib/gcc/nios2-elf/4.1.2\libgcc.a(_thenan_df.o)
 .text          0x0401b904      0x194 c:/altera/12.1/nios2eds/bin/gnu/h-i686-mingw32/bin/../lib/gcc/nios2-elf/4.1.2\libgcc.a(_usi_to_df.o)
                0x0401b904                __floatunsidf
 .text          0x0401ba98       0x98 c:/altera/12.1/nios2eds/bin/gnu/h-i686-mingw32/bin/../lib/gcc/nios2-elf/4.1.2\libgcc.a(_muldi3.o)
                0x0401ba98                __muldi3
 .text          0x0401bb30        0x0 c:/altera/12.1/nios2eds/bin/gnu/h-i686-mingw32/bin/../lib/gcc/nios2-elf/4.1.2\libgcc.a(_clz.o)
 .text          0x0401bb30       0x80 c:/altera/12.1/nios2eds/bin/gnu/h-i686-mingw32/bin/../lib/gcc/nios2-elf/4.1.2\libgcc.a(_clzsi2.o)
                0x0401bb30                __clzsi2
 .text          0x0401bbb0      0x314 c:/altera/12.1/nios2eds/bin/gnu/h-i686-mingw32/bin/../lib/gcc/nios2-elf/4.1.2\libgcc.a(_pack_df.o)
                0x0401bbb0                __pack_d
 .text          0x0401bec4      0x138 c:/altera/12.1/nios2eds/bin/gnu/h-i686-mingw32/bin/../lib/gcc/nios2-elf/4.1.2\libgcc.a(_unpack_df.o)
                0x0401bec4                __unpack_d
 .text          0x0401bffc       0xc8 c:/altera/12.1/nios2eds/bin/gnu/h-i686-mingw32/bin/../lib/gcc/nios2-elf/4.1.2\libgcc.a(_fpcmp_parts_df.o)
                0x0401bffc                __fpcmp_parts_d
 .text          0x0401c0c4       0x6c ../Car2X_communication_bsp/\libucosii_bsp.a(alt_exit.o)
                0x0401c104                _exit
 .text          0x0401c130      0x134 ../Car2X_communication_bsp/\libucosii_bsp.a(alt_fstat.o)
                0x0401c130                fstat
 .text          0x0401c264       0x20 ../Car2X_communication_bsp/\libucosii_bsp.a(alt_getpid.o)
                0x0401c264                getpid
 .text          0x0401c284      0x120 ../Car2X_communication_bsp/\libucosii_bsp.a(alt_isatty.o)
                0x0401c284                isatty
 .text          0x0401c3a4      0x1a0 ../Car2X_communication_bsp/\libucosii_bsp.a(alt_kill.o)
                0x0401c3a4                kill
 .text          0x0401c544       0xec ../Car2X_communication_bsp/\libucosii_bsp.a(alt_load.o)
                0x0401c544                alt_load
 .text          0x0401c630      0x150 ../Car2X_communication_bsp/\libucosii_bsp.a(alt_lseek.o)
                0x0401c630                lseek
 .text          0x0401c780       0xc8 ../Car2X_communication_bsp/\libucosii_bsp.a(alt_main.o)
                0x0401c780                alt_main
 .text          0x0401c848       0xbc ../Car2X_communication_bsp/\libucosii_bsp.a(alt_sbrk.o)
                0x0401c848                sbrk
 .text          0x0401c904      0x1a8 ../Car2X_communication_bsp/\libucosii_bsp.a(alt_tick.o)
                0x0401c904                alt_alarm_stop
                0x0401c99c                alt_tick
 .text          0x0401caac      0x118 ../Car2X_communication_bsp/\libucosii_bsp.a(alt_usleep.o)
                0x0401caac                usleep
 .text          0x0401cbc4      0x108 ../Car2X_communication_bsp/\libucosii_bsp.a(alt_env_lock.o)
                0x0401cbc4                __env_lock
                0x0401cc70                __env_unlock
 .text          0x0401cccc      0x1d8 ../Car2X_communication_bsp/\libucosii_bsp.a(alt_malloc_lock.o)
                0x0401cccc                __malloc_lock
                0x0401cdd4                __malloc_unlock
 .text          0x0401cea4     0x2128 ../Car2X_communication_bsp/\libucosii_bsp.a(os_core.o)
                0x0401cea4                OSEventNameGet
                0x0401cfd4                OSEventNameSet
                0x0401d118                OSEventPendMulti
                0x0401d7cc                OSInit
                0x0401d820                OSIntEnter
                0x0401d89c                OSIntExit
                0x0401d99c                OSSchedLock
                0x0401da28                OSSchedUnlock
                0x0401db0c                OSStart
                0x0401db7c                OSStatInit
                0x0401dc28                OSTimeTick
                0x0401de68                OSVersion
                0x0401de88                OS_Dummy
                0x0401dea4                OS_EventTaskRdy
                0x0401e038                OS_EventTaskWait
                0x0401e148                OS_EventTaskWaitMulti
                0x0401e29c                OS_EventTaskRemove
                0x0401e354                OS_EventTaskRemoveMulti
                0x0401e458                OS_EventWaitListInit
                0x0401e824                OS_MemClr
                0x0401e878                OS_MemCopy
                0x0401e8e4                OS_Sched
                0x0401ea28                OS_StrCopy
                0x0401eaa8                OS_StrLen
                0x0401eb00                OS_TaskIdle
                0x0401eb5c                OS_TaskStat
                0x0401ec24                OS_TaskStatStkChk
                0x0401ecec                OS_TCBInit
 .text          0x0401efcc      0x18c ../Car2X_communication_bsp/\libucosii_bsp.a(os_dbg.o)
                0x0401efcc                OSDebugInit
 .text          0x0401f158     0x193c ../Car2X_communication_bsp/\libucosii_bsp.a(os_flag.o)
                0x0401f158                OSFlagAccept
                0x0401f48c                OSFlagCreate
                0x0401f5c8                OSFlagDel
                0x0401f870                OSFlagNameGet
                0x0401f9b4                OSFlagNameSet
                0x0401fb08                OSFlagPend
                0x0402014c                OSFlagPendGetFlagsRdy
                0x040201b4                OSFlagPost
                0x0402055c                OSFlagQuery
                0x040207f4                OS_FlagInit
                0x040209e8                OS_FlagUnlink
 .text          0x04020a94      0x808 ../Car2X_communication_bsp/\libucosii_bsp.a(os_mem.o)
                0x04020a94                OSMemCreate
                0x04020cb0                OSMemGet
                0x04020db4                OSMemNameGet
                0x04020ec0                OSMemNameSet
                0x04020fe0                OSMemPut
                0x040210d0                OSMemQuery
                0x040211cc                OS_MemInit
 .text          0x0402129c     0x1334 ../Car2X_communication_bsp/\libucosii_bsp.a(os_q.o)
                0x0402129c                OSQAccept
                0x040213f0                OSQCreate
                0x04021604                OSQDel
                0x04021904                OSQFlush
                0x040219cc                OSQPend
                0x04021cec                OSQPendAbort
                0x04021e68                OSQPost
                0x04021fe8                OSQPostFront
                0x04022170                OSQPostOpt
                0x040223a4                OSQQuery
                0x04022524                OS_QInit
 .text          0x040225d0      0xbc8 ../Car2X_communication_bsp/\libucosii_bsp.a(os_sem.o)
                0x040225d0                OSSemAccept
                0x04022690                OSSemCreate
                0x040227a4                OSSemDel
                0x04022a44                OSSemPend
                0x04022cc0                OSSemPendAbort
                0x04022e3c                OSSemPost
                0x04022f64                OSSemQuery
                0x04023094                OSSemSet
 .text          0x04023198     0x1a40 ../Car2X_communication_bsp/\libucosii_bsp.a(os_task.o)
                0x04023198                OSTaskChangePrio
                0x0402370c                OSTaskCreate
                0x040238e0                OSTaskCreateExt
                0x04023ae0                OSTaskDel
                0x04023eec                OSTaskDelReq
                0x0402405c                OSTaskNameGet
                0x04024214                OSTaskNameSet
                0x040243d8                OSTaskResume
                0x040245f0                OSTaskStkChk
                0x040247ec                OSTaskSuspend
                0x04024a18                OSTaskQuery
                0x04024b5c                OS_TaskStkClr
 .text          0x04024bd8      0x59c ../Car2X_communication_bsp/\libucosii_bsp.a(os_time.o)
                0x04024bd8                OSTimeDly
                0x04024d24                OSTimeDlyHMSM
                0x04024e9c                OSTimeDlyResume
                0x040250ac                OSTimeGet
                0x04025110                OSTimeSet
 .text          0x04025174      0x3dc ../Car2X_communication_bsp/\libucosii_bsp.a(alt_sys_init.o)
                0x04025174                alt_irq_init
                0x040251a8                alt_sys_init
 .text          0x04025550      0x148 ../Car2X_communication_bsp/\libucosii_bsp.a(altera_avalon_jtag_uart_fd.o)
                0x04025550                altera_avalon_jtag_uart_read_fd
                0x040255a8                altera_avalon_jtag_uart_write_fd
                0x04025600                altera_avalon_jtag_uart_close_fd
                0x04025648                altera_avalon_jtag_uart_ioctl_fd
 .text          0x04025698      0x584 ../Car2X_communication_bsp/\libucosii_bsp.a(altera_avalon_jtag_uart_init.o)
                0x04025698                altera_avalon_jtag_uart_init
                0x04025ba8                altera_avalon_jtag_uart_close
 .text          0x04025c1c       0xf4 ../Car2X_communication_bsp/\libucosii_bsp.a(altera_avalon_jtag_uart_ioctl.o)
                0x04025c1c                altera_avalon_jtag_uart_ioctl
 .text          0x04025d10      0x2c0 ../Car2X_communication_bsp/\libucosii_bsp.a(altera_avalon_jtag_uart_read.o)
                0x04025d10                altera_avalon_jtag_uart_read
 .text          0x04025fd0      0x2dc ../Car2X_communication_bsp/\libucosii_bsp.a(altera_avalon_jtag_uart_write.o)
                0x04025fd0                altera_avalon_jtag_uart_write
 .text          0x040262ac      0x370 ../Car2X_communication_bsp/\libucosii_bsp.a(altera_avalon_mutex.o)
                0x04026328                altera_avalon_mutex_open
                0x040263e0                altera_avalon_mutex_close
                0x04026400                altera_avalon_mutex_lock
                0x04026460                altera_avalon_mutex_trylock
                0x040264d8                altera_avalon_mutex_unlock
                0x04026548                altera_avalon_mutex_is_mine
                0x040265c4                altera_avalon_mutex_first_lock
 .text          0x0402661c      0xde4 ../Car2X_communication_bsp/\libucosii_bsp.a(altera_avalon_sgdma.o)
                0x0402661c                alt_avalon_sgdma_do_async_transfer
                0x04026758                alt_avalon_sgdma_do_sync_transfer
                0x0402687c                alt_avalon_sgdma_construct_mem_to_mem_desc
                0x040268ec                alt_avalon_sgdma_construct_mem_to_mem_desc_burst
                0x0402696c                alt_avalon_sgdma_construct_stream_to_mem_desc
                0x040269c0                alt_avalon_sgdma_construct_stream_to_mem_desc_burst
                0x04026a30                alt_avalon_sgdma_construct_mem_to_stream_desc
                0x04026aa4                alt_avalon_sgdma_construct_mem_to_stream_desc_burst
                0x04026b28                alt_avalon_sgdma_register_callback
                0x04026b78                alt_avalon_sgdma_start
                0x04026bcc                alt_avalon_sgdma_stop
                0x04026c24                alt_avalon_sgdma_check_descriptor_status
                0x04026c94                alt_avalon_sgdma_open
                0x04026d4c                alt_avalon_sgdma_construct_descriptor
                0x04026dd4                alt_avalon_sgdma_enable_desc_poll
                0x04026e50                alt_avalon_sgdma_disable_desc_poll
                0x04026eac                alt_avalon_sgdma_construct_descriptor_burst
                0x04027354                alt_avalon_sgdma_init
 .text          0x04027400      0x100 ../Car2X_communication_bsp/\libucosii_bsp.a(altera_avalon_timer_sc.o)
                0x04027470                alt_avalon_timer_sc_init
 .text          0x04027500     0x5340 ../Car2X_communication_bsp/\libucosii_bsp.a(altera_avalon_tse.o)
                0x04027500                no_printf
                0x0402752c                tse_mac_initTransInfo2
                0x0402758c                tse_mac_sTxWrite
                0x0402767c                tse_mac_aRxRead
                0x04027720                tse_mac_SwReset
                0x040277b4                tse_mac_setMIImode
                0x0402780c                tse_mac_setGMIImode
                0x04027860                alt_tse_phy_add_profile
                0x04027a38                alt_tse_system_add_sys
                0x0402844c                alt_tse_sys_enable_mdio_sharing
                0x040285c4                alt_tse_mac_get_common_speed
                0x04028604                alt_tse_mac_set_common_speed
                0x0402864c                alt_tse_get_system_index
                0x040286c8                alt_tse_get_mac_group_index
                0x04028748                alt_tse_get_mac_info_index
                0x040287d4                alt_tse_get_mac_info
                0x040288b4                alt_tse_mac_set_speed
                0x040289a0                alt_tse_mac_set_duplex
                0x04028a38                getPHYSpeed
                0x04029840                alt_tse_phy_rd_mdio_addr
                0x04029888                alt_tse_phy_wr_mdio_addr
                0x040298dc                alt_tse_phy_wr_mdio_reg
                0x04029a04                alt_tse_phy_rd_mdio_reg
                0x04029ac8                alt_tse_phy_add_profile_default
                0x04029d40                alt_tse_phy_print_profile
                0x04029f30                alt_tse_mac_group_init
                0x0402a63c                alt_tse_mac_get_phy
                0x0402aa54                alt_tse_mac_associate_phy
                0x0402ac8c                alt_tse_phy_cfg_pcs
                0x0402adac                alt_tse_phy_init
                0x0402aec0                alt_tse_phy_restart_an
                0x0402b070                alt_tse_phy_check_link
                0x0402b1b4                alt_tse_phy_get_cap
                0x0402b6f4                alt_tse_phy_set_adv_1000
                0x0402b888                alt_tse_phy_set_adv_100
                0x0402ba98                alt_tse_phy_set_adv_10
                0x0402bc30                alt_tse_phy_get_common_speed
                0x0402bf4c                alt_tse_phy_set_common_speed
                0x0402c430                marvell_phy_cfg
                0x0402c4d8                marvell_cfg_gmii
                0x0402c5cc                marvell_cfg_sgmii
                0x0402c6c0                marvell_cfg_rgmii
                0x0402c7c0                DP83848C_link_status_read
 .text          0x0402c840     0x1784 ../Car2X_communication_bsp/\libucosii_bsp.a(ins_tse_mac.o)
                0x0402c840                triple_speed_ethernet_init
                0x0402c99c                prep_tse_mac
                0x0402cc00                tse_mac_init
                0x0402d6e8                tse_mac_raw_send
                0x0402d9e0                tse_sgdmaRx_isr
                0x0402da88                tse_sgdma_read_init
                0x0402dc30                tse_mac_rcv
                0x0402de80                tse_mac_stats
                0x0402dec0                tse_mac_close
 .text          0x0402dfc4       0x54 ../Car2X_communication_bsp/\libucosii_bsp.a(alt_iniche_close.o)
                0x0402dfc4                close
 .text          0x0402e018      0x124 ../Car2X_communication_bsp/\libucosii_bsp.a(alt_iniche_dev.o)
                0x0402e018                iniche_devices_init
 .text          0x0402e13c       0x78 ../Car2X_communication_bsp/\libucosii_bsp.a(alt_iniche_read.o)
                0x0402e13c                read
 .text          0x0402e1b4       0x70 ../Car2X_communication_bsp/\libucosii_bsp.a(alt_iniche_write.o)
                0x0402e1b4                write
 .text          0x0402e224      0xedc ../Car2X_communication_bsp/\libucosii_bsp.a(ipnet.o)
                0x0402e224                Netinit
                0x0402e870                fixup_subnet_mask
                0x0402e9d0                netclose
                0x0402eab8                pktdemux
                0x0402ee8c                c_older
                0x0402ef5c                ip2mac
 .text          0x0402f100      0x4b0 ../Car2X_communication_bsp/\libucosii_bsp.a(ipstart.o)
                0x0402f100                ip_startup
                0x0402f3e4                exit_hook
                0x0402f450                ip_exit
                0x0402f520                if_netnumber
 .text          0x0402f5b0     0x100c ../Car2X_communication_bsp/\libucosii_bsp.a(igmp_cmn.o)
                0x0402f5b0                igmp_init
                0x0402f660                igmp_input
                0x0402f758                igmp_fasttimo
                0x0402f8f0                igmp_send
                0x0402fb98                igmp_joingroup
                0x0402fe04                igmp_leavegroup
                0x0402fe80                igmp_validate
                0x040301dc                igmp_print_stats
 .text          0x040305bc      0xb50 ../Car2X_communication_bsp/\libucosii_bsp.a(bsdsock.o)
                0x040305bc                bsd_accept
                0x040306f4                bsd_getpeername
                0x04030820                bsd_getsockname
                0x0403094c                bsd_i_sockoptlen
                0x04030b04                bsd_getsockopt
                0x04030c24                bsd_ioctl
                0x04030d28                bsd_inet_ntoa
                0x04030d58                bsd_recvfrom
                0x04030eb8                bsd_select
                0x04031020                bsd_setsockopt
 .text          0x0403110c      0x118 ../Car2X_communication_bsp/\libucosii_bsp.a(cksum.o)
                0x0403110c                ccksum
                0x040311bc                cksum
 .text          0x04031224      0xa9c ../Car2X_communication_bsp/\libucosii_bsp.a(in_utils.o)
                0x04031224                do_trap
                0x04031250                nextarg
                0x040312cc                hexdump
                0x04031414                print_ipad
                0x04031488                print_uptime
                0x040315b4                panic
                0x040315f8                print_eth
                0x0403175c                uslash
                0x040317dc                ns_printf
                0x04031960                std_out
                0x040319a4                con_page
                0x04031a94                parse_args
 .text          0x04031cc0      0x1c4 ../Car2X_communication_bsp/\libucosii_bsp.a(netmain.o)
                0x04031cc0                netmain
                0x04031db4                tk_netmain
                0x04031e3c                tk_nettick
 .text          0x04031e84      0x5e8 ../Car2X_communication_bsp/\libucosii_bsp.a(tk_crnos.o)
                0x04031e84                TK_OSTimeDly
                0x04031eb0                TK_OSTaskResume
                0x04031f20                tcp_sleep
                0x040320c0                tcp_wakeup
                0x040321c4                TK_OSTaskQuery
                0x04032238                tk_yield
                0x04032264                tk_stats
 .text          0x0403246c      0x79c ../Car2X_communication_bsp/\libucosii_bsp.a(pktalloc.o)
                0x0403246c                pk_init
                0x040326fc                pk_alloc
                0x040327d8                pk_validate
                0x04032a90                pk_free
                0x04032b3c                pk_get_max_intrsafe_buf_len
                0x04032b5c                dump_buf_estats
 .text          0x04032c08      0x288 ../Car2X_communication_bsp/\libucosii_bsp.a(q.o)
                0x04032c08                getq
                0x04032cd0                putq
                0x04032d80                qdel
 .text          0x04032e90      0x194 ../Car2X_communication_bsp/\libucosii_bsp.a(asm_cksum.o)
                0x04032e90                asm_cksum
 .text          0x04033024      0x2a0 ../Car2X_communication_bsp/\libucosii_bsp.a(brdutils.o)
                0x04033024                dtrap
                0x04033054                kbhit
                0x04033100                getch
                0x04033160                clock_init
                0x0403319c                clock_c
                0x040331b8                cticks_hook
                0x04033224                irq_Mask
                0x04033280                irq_Unmask
 .text          0x040332c4      0x488 ../Car2X_communication_bsp/\libucosii_bsp.a(osportco.o)
                0x040332c4                LOCK_NET_RESOURCE
                0x04033384                UNLOCK_NET_RESOURCE
                0x0403340c                TK_NEWTASK
                0x04033620                wait_app_sem
                0x040336d4                post_app_sem
 .text          0x0403374c      0x568 ../Car2X_communication_bsp/\libucosii_bsp.a(targnios.o)
                0x0403374c                alt_iniche_init
                0x04033968                pre_task_setup
                0x040339dc                post_task_setup
                0x040339fc                prep_armintcp
                0x04033a34                calloc2
                0x04033a68                npalloc
                0x04033b5c                npfree
                0x04033c14                ncpalloc
                0x04033c68                ncpfree
 .text          0x04033cb4     0x197c ../Car2X_communication_bsp/\libucosii_bsp.a(nptcp.o)
                0x04033cb4                pffindtype
                0x04033d54                pffindproto
                0x04033e24                m_getnbuf
                0x04033fcc                m_free
                0x04034100                m_freem
                0x04034144                m_copy
                0x04034468                m_adj
                0x04034638                mbuf_len
                0x04034690                dtom
                0x04034738                remque
                0x040347a8                insque
                0x04034824                nptcp_init
                0x04034948                tcp_rcv
                0x04034b34                ip_output
                0x0403512c                in_broadcast
                0x0403516c                np_stripoptions
                0x04035254                so_icmpdu
                0x040355ac                tcp_tick
 .text          0x04035630      0xa2c ../Car2X_communication_bsp/\libucosii_bsp.a(rawsock.o)
                0x04035630                rawip_lookup
                0x040356a0                rawip_soinput
                0x04035874                rawip_usrreq
 .text          0x0403605c     0x17fc ../Car2X_communication_bsp/\libucosii_bsp.a(sockcall.o)
                0x0403605c                DOMAIN_CHECK
                0x040360a8                t_socket
                0x04036138                t_bind
                0x040362b4                t_listen
                0x04036398                t_accept
                0x04036630                t_connect
                0x040368d8                t_getpeername
                0x0403691c                t_getsockname
                0x04036b5c                t_setsockopt
                0x04036d38                t_getsockopt
                0x04036edc                t_recv
                0x04036fcc                t_recvfrom
                0x0403711c                t_sendto
                0x04037348                t_send
                0x04037570                t_shutdown
                0x04037654                t_socketclose
                0x040377bc                t_errno
 .text          0x04037858     0x2374 ../Car2X_communication_bsp/\libucosii_bsp.a(socket.o)
                0x04037858                socreate
                0x04037a24                sobind
                0x04037a80                solisten
                0x04037b70                sofree
                0x04037ca0                soclose
                0x04037f94                soabort
                0x04037fe4                soaccept
                0x04038080                soconnect
                0x04038154                sodisconnect
                0x040381f4                sosend
                0x040387fc                soreceive
                0x04038fe0                soshutdown
                0x04039088                sorflush
                0x04039188                sosetopt
                0x04039648                sogetopt
                0x04039b88                sohasoutofband
 .text          0x04039bcc     0x1318 ../Car2X_communication_bsp/\libucosii_bsp.a(socket2.o)
                0x04039bcc                soisconnecting
                0x04039c38                soisconnected
                0x04039d34                soisdisconnecting
                0x04039dc0                soisdisconnected
                0x04039e7c                sonewconn
                0x0403a098                soqinsque
                0x0403a144                soqremque
                0x0403a264                socantsendmore
                0x0403a2b4                socantrcvmore
                0x0403a304                sbselqueue
                0x0403a33c                sbwait
                0x0403a3a4                sbwakeup
                0x0403a440                soreserve
                0x0403a4c0                sbreserve
                0x0403a520                sbrelease
                0x0403a568                sbappend
                0x0403a610                sbappendrecord
                0x0403a6f0                sbappendaddr
                0x0403a8f8                sbcompress
                0x0403aae0                sbflush
                0x0403ab70                sbdrop
                0x0403ad40                sbdropend
                0x0403ae50                sbdroprecord
 .text          0x0403aee4      0x914 ../Car2X_communication_bsp/\libucosii_bsp.a(soselect.o)
                0x0403aee4                t_select
                0x0403b104                sock_selscan
                0x0403b25c                sock_select
                0x0403b470                in_pcbnotify
                0x0403b53c                tcp_notify
                0x0403b5a4                ifd_clr
                0x0403b694                ifd_set
                0x0403b708                ifd_isset
                0x0403b788                ifd_get
 .text          0x0403b7f8     0x2fe8 ../Car2X_communication_bsp/\libucosii_bsp.a(tcp_in.o)
                0x0403b7f8                tcp_reass
                0x0403bc00                tcp_input
                0x0403e154                tcp_dooptions
                0x0403e2e4                tcp_pulloutofband
                0x0403e410                tcp_xmit_timer
                0x0403e67c                ip4_tcpmss
                0x0403e6c4                tcp_mss
 .text          0x0403e7e0     0x1360 ../Car2X_communication_bsp/\libucosii_bsp.a(tcp_out.o)
                0x0403e7e0                tcp_output
                0x0403f95c                tcp_setpersist
 .text          0x0403fb40      0x9e8 ../Car2X_communication_bsp/\libucosii_bsp.a(tcp_subr.o)
                0x0403fb40                tcp_init
                0x0403fb98                tcp_template
                0x0403fcb0                tcp_respond
                0x04040138                tcp_newtcpcb
                0x04040250                tcp_drop
                0x040402fc                tcp_close
                0x040403e4                tcp_quench
                0x04040430                tcp_putseq
                0x040404b0                tcp_getseq
 .text          0x04040528      0x798 ../Car2X_communication_bsp/\libucosii_bsp.a(tcp_timr.o)
                0x04040528                tcp_slowtimo
                0x040407c8                tcp_canceltimers
                0x04040824                tcp_timers
 .text          0x04040cc0      0x9ec ../Car2X_communication_bsp/\libucosii_bsp.a(tcp_usr.o)
                0x04040cc0                tcp_usrreq
                0x040413c4                tcp_attach
                0x040414f8                tcp_disconnect
                0x040415cc                tcp_usrclosed
 .text          0x040416ac       0x4c ../Car2X_communication_bsp/\libucosii_bsp.a(tcpport.o)
                0x040416ac                tcpinit
 .text          0x040416f8      0xd20 ../Car2X_communication_bsp/\libucosii_bsp.a(udpsock.o)
                0x040416f8                udp_lookup
                0x04041768                udp_soinput
                0x04041920                udp_usrreq
                0x04041ba4                udp4_sockbind
                0x04041ee0                udp4_socksend
                0x040422bc                udp4_sockaddr
 .text          0x04042418      0x154 ../Car2X_communication_bsp/\libucosii_bsp.a(alt_alarm_start.o)
                0x04042418                alt_alarm_start
 .text          0x0404256c      0x14c ../Car2X_communication_bsp/\libucosii_bsp.a(alt_busy_sleep.o)
                0x0404256c                alt_busy_sleep
 .text          0x040426b8      0x15c ../Car2X_communication_bsp/\libucosii_bsp.a(alt_close.o)
                0x040426b8                alt_close
 .text          0x04042814       0x44 ../Car2X_communication_bsp/\libucosii_bsp.a(alt_dcache_flush_all.o)
                0x04042814                alt_dcache_flush_all
 .text          0x04042858       0x2c ../Car2X_communication_bsp/\libucosii_bsp.a(alt_dev.o)
 .text          0x04042884      0x114 ../Car2X_communication_bsp/\libucosii_bsp.a(alt_dev_llist_insert.o)
                0x04042884                alt_dev_llist_insert
 .text          0x04042998       0x64 ../Car2X_communication_bsp/\libucosii_bsp.a(alt_do_ctors.o)
                0x04042998                _do_ctors
 .text          0x040429fc       0x64 ../Car2X_communication_bsp/\libucosii_bsp.a(alt_do_dtors.o)
                0x040429fc                _do_dtors
 .text          0x04042a60        0x0 ../Car2X_communication_bsp/\libucosii_bsp.a(alt_errno.o)
 .text          0x04042a60       0x94 ../Car2X_communication_bsp/\libucosii_bsp.a(alt_find_dev.o)
                0x04042a60                alt_find_dev
 .text          0x04042af4       0x30 ../Car2X_communication_bsp/\libucosii_bsp.a(alt_icache_flush_all.o)
                0x04042af4                alt_icache_flush_all
 .text          0x04042b24      0x1d4 ../Car2X_communication_bsp/\libucosii_bsp.a(alt_iic.o)
                0x04042b24                alt_ic_isr_register
                0x04042b74                alt_ic_irq_enable
                0x04042c10                alt_ic_irq_disable
                0x04042cb0                alt_ic_irq_enabled
 .text          0x04042cf8       0xf8 ../Car2X_communication_bsp/\libucosii_bsp.a(alt_iic_isr_register.o)
                0x04042cf8                alt_iic_isr_register
 .text          0x04042df0      0x13c ../Car2X_communication_bsp/\libucosii_bsp.a(alt_io_redirect.o)
                0x04042eb4                alt_io_redirect
 .text          0x04042f2c        0x0 ../Car2X_communication_bsp/\libucosii_bsp.a(alt_irq_entry.o)
 .text          0x04042f2c        0x0 ../Car2X_communication_bsp/\libucosii_bsp.a(alt_irq_handler.o)
 .text          0x04042f2c        0x0 ../Car2X_communication_bsp/\libucosii_bsp.a(alt_irq_vars.o)
 .text          0x04042f2c      0x2c4 ../Car2X_communication_bsp/\libucosii_bsp.a(alt_open.o)
                0x04043008                open
 .text          0x040431f0      0x180 ../Car2X_communication_bsp/\libucosii_bsp.a(alt_read.o)
                0x040431f0                alt_read
 .text          0x04043370       0x60 ../Car2X_communication_bsp/\libucosii_bsp.a(alt_release_fd.o)
                0x04043370                alt_release_fd
 .text          0x040433d0       0x38 ../Car2X_communication_bsp/\libucosii_bsp.a(alt_remap_cached.o)
                0x040433d0                alt_remap_cached
 .text          0x04043408       0x40 ../Car2X_communication_bsp/\libucosii_bsp.a(alt_remap_uncached.o)
                0x04043408                alt_remap_uncached
 .text          0x04043448       0x64 ../Car2X_communication_bsp/\libucosii_bsp.a(alt_uncached_malloc.o)
                0x04043448                alt_uncached_malloc
 .text          0x040434ac      0x180 ../Car2X_communication_bsp/\libucosii_bsp.a(alt_write.o)
                0x040434ac                alt_write
 .text          0x0404362c       0x20 ../Car2X_communication_bsp/\libucosii_bsp.a(altera_nios2_qsys_irq.o)
                0x0404362c                altera_nios2_qsys_irq_init
 .text          0x0404364c       0xd0 ../Car2X_communication_bsp/\libucosii_bsp.a(os_cpu_a.o)
                0x0404364c                OSCtxSw
                0x0404364c                OSIntCtxSw
                0x040436d8                OSStartHighRdy
                0x040436f8                OSStartTsk
 .text          0x0404371c      0x424 ../Car2X_communication_bsp/\libucosii_bsp.a(os_cpu_c.o)
                0x0404371c                OSTaskStkInit
                0x04043a2c                OSTaskCreateHook
                0x04043a4c                OSTaskDelHook
                0x04043a6c                OSTaskSwHook
                0x04043a88                OSTaskStatHook
                0x04043aa4                OSTimeTickHook
                0x04043acc                OSInitHookBegin
                0x04043ae8                OSInitHookEnd
                0x04043b04                OSTaskIdleHook
                0x04043b20                OSTCBInitHook
 .text          0x04043b40      0x3d4 ../Car2X_communication_bsp/\libucosii_bsp.a(allports.o)
                0x04043b40                netmain_init
                0x04043c38                icmp_port_du
                0x04043cc0                station_state
                0x04043e10                sysuptime
                0x04043e4c                packet_check
                0x04043e98                mcastlist
                0x04043ebc                prep_modules
 .text          0x04043f14      0x47c ../Car2X_communication_bsp/\libucosii_bsp.a(timeouts.o)
                0x04043f14                inet_timer
                0x0404416c                in_timerset
                0x040442e8                in_timerkill
 .text          0x04044390       0xa4 ../Car2X_communication_bsp/\libucosii_bsp.a(tk_misc.o)
                0x04044390                create_apptasks
                0x040443b4                task_stats
 .text          0x04044434       0xb0 ../Car2X_communication_bsp/\libucosii_bsp.a(alt_iniche_fcntl.o)
                0x04044434                fcntl
 .text          0x040444e4     0x14a0 ../Car2X_communication_bsp/\libucosii_bsp.a(et_arp.o)
                0x040444e4                etainit
                0x04044538                et_send
                0x040446b4                arp_free_pending
                0x0404473c                arp_send_pending
                0x040447b0                send_arp
                0x04044c48                find_oldest_arp
                0x04044df0                make_arp_entry
                0x04044f04                arpReply
                0x04045198                arprcv
                0x040453f8                send_via_arp
                0x040455a0                cb_arpent_tmo
                0x040456b8                grat_arp
 .text          0x04045984      0x298 ../Car2X_communication_bsp/\libucosii_bsp.a(iface.o)
                0x04045984                if_getbynum
                0x04045a08                isbcast
                0x04045ae8                reg_type
                0x04045b84                if_killsocks
 .text          0x04045c1c     0x22a4 ../Car2X_communication_bsp/\libucosii_bsp.a(ip.o)
                0x04045c1c                ip_init
                0x04045d18                ip_bldhead
                0x04045ebc                ip_write_internal
                0x0404663c                ip_write
                0x04046884                ip_write2
                0x04046c34                ip_raw_write
                0x04046d0c                ip_fragment_lc
                0x04047194                ip_fragment
                0x040477b8                ip_mymach
                0x04047864                ip_dump
                0x04047b1c                iproute
                0x04047d88                ip_copypkt
 .text          0x04047ec0     0x1d9c ../Car2X_communication_bsp/\libucosii_bsp.a(ip_reasm.o)
                0x04047ec0                ip_reasm_match_frag_with_ire
                0x04047f90                ip_reasm_determine_type_of_frag
                0x0404807c                ip_reasm_check_mem_useage
                0x04048114                ip_reasm_incr_mem_useage
                0x040481bc                ip_reasm_decr_mem_useage
                0x0404825c                ip_reasm_process_first_fragment
                0x0404853c                ip_reassm
                0x040485dc                ip_reasm_compute_overlap
                0x04048b6c                ip_reasm_process_subsequent_fragments
                0x04049100                ip_reasm_find_ire
                0x04049164                ip_reasm_copy_queued_fragments_into_reassy_buffer
                0x040494c0                ip_reasm_process_timer_tick
                0x040495a4                ip_reasm_delete_ire
                0x0404976c                ip_reasm_mark_compact_rfq
                0x040498b4                ipr_stats
                0x04049c08                ip_reasm_send_icmp_timex
 .text          0x04049c5c      0xe3c ../Car2X_communication_bsp/\libucosii_bsp.a(ipdemux.o)
                0x04049c5c                ip_rcv
                0x0404a05c                ip_rcv_phase2
                0x0404a668                ip_demux
 .text          0x0404aa98      0x2f0 ../Car2X_communication_bsp/\libucosii_bsp.a(ipmc.o)
                0x0404aa98                in_addmulti
                0x0404ac00                in_delmulti
                0x0404ad18                lookup_mcast
 .text          0x0404ad88       0xe4 ../Car2X_communication_bsp/\libucosii_bsp.a(ipport.o)
                0x0404ad88                prep_ifaces
                0x0404ae1c                netexit
                0x0404ae44                evtmap_setup
 .text          0x0404ae6c      0x550 ../Car2X_communication_bsp/\libucosii_bsp.a(ipraw.o)
                0x0404ae6c                ip_raw_open
                0x0404af5c                ip_raw_close
                0x0404b01c                ip_raw_input
                0x0404b254                ip_raw_alloc
                0x0404b320                ip_raw_free
                0x0404b360                ip_raw_maxalloc
 .text          0x0404b3bc      0x6f0 ../Car2X_communication_bsp/\libucosii_bsp.a(iproute.o)
                0x0404b3bc                rt_lookup
                0x0404b540                add_route
                0x0404b968                del_route
 .text          0x0404baac      0xe3c ../Car2X_communication_bsp/\libucosii_bsp.a(udp.o)
                0x0404baac                udpdemux
                0x0404c304                udp_send
                0x0404c5bc                udpswap
                0x0404c6ec                udp_socket
                0x0404c7bc                udp_alloc
                0x0404c87c                udp_maxalloc
                0x0404c8a8                udp_free
 .text          0x0404c8e8      0x2e8 ../Car2X_communication_bsp/\libucosii_bsp.a(igmp.o)
                0x0404c8e8                igmpv1_input
 .text          0x0404cbd0      0x7c0 ../Car2X_communication_bsp/\libucosii_bsp.a(igmp2.o)
                0x0404cbd0                igmpv2_input
                0x0404cd30                igmpv2_process_report
                0x0404ce7c                igmpv2_process_query
                0x0404d0c8                igmpv2_chk_set_timer
                0x0404d220                igmpv2_chk4_rtr_alert_opt
 .text          0x0404d390      0x8fc ../Car2X_communication_bsp/\libucosii_bsp.a(ipopt.o)
                0x0404d390                IPADDR_TO_NETP
                0x0404d4d8                ip_setmoptions
                0x0404dac8                ip_getmoptions
                0x0404dc08                ip_freemoptions
 .text          0x0404dc8c      0x6ac ../Car2X_communication_bsp/\libucosii_bsp.a(u_mctest.o)
                0x0404dc8c                u_mctest_init
                0x0404dcbc                u_mctest_run
 .text          0x0404e338      0x40c ../Car2X_communication_bsp/\libucosii_bsp.a(memdev.o)
                0x0404e338                init_memdev
                0x0404e3b0                md_fopen
                0x0404e3d8                md_fclose
                0x0404e3f8                md_fread
                0x0404e578                md_fwrite
                0x0404e5f8                md_fseek
                0x0404e624                md_ftell
                0x0404e648                md_fgetc
                0x0404e720                md_unlink
 .text          0x0404e744      0x810 ../Car2X_communication_bsp/\libucosii_bsp.a(parseip.o)
                0x0404e744                parse_ipad
                0x0404ea60                inet_addr
                0x0404eac8                hextoa
                0x0404eb38                inet_pton
                0x0404ebe4                inet_ntop
                0x0404ec70                print46_addr
                0x0404ecd0                inet46_addr
                0x0404ed94                inet_setport
                0x0404ee08                convert_ip
 .text          0x0404ef54      0x1cc ../Car2X_communication_bsp/\libucosii_bsp.a(tcpcksum.o)
                0x0404ef54                tcp_cksum
 .text          0x0404f120      0x31c ../Car2X_communication_bsp/\libucosii_bsp.a(udp_open.o)
                0x0404f120                udp_open
                0x0404f358                udp_close
 .text          0x0404f43c      0x900 ../Car2X_communication_bsp/\libucosii_bsp.a(in_pcb.o)
                0x0404f43c                in_pcballoc
                0x0404f4d0                in_pcbdetach
                0x0404f524                in_pcbbind
                0x0404f778                in_pcbconnect
                0x0404f988                in_pcbdisconnect
                0x0404f9e8                in_setsockaddr
                0x0404fa64                in_setpeeraddr
                0x0404fae0                in_pcblookup
 .text          0x0404fd3c     0x1a74 ../Car2X_communication_bsp/\libucosii_bsp.a(vfsfiles.o)
                0x0404fd3c                set_vfopen_error
                0x0404fd64                get_vfopen_error
                0x0404fd84                vf_alloc_and_link_vop
                0x0404fe00                vf_alloc_buffer
                0x0404fed8                vf_free_buffer
                0x0404ff28                vfopen_locked
                0x04050290                vfopen
                0x040502e0                vfclose_locked
                0x04050488                vfclose
                0x040504c8                vfflush
                0x04050510                vfgets
                0x040505f4                vfeof
                0x0405064c                vunlink_flag_open_files
                0x040506a8                vunlink
                0x040508c8                vfread
                0x04050a74                vfwrite_locked
                0x04050e5c                vfwrite
                0x04050ebc                vfseek
                0x04051038                vftell
                0x0405116c                vgetc_locked
                0x0405128c                vgetc
                0x040512d4                vfslookup_locked
                0x0405140c                vfslookup
                0x04051454                strippath
                0x0405163c                isvfile_locked
                0x040516a0                isvfile
                0x040516e8                vferror
                0x04051754                vclearerr
 .text          0x040517b0       0x24 ../Car2X_communication_bsp/\libucosii_bsp.a(vfsport.o)
                0x040517b0                prep_vfs
 .text          0x040517d4       0x78 ../Car2X_communication_bsp/\libucosii_bsp.a(alt_dcache_flush.o)
                0x040517d4                alt_dcache_flush
 .text          0x0405184c        0x0 ../Car2X_communication_bsp/\libucosii_bsp.a(alt_exception_entry.o)
 .text          0x0405184c      0x1b4 ../Car2X_communication_bsp/\libucosii_bsp.a(alt_fcntl.o)
                0x0405184c                alt_fcntl
 .text          0x04051a00      0x120 ../Car2X_communication_bsp/\libucosii_bsp.a(alt_find_file.o)
                0x04051a00                alt_find_file
 .text          0x04051b20       0xf4 ../Car2X_communication_bsp/\libucosii_bsp.a(alt_get_fd.o)
                0x04051b20                alt_get_fd
 .text          0x04051c14       0x90 ../Car2X_communication_bsp/\libucosii_bsp.a(alt_icache_flush.o)
                0x04051c14                alt_icache_flush
 .text          0x04051ca4     0x130c ../Car2X_communication_bsp/\libucosii_bsp.a(icmp.o)
                0x04051ca4                icmprcv
                0x040528d8                icmp_destun
                0x04052c28                icmp_timex
                0x04052f5c                icmp_du
 .text          0x04052fb0       0x14 c:/altera/12.1/nios2eds/bin/gnu/h-i686-mingw32/bin/../lib/gcc/nios2-elf/4.1.2/../../../../nios2-elf/lib\libc.a(lib_a-atexit.o)
                0x04052fb0                atexit
 .text          0x04052fc4       0x18 c:/altera/12.1/nios2eds/bin/gnu/h-i686-mingw32/bin/../lib/gcc/nios2-elf/4.1.2/../../../../nios2-elf/lib\libc.a(lib_a-atoi.o)
                0x04052fc4                _atoi_r
                0x04052fd0                atoi
 .text          0x04052fdc       0x1c c:/altera/12.1/nios2eds/bin/gnu/h-i686-mingw32/bin/../lib/gcc/nios2-elf/4.1.2/../../../../nios2-elf/lib\libc.a(lib_a-calloc.o)
                0x04052fdc                calloc
 .text          0x04052ff8       0x38 c:/altera/12.1/nios2eds/bin/gnu/h-i686-mingw32/bin/../lib/gcc/nios2-elf/4.1.2/../../../../nios2-elf/lib\libc.a(lib_a-exit.o)
                0x04052ff8                exit
 .text          0x04053030       0x74 c:/altera/12.1/nios2eds/bin/gnu/h-i686-mingw32/bin/../lib/gcc/nios2-elf/4.1.2/../../../../nios2-elf/lib\libc.a(lib_a-memcmp.o)
                0x04053030                memcmp
 .text          0x040530a4       0xd4 c:/altera/12.1/nios2eds/bin/gnu/h-i686-mingw32/bin/../lib/gcc/nios2-elf/4.1.2/../../../../nios2-elf/lib\libc.a(lib_a-sprintf.o)
                0x040530a4                sprintf
                0x04053118                _sprintf_r
 .text          0x04053178       0xe0 c:/altera/12.1/nios2eds/bin/gnu/h-i686-mingw32/bin/../lib/gcc/nios2-elf/4.1.2/../../../../nios2-elf/lib\libc.a(lib_a-strchr.o)
                0x04053178                strchr
 .text          0x04053258       0x8c c:/altera/12.1/nios2eds/bin/gnu/h-i686-mingw32/bin/../lib/gcc/nios2-elf/4.1.2/../../../../nios2-elf/lib\libc.a(lib_a-strcpy.o)
                0x04053258                strcpy
 .text          0x040532e4       0xf0 c:/altera/12.1/nios2eds/bin/gnu/h-i686-mingw32/bin/../lib/gcc/nios2-elf/4.1.2/../../../../nios2-elf/lib\libc.a(lib_a-strncmp.o)
                0x040532e4                strncmp
 .text          0x040533d4      0x268 c:/altera/12.1/nios2eds/bin/gnu/h-i686-mingw32/bin/../lib/gcc/nios2-elf/4.1.2/../../../../nios2-elf/lib\libc.a(lib_a-strtol.o)
                0x040533d4                _strtol_r
                0x04053618                strtol
 .text          0x0405363c       0x34 c:/altera/12.1/nios2eds/bin/gnu/h-i686-mingw32/bin/../lib/gcc/nios2-elf/4.1.2/../../../../nios2-elf/lib\libc.a(lib_a-vprintf.o)
                0x0405363c                _vprintf_r
                0x04053650                vprintf
 .text          0x04053670       0x74 c:/altera/12.1/nios2eds/bin/gnu/h-i686-mingw32/bin/../lib/gcc/nios2-elf/4.1.2/../../../../nios2-elf/lib\libc.a(lib_a-vsprintf.o)
                0x04053670                _vsprintf_r
                0x040536c0                vsprintf
 .text          0x040536e4      0x134 c:/altera/12.1/nios2eds/bin/gnu/h-i686-mingw32/bin/../lib/gcc/nios2-elf/4.1.2/../../../../nios2-elf/lib\libc.a(lib_a-__atexit.o)
                0x040536e4                __register_exitproc
 .text          0x04053818      0x1b4 c:/altera/12.1/nios2eds/bin/gnu/h-i686-mingw32/bin/../lib/gcc/nios2-elf/4.1.2/../../../../nios2-elf/lib\libc.a(lib_a-__call_atexit.o)
                0x0405381c                __call_exitprocs
 *(.gnu.warning.*)
 *(.fini)
                0x040539cc                PROVIDE (__etext, ABSOLUTE (.))
                0x040539cc                PROVIDE (_etext, ABSOLUTE (.))
                0x040539cc                PROVIDE (etext, ABSOLUTE (.))
 *(.eh_frame_hdr)
                0x040539cc                . = ALIGN (0x4)
                0x040539cc                PROVIDE (__preinit_array_start, ABSOLUTE (.))
 *(.preinit_array)
                0x040539cc                PROVIDE (__preinit_array_end, ABSOLUTE (.))
                0x040539cc                PROVIDE (__init_array_start, ABSOLUTE (.))
 *(.init_array)
                0x040539cc                PROVIDE (__init_array_end, ABSOLUTE (.))
                0x040539cc                PROVIDE (__fini_array_start, ABSOLUTE (.))
 *(.fini_array)
                0x040539cc                PROVIDE (__fini_array_end, ABSOLUTE (.))
 *(.eh_frame)
 *(.gcc_except_table)
 .gcc_except_table
                0x040539cc       0x18 obj/default/COMM_CarProtocol/ADCInfoMessage.o
 .gcc_except_table
                0x040539e4       0x18 obj/default/COMM_CarProtocol/ADCValuesMessage.o
 .gcc_except_table
                0x040539fc       0x18 obj/default/COMM_CarProtocol/AccelerationValuesMessage.o
 .gcc_except_table
                0x04053a14       0x18 obj/default/COMM_CarProtocol/CarProtocol.o
 .gcc_except_table
                0x04053a2c       0x18 obj/default/COMM_CarProtocol/MotorMeasurementMessage.o
 .gcc_except_table
                0x04053a44       0x18 obj/default/COMM_CarProtocol/MotorVelocityMessage.o
 .gcc_except_table
                0x04053a5c       0x18 obj/default/COMM_CarProtocol/UltrasoundDistanceMessage.o
 .gcc_except_table
                0x04053a74       0x18 obj/default/COMM_CarProtocol/WelcomeMessage.o
 .gcc_except_table
                0x04053a8c        0x8 obj/default/sensors/ADCSensor.o
 .gcc_except_table
                0x04053a94        0x6 obj/default/sensors/AccelerationSensor.o
 .gcc_except_table
                0x04053a9a        0x6 obj/default/sensors/UltrasoundSensor.o
 .gcc_except_table
                0x04053aa0        0x6 obj/default/socketserver.o
 *fill*         0x04053aa6        0x2 3a880100
 .gcc_except_table
                0x04053aa8       0x20 c:/altera/12.1/nios2eds/bin/gnu/h-i686-mingw32/bin/../lib/gcc/nios2-elf/4.1.2/../../../../nios2-elf/lib\libstdc++.a(eh_personality.o)
 .gcc_except_table
                0x04053ac8       0x14 c:/altera/12.1/nios2eds/bin/gnu/h-i686-mingw32/bin/../lib/gcc/nios2-elf/4.1.2/../../../../nios2-elf/lib\libstdc++.a(new_op.o)
 .gcc_except_table
                0x04053adc       0x10 c:/altera/12.1/nios2eds/bin/gnu/h-i686-mingw32/bin/../lib/gcc/nios2-elf/4.1.2/../../../../nios2-elf/lib\libstdc++.a(eh_alloc.o)
 .gcc_except_table
                0x04053aec       0x10 c:/altera/12.1/nios2eds/bin/gnu/h-i686-mingw32/bin/../lib/gcc/nios2-elf/4.1.2/../../../../nios2-elf/lib\libstdc++.a(eh_terminate.o)
 .gcc_except_table
                0x04053afc       0x10 c:/altera/12.1/nios2eds/bin/gnu/h-i686-mingw32/bin/../lib/gcc/nios2-elf/4.1.2/../../../../nios2-elf/lib\libstdc++.a(eh_catch.o)
 *(.dynamic)
                0x04053b0c                PROVIDE (__CTOR_LIST__, ABSOLUTE (.))
 *(.ctors)
 *(SORT(.ctors.*))
 .ctors.65535   0x04053b0c        0x4 c:/altera/12.1/nios2eds/bin/gnu/h-i686-mingw32/bin/../lib/gcc/nios2-elf/4.1.2/../../../../nios2-elf/lib\libc.a(lib_a-__call_atexit.o)
                0x04053b10                PROVIDE (__CTOR_END__, ABSOLUTE (.))
                0x04053b10                PROVIDE (__DTOR_LIST__, ABSOLUTE (.))
 *(.dtors)
 *(SORT(.dtors.*))
                0x04053b10                PROVIDE (__DTOR_END__, ABSOLUTE (.))
 *(.jcr)
                0x04053b10                . = ALIGN (0x4)

.rodata         0x04053b10     0x62b0
                0x04053b10                PROVIDE (__ram_rodata_start, ABSOLUTE (.))
                0x04053b10                . = ALIGN (0x4)
 *(.rodata .rodata.* .gnu.linkonce.r.*)
 .rodata        0x04053b10      0xba4 obj/default/alt_error_handler.o
 .rodata        0x040546b4       0x3c obj/default/main.o
 .rodata        0x040546f0      0x1a4 obj/default/network_utilities.o
 .rodata        0x04054894       0x48 obj/default/tse_my_system.o
 .rodata._ZTV15CADCInfoMessage
                0x040548dc       0x1c obj/default/COMM_CarProtocol/ADCInfoMessage.o
                0x040548dc                vtable for CADCInfoMessage
 .rodata._ZTS15CADCInfoMessage
                0x040548f8       0x14 obj/default/COMM_CarProtocol/ADCInfoMessage.o
                0x040548f8                typeinfo name for CADCInfoMessage
 .rodata._ZTI15CADCInfoMessage
                0x0405490c        0xc obj/default/COMM_CarProtocol/ADCInfoMessage.o
                0x0405490c                typeinfo for CADCInfoMessage
 .rodata._ZTV17CADCValuesMessage
                0x04054918       0x1c obj/default/COMM_CarProtocol/ADCValuesMessage.o
                0x04054918                vtable for CADCValuesMessage
 .rodata._ZTS17CADCValuesMessage
                0x04054934       0x14 obj/default/COMM_CarProtocol/ADCValuesMessage.o
                0x04054934                typeinfo name for CADCValuesMessage
 .rodata._ZTI17CADCValuesMessage
                0x04054948        0xc obj/default/COMM_CarProtocol/ADCValuesMessage.o
                0x04054948                typeinfo for CADCValuesMessage
 .rodata._ZTV26CAccelerationValuesMessage
                0x04054954       0x1c obj/default/COMM_CarProtocol/AccelerationValuesMessage.o
                0x04054954                vtable for CAccelerationValuesMessage
 .rodata._ZTS26CAccelerationValuesMessage
                0x04054970       0x20 obj/default/COMM_CarProtocol/AccelerationValuesMessage.o
                0x04054970                typeinfo name for CAccelerationValuesMessage
 .rodata._ZTI26CAccelerationValuesMessage
                0x04054990        0xc obj/default/COMM_CarProtocol/AccelerationValuesMessage.o
                0x04054990                typeinfo for CAccelerationValuesMessage
 .rodata._ZTV11CCarMessage
                0x0405499c       0x1c obj/default/COMM_CarProtocol/CarMessage.o
                0x0405499c                vtable for CCarMessage
 .rodata._ZTS11CCarMessage
                0x040549b8       0x10 obj/default/COMM_CarProtocol/CarMessage.o
                0x040549b8                typeinfo name for CCarMessage
 .rodata._ZTV12CCarProtocol
                0x040549c8       0x10 obj/default/COMM_CarProtocol/CarProtocol.o
                0x040549c8                vtable for CCarProtocol
 .rodata._ZTS12CCarProtocol
                0x040549d8       0x10 obj/default/COMM_CarProtocol/CarProtocol.o
                0x040549d8                typeinfo name for CCarProtocol
 .rodata._ZTV24CMotorMeasurementMessage
                0x040549e8       0x1c obj/default/COMM_CarProtocol/MotorMeasurementMessage.o
                0x040549e8                vtable for CMotorMeasurementMessage
 .rodata._ZTS24CMotorMeasurementMessage
                0x04054a04       0x1c obj/default/COMM_CarProtocol/MotorMeasurementMessage.o
                0x04054a04                typeinfo name for CMotorMeasurementMessage
 .rodata._ZTI24CMotorMeasurementMessage
                0x04054a20        0xc obj/default/COMM_CarProtocol/MotorMeasurementMessage.o
                0x04054a20                typeinfo for CMotorMeasurementMessage
 .rodata._ZTV21CMotorVelocityMessage
                0x04054a2c       0x1c obj/default/COMM_CarProtocol/MotorVelocityMessage.o
                0x04054a2c                vtable for CMotorVelocityMessage
 .rodata._ZTS21CMotorVelocityMessage
                0x04054a48       0x18 obj/default/COMM_CarProtocol/MotorVelocityMessage.o
                0x04054a48                typeinfo name for CMotorVelocityMessage
 .rodata._ZTI21CMotorVelocityMessage
                0x04054a60        0xc obj/default/COMM_CarProtocol/MotorVelocityMessage.o
                0x04054a60                typeinfo for CMotorVelocityMessage
 .rodata._ZTV26CUltrasoundDistanceMessage
                0x04054a6c       0x1c obj/default/COMM_CarProtocol/UltrasoundDistanceMessage.o
                0x04054a6c                vtable for CUltrasoundDistanceMessage
 .rodata._ZTS26CUltrasoundDistanceMessage
                0x04054a88       0x20 obj/default/COMM_CarProtocol/UltrasoundDistanceMessage.o
                0x04054a88                typeinfo name for CUltrasoundDistanceMessage
 .rodata._ZTI26CUltrasoundDistanceMessage
                0x04054aa8        0xc obj/default/COMM_CarProtocol/UltrasoundDistanceMessage.o
                0x04054aa8                typeinfo for CUltrasoundDistanceMessage
 .rodata._ZTV15CWelcomeMessage
                0x04054ab4       0x1c obj/default/COMM_CarProtocol/WelcomeMessage.o
                0x04054ab4                vtable for CWelcomeMessage
 .rodata._ZTS15CWelcomeMessage
                0x04054ad0       0x14 obj/default/COMM_CarProtocol/WelcomeMessage.o
                0x04054ad0                typeinfo name for CWelcomeMessage
 .rodata._ZTI15CWelcomeMessage
                0x04054ae4        0xc obj/default/COMM_CarProtocol/WelcomeMessage.o
                0x04054ae4                typeinfo for CWelcomeMessage
 .rodata._ZTV15CControlMessage
                0x04054af0       0x1c obj/default/CarMessages/CControlMessage.o
                0x04054af0                vtable for CControlMessage
 .rodata._ZTS15CControlMessage
                0x04054b0c       0x14 obj/default/CarMessages/CControlMessage.o
                0x04054b0c                typeinfo name for CControlMessage
 .rodata._ZTI15CControlMessage
                0x04054b20        0xc obj/default/CarMessages/CControlMessage.o
                0x04054b20                typeinfo for CControlMessage
 .rodata._ZTV22CEmergencyBrakeMessage
                0x04054b2c       0x1c obj/default/CarMessages/CEmergencyBrakeMessage.o
                0x04054b2c                vtable for CEmergencyBrakeMessage
 .rodata._ZTS22CEmergencyBrakeMessage
                0x04054b48       0x1c obj/default/CarMessages/CEmergencyBrakeMessage.o
                0x04054b48                typeinfo name for CEmergencyBrakeMessage
 .rodata._ZTI22CEmergencyBrakeMessage
                0x04054b64        0xc obj/default/CarMessages/CEmergencyBrakeMessage.o
                0x04054b64                typeinfo for CEmergencyBrakeMessage
 .rodata._ZTV10CADCSensor
                0x04054b70       0x18 obj/default/sensors/ADCSensor.o
                0x04054b70                vtable for CADCSensor
 .rodata._ZTS10CADCSensor
                0x04054b88       0x10 obj/default/sensors/ADCSensor.o
                0x04054b88                typeinfo name for CADCSensor
 .rodata._ZTI10CADCSensor
                0x04054b98        0xc obj/default/sensors/ADCSensor.o
                0x04054b98                typeinfo for CADCSensor
 .rodata._ZTV19CAccelerationSensor
                0x04054ba4       0x18 obj/default/sensors/AccelerationSensor.o
                0x04054ba4                vtable for CAccelerationSensor
 .rodata._ZTS19CAccelerationSensor
                0x04054bbc       0x18 obj/default/sensors/AccelerationSensor.o
                0x04054bbc                typeinfo name for CAccelerationSensor
 .rodata._ZTI19CAccelerationSensor
                0x04054bd4        0xc obj/default/sensors/AccelerationSensor.o
                0x04054bd4                typeinfo for CAccelerationSensor
 .rodata._ZTV12CSensorState
                0x04054be0       0x18 obj/default/sensors/SensorState.o
                0x04054be0                vtable for CSensorState
 .rodata._ZTS12CSensorState
                0x04054bf8       0x10 obj/default/sensors/SensorState.o
                0x04054bf8                typeinfo name for CSensorState
 .rodata._ZTV17CUltrasoundSensor
                0x04054c08       0x18 obj/default/sensors/UltrasoundSensor.o
                0x04054c08                vtable for CUltrasoundSensor
 .rodata._ZTS17CUltrasoundSensor
                0x04054c20       0x14 obj/default/sensors/UltrasoundSensor.o
                0x04054c20                typeinfo name for CUltrasoundSensor
 .rodata._ZTI17CUltrasoundSensor
                0x04054c34        0xc obj/default/sensors/UltrasoundSensor.o
                0x04054c34                typeinfo for CUltrasoundSensor
 .rodata        0x04054c40      0x1b0 obj/default/socketserver.o
 .rodata._ZTVSt13bad_exception
                0x04054df0       0x14 c:/altera/12.1/nios2eds/bin/gnu/h-i686-mingw32/bin/../lib/gcc/nios2-elf/4.1.2/../../../../nios2-elf/lib\libstdc++.a(eh_exception.o)
                0x04054df0                vtable for std::bad_exception
 .rodata._ZTVSt9exception
                0x04054e04       0x14 c:/altera/12.1/nios2eds/bin/gnu/h-i686-mingw32/bin/../lib/gcc/nios2-elf/4.1.2/../../../../nios2-elf/lib\libstdc++.a(eh_exception.o)
                0x04054e04                vtable for std::exception
 .rodata._ZTSSt13bad_exception
                0x04054e18       0x14 c:/altera/12.1/nios2eds/bin/gnu/h-i686-mingw32/bin/../lib/gcc/nios2-elf/4.1.2/../../../../nios2-elf/lib\libstdc++.a(eh_exception.o)
                0x04054e18                typeinfo name for std::bad_exception
 .rodata._ZTISt13bad_exception
                0x04054e2c        0xc c:/altera/12.1/nios2eds/bin/gnu/h-i686-mingw32/bin/../lib/gcc/nios2-elf/4.1.2/../../../../nios2-elf/lib\libstdc++.a(eh_exception.o)
                0x04054e2c                typeinfo for std::bad_exception
 .rodata._ZTSSt9exception
                0x04054e38       0x10 c:/altera/12.1/nios2eds/bin/gnu/h-i686-mingw32/bin/../lib/gcc/nios2-elf/4.1.2/../../../../nios2-elf/lib\libstdc++.a(eh_exception.o)
                0x04054e38                typeinfo name for std::exception
 .rodata._ZTVN10__cxxabiv117__class_type_infoE
                0x04054e48       0x2c c:/altera/12.1/nios2eds/bin/gnu/h-i686-mingw32/bin/../lib/gcc/nios2-elf/4.1.2/../../../../nios2-elf/lib\libstdc++.a(class_type_info.o)
                0x04054e48                vtable for __cxxabiv1::__class_type_info
 .rodata._ZTSN10__cxxabiv117__class_type_infoE
                0x04054e74       0x24 c:/altera/12.1/nios2eds/bin/gnu/h-i686-mingw32/bin/../lib/gcc/nios2-elf/4.1.2/../../../../nios2-elf/lib\libstdc++.a(class_type_info.o)
                0x04054e74                typeinfo name for __cxxabiv1::__class_type_info
 .rodata._ZTIN10__cxxabiv117__class_type_infoE
                0x04054e98        0xc c:/altera/12.1/nios2eds/bin/gnu/h-i686-mingw32/bin/../lib/gcc/nios2-elf/4.1.2/../../../../nios2-elf/lib\libstdc++.a(class_type_info.o)
                0x04054e98                typeinfo for __cxxabiv1::__class_type_info
 .rodata._ZTVN10__cxxabiv120__si_class_type_infoE
                0x04054ea4       0x2c c:/altera/12.1/nios2eds/bin/gnu/h-i686-mingw32/bin/../lib/gcc/nios2-elf/4.1.2/../../../../nios2-elf/lib\libstdc++.a(si_class_type_info.o)
                0x04054ea4                vtable for __cxxabiv1::__si_class_type_info
 .rodata._ZTSN10__cxxabiv120__si_class_type_infoE
                0x04054ed0       0x28 c:/altera/12.1/nios2eds/bin/gnu/h-i686-mingw32/bin/../lib/gcc/nios2-elf/4.1.2/../../../../nios2-elf/lib\libstdc++.a(si_class_type_info.o)
                0x04054ed0                typeinfo name for __cxxabiv1::__si_class_type_info
 .rodata._ZTIN10__cxxabiv120__si_class_type_infoE
                0x04054ef8        0xc c:/altera/12.1/nios2eds/bin/gnu/h-i686-mingw32/bin/../lib/gcc/nios2-elf/4.1.2/../../../../nios2-elf/lib\libstdc++.a(si_class_type_info.o)
                0x04054ef8                typeinfo for __cxxabiv1::__si_class_type_info
 .rodata._ZTVSt9type_info
                0x04054f04       0x20 c:/altera/12.1/nios2eds/bin/gnu/h-i686-mingw32/bin/../lib/gcc/nios2-elf/4.1.2/../../../../nios2-elf/lib\libstdc++.a(tinfo.o)
                0x04054f04                vtable for std::type_info
 .rodata._ZTSSt9type_info
                0x04054f24       0x10 c:/altera/12.1/nios2eds/bin/gnu/h-i686-mingw32/bin/../lib/gcc/nios2-elf/4.1.2/../../../../nios2-elf/lib\libstdc++.a(tinfo.o)
                0x04054f24                typeinfo name for std::type_info
 .rodata._ZTVSt9bad_alloc
                0x04054f34       0x14 c:/altera/12.1/nios2eds/bin/gnu/h-i686-mingw32/bin/../lib/gcc/nios2-elf/4.1.2/../../../../nios2-elf/lib\libstdc++.a(new_handler.o)
                0x04054f34                vtable for std::bad_alloc
 .rodata._ZTSSt9bad_alloc
                0x04054f48       0x10 c:/altera/12.1/nios2eds/bin/gnu/h-i686-mingw32/bin/../lib/gcc/nios2-elf/4.1.2/../../../../nios2-elf/lib\libstdc++.a(new_handler.o)
                0x04054f48                typeinfo name for std::bad_alloc
 .rodata._ZTISt9bad_alloc
                0x04054f58        0xc c:/altera/12.1/nios2eds/bin/gnu/h-i686-mingw32/bin/../lib/gcc/nios2-elf/4.1.2/../../../../nios2-elf/lib\libstdc++.a(new_handler.o)
                0x04054f58                typeinfo for std::bad_alloc
 .rodata        0x04054f64      0x281 c:/altera/12.1/nios2eds/bin/gnu/h-i686-mingw32/bin/../lib/gcc/nios2-elf/4.1.2/../../../../nios2-elf/lib\libc.a(lib_a-ctype_.o)
                0x04054f64                _ctype_
 *fill*         0x040551e5        0x3 00
 .rodata.str1.4
                0x040551e8        0x2 c:/altera/12.1/nios2eds/bin/gnu/h-i686-mingw32/bin/../lib/gcc/nios2-elf/4.1.2/../../../../nios2-elf/lib\libc.a(lib_a-impure.o)
                                  0x4 (size before relaxing)
 *fill*         0x040551ea        0x2 00
 .rodata.str1.4
                0x040551ec        0x3 c:/altera/12.1/nios2eds/bin/gnu/h-i686-mingw32/bin/../lib/gcc/nios2-elf/4.1.2/../../../../nios2-elf/lib\libc.a(lib_a-perror.o)
                                  0x4 (size before relaxing)
 *fill*         0x040551ef        0x1 00
 .rodata.str1.4
                0x040551f0        0x2 c:/altera/12.1/nios2eds/bin/gnu/h-i686-mingw32/bin/../lib/gcc/nios2-elf/4.1.2/../../../../nios2-elf/lib\libc.a(lib_a-puts.o)
                                  0x4 (size before relaxing)
 *fill*         0x040551f2        0x2 00
 .rodata.str1.4
                0x040551f4      0x7a2 c:/altera/12.1/nios2eds/bin/gnu/h-i686-mingw32/bin/../lib/gcc/nios2-elf/4.1.2/../../../../nios2-elf/lib\libc.a(lib_a-strerror.o)
                                0x7a8 (size before relaxing)
 *fill*         0x04055996        0x2 00
 .rodata.str1.4
                0x04055998       0x5e c:/altera/12.1/nios2eds/bin/gnu/h-i686-mingw32/bin/../lib/gcc/nios2-elf/4.1.2/../../../../nios2-elf/lib\libc.a(lib_a-vfprintf.o)
                                 0x60 (size before relaxing)
 .rodata        0x040559f6       0x20 c:/altera/12.1/nios2eds/bin/gnu/h-i686-mingw32/bin/../lib/gcc/nios2-elf/4.1.2/../../../../nios2-elf/lib\libc.a(lib_a-vfprintf.o)
 *fill*         0x04055a16        0x2 00
 .rodata.str1.4
                0x04055a18       0x10 c:/altera/12.1/nios2eds/bin/gnu/h-i686-mingw32/bin/../lib/gcc/nios2-elf/4.1.2/../../../../nios2-elf/lib\libc.a(lib_a-dtoa.o)
                                 0x14 (size before relaxing)
 .rodata.str1.4
                0x04055a28       0x10 c:/altera/12.1/nios2eds/bin/gnu/h-i686-mingw32/bin/../lib/gcc/nios2-elf/4.1.2/../../../../nios2-elf/lib\libc.a(lib_a-locale.o)
                                 0x18 (size before relaxing)
 .rodata        0x04055a38       0x30 c:/altera/12.1/nios2eds/bin/gnu/h-i686-mingw32/bin/../lib/gcc/nios2-elf/4.1.2/../../../../nios2-elf/lib\libc.a(lib_a-locale.o)
 .rodata        0x04055a68      0x124 c:/altera/12.1/nios2eds/bin/gnu/h-i686-mingw32/bin/../lib/gcc/nios2-elf/4.1.2/../../../../nios2-elf/lib\libc.a(lib_a-mprec.o)
                0x04055a68                __mprec_tens
                0x04055b30                __mprec_bigtens
                0x04055b58                __mprec_tinytens
 .rodata        0x04055b8c       0x14 c:/altera/12.1/nios2eds/bin/gnu/h-i686-mingw32/bin/../lib/gcc/nios2-elf/4.1.2\libgcc.a(_thenan_df.o)
                0x04055b8c                __thenan_df
 .rodata        0x04055ba0      0x100 c:/altera/12.1/nios2eds/bin/gnu/h-i686-mingw32/bin/../lib/gcc/nios2-elf/4.1.2\libgcc.a(_clz.o)
                0x04055ba0                __clz_tab
 .rodata        0x04055ca0       0x10 ../Car2X_communication_bsp/\libucosii_bsp.a(alt_main.o)
 .rodata        0x04055cb0      0x120 ../Car2X_communication_bsp/\libucosii_bsp.a(os_core.o)
                0x04055cb0                OSUnMapTbl
 .rodata        0x04055dd0       0x94 ../Car2X_communication_bsp/\libucosii_bsp.a(alt_sys_init.o)
 .rodata        0x04055e64     0x1cc0 ../Car2X_communication_bsp/\libucosii_bsp.a(altera_avalon_tse.o)
 .rodata        0x04057b24      0x374 ../Car2X_communication_bsp/\libucosii_bsp.a(ins_tse_mac.o)
 .rodata        0x04057e98       0xd8 ../Car2X_communication_bsp/\libucosii_bsp.a(ipnet.o)
 .rodata        0x04057f70       0xec ../Car2X_communication_bsp/\libucosii_bsp.a(ipstart.o)
 .rodata        0x0405805c      0x54c ../Car2X_communication_bsp/\libucosii_bsp.a(igmp_cmn.o)
 .rodata        0x040585a8       0xb8 ../Car2X_communication_bsp/\libucosii_bsp.a(in_utils.o)
 .rodata        0x04058660       0x34 ../Car2X_communication_bsp/\libucosii_bsp.a(netmain.o)
 .rodata        0x04058694      0x1a8 ../Car2X_communication_bsp/\libucosii_bsp.a(tk_crnos.o)
 .rodata        0x0405883c      0x118 ../Car2X_communication_bsp/\libucosii_bsp.a(pktalloc.o)
 .rodata        0x04058954       0x2c ../Car2X_communication_bsp/\libucosii_bsp.a(brdutils.o)
 .rodata        0x04058980      0x26c ../Car2X_communication_bsp/\libucosii_bsp.a(osportco.o)
 .rodata        0x04058bec       0xa0 ../Car2X_communication_bsp/\libucosii_bsp.a(targnios.o)
 .rodata        0x04058c8c       0x90 ../Car2X_communication_bsp/\libucosii_bsp.a(nptcp.o)
 .rodata        0x04058d1c        0x8 ../Car2X_communication_bsp/\libucosii_bsp.a(sockcall.o)
 .rodata        0x04058d24       0x50 ../Car2X_communication_bsp/\libucosii_bsp.a(socket.o)
 .rodata        0x04058d74       0x40 ../Car2X_communication_bsp/\libucosii_bsp.a(socket2.o)
 .rodata        0x04058db4       0x20 ../Car2X_communication_bsp/\libucosii_bsp.a(tcp_in.o)
 .rodata        0x04058dd4       0x40 ../Car2X_communication_bsp/\libucosii_bsp.a(tcp_out.o)
 .rodata        0x04058e14       0x24 ../Car2X_communication_bsp/\libucosii_bsp.a(tcp_subr.o)
 .rodata        0x04058e38       0x2c ../Car2X_communication_bsp/\libucosii_bsp.a(tcp_usr.o)
 .rodata        0x04058e64        0xc ../Car2X_communication_bsp/\libucosii_bsp.a(alt_dev.o)
 .rodata        0x04058e70        0x4 ../Car2X_communication_bsp/\libucosii_bsp.a(os_cpu_c.o)
 .rodata        0x04058e74      0x1d4 ../Car2X_communication_bsp/\libucosii_bsp.a(allports.o)
 .rodata        0x04059048       0x34 ../Car2X_communication_bsp/\libucosii_bsp.a(tk_misc.o)
 .rodata        0x0405907c       0x44 ../Car2X_communication_bsp/\libucosii_bsp.a(et_arp.o)
 .rodata        0x040590c0      0x1dc ../Car2X_communication_bsp/\libucosii_bsp.a(ip.o)
 .rodata        0x0405929c      0x158 ../Car2X_communication_bsp/\libucosii_bsp.a(ip_reasm.o)
 .rodata        0x040593f4      0x120 ../Car2X_communication_bsp/\libucosii_bsp.a(ipdemux.o)
 .rodata        0x04059514       0x34 ../Car2X_communication_bsp/\libucosii_bsp.a(ipport.o)
 .rodata        0x04059548       0x24 ../Car2X_communication_bsp/\libucosii_bsp.a(ipraw.o)
 .rodata        0x0405956c       0x38 ../Car2X_communication_bsp/\libucosii_bsp.a(iproute.o)
 .rodata        0x040595a4       0xe8 ../Car2X_communication_bsp/\libucosii_bsp.a(udp.o)
 .rodata        0x0405968c      0x2d0 ../Car2X_communication_bsp/\libucosii_bsp.a(u_mctest.o)
 .rodata        0x0405995c       0x94 ../Car2X_communication_bsp/\libucosii_bsp.a(parseip.o)
 .rodata        0x040599f0       0x84 ../Car2X_communication_bsp/\libucosii_bsp.a(udp_open.o)
 .rodata        0x04059a74       0x34 ../Car2X_communication_bsp/\libucosii_bsp.a(vfsfiles.o)
 .rodata        0x04059aa8      0x318 ../Car2X_communication_bsp/\libucosii_bsp.a(icmp.o)
 *(.rodata1)
                0x04059dc0                . = ALIGN (0x4)
                0x04059dc0                PROVIDE (__ram_rodata_end, ABSOLUTE (.))
                0x04053b10                PROVIDE (__flash_rodata_start, LOADADDR (.rodata))

.rwdata         0x04059dc0     0x1f70 load address 0x0405bd30
                0x04059dc0                PROVIDE (__ram_rwdata_start, ABSOLUTE (.))
                0x04059dc0                . = ALIGN (0x4)
 *(.got.plt)
 *(.got)
 *(.data1)
 *(.data .data.* .gnu.linkonce.d.*)
 .data          0x04059dc0        0x0 ../Car2X_communication_bsp//obj/HAL/src/crt0.o
 .data          0x04059dc0        0x0 obj/default/alt_error_handler.o
 .data          0x04059dc0       0x18 obj/default/main.o
                0x04059dc0                ssstask
 .data          0x04059dd8        0x0 obj/default/network_utilities.o
 .data          0x04059dd8      0x120 obj/default/tse_my_system.o
                0x04059dd8                tse_mac_device
 .data          0x04059ef8        0x0 obj/default/COMM_CarProtocol/ADCInfoMessage.o
 .data          0x04059ef8        0x0 obj/default/COMM_CarProtocol/ADCValuesMessage.o
 .data          0x04059ef8        0x0 obj/default/COMM_CarProtocol/AccelerationValuesMessage.o
 .data          0x04059ef8        0x0 obj/default/COMM_CarProtocol/CarMessage.o
 .data          0x04059ef8        0x0 obj/default/COMM_CarProtocol/CarProtocol.o
 .data          0x04059ef8        0x0 obj/default/COMM_CarProtocol/MotorMeasurementMessage.o
 .data          0x04059ef8        0x0 obj/default/COMM_CarProtocol/MotorVelocityMessage.o
 .data          0x04059ef8        0x0 obj/default/COMM_CarProtocol/UltrasoundDistanceMessage.o
 .data          0x04059ef8        0x0 obj/default/COMM_CarProtocol/WelcomeMessage.o
 .data          0x04059ef8        0x0 obj/default/CarMessages/CControlMessage.o
 .data          0x04059ef8        0x0 obj/default/CarMessages/CEmergencyBrakeMessage.o
 .data          0x04059ef8        0x0 obj/default/etc/utility.o
 .data          0x04059ef8        0x0 obj/default/external_drivers/accelerometer_interface.o
 .data          0x04059ef8        0x0 obj/default/external_drivers/adc_interface.o
 .data          0x04059ef8        0x0 obj/default/external_drivers/ultrasound_interface.o
 .data          0x04059ef8        0x0 obj/default/sensors/ADCSensor.o
 .data          0x04059ef8        0x0 obj/default/sensors/AccelerationSensor.o
 .data          0x04059ef8        0x0 obj/default/sensors/SensorState.o
 .data          0x04059ef8        0x0 obj/default/sensors/UltrasoundSensor.o
 .data          0x04059ef8        0x0 obj/default/socketserver.o
 .data          0x04059ef8        0x0 obj/default/terasic_lib/I2C.o
 .data          0x04059ef8        0x0 obj/default/terasic_lib/accelerometer_adxl345_spi.o
 .data          0x04059ef8        0x0 obj/default/terasic_lib/adc_spi_read.o
 .data          0x04059ef8        0x0 obj/default/terasic_lib/terasic_spi.o
 .data          0x04059ef8        0x0 c:/altera/12.1/nios2eds/bin/gnu/h-i686-mingw32/bin/../lib/gcc/nios2-elf/4.1.2/../../../../nios2-elf/lib\libstdc++.a(eh_personality.o)
 .data          0x04059ef8        0x0 c:/altera/12.1/nios2eds/bin/gnu/h-i686-mingw32/bin/../lib/gcc/nios2-elf/4.1.2/../../../../nios2-elf/lib\libstdc++.a(eh_exception.o)
 .data          0x04059ef8        0x0 c:/altera/12.1/nios2eds/bin/gnu/h-i686-mingw32/bin/../lib/gcc/nios2-elf/4.1.2/../../../../nios2-elf/lib\libstdc++.a(del_op.o)
 .data          0x04059ef8        0x0 c:/altera/12.1/nios2eds/bin/gnu/h-i686-mingw32/bin/../lib/gcc/nios2-elf/4.1.2/../../../../nios2-elf/lib\libstdc++.a(eh_call.o)
 .data          0x04059ef8        0x0 c:/altera/12.1/nios2eds/bin/gnu/h-i686-mingw32/bin/../lib/gcc/nios2-elf/4.1.2/../../../../nios2-elf/lib\libstdc++.a(class_type_info.o)
 .data          0x04059ef8        0x0 c:/altera/12.1/nios2eds/bin/gnu/h-i686-mingw32/bin/../lib/gcc/nios2-elf/4.1.2/../../../../nios2-elf/lib\libstdc++.a(new_op.o)
 .data          0x04059ef8        0x0 c:/altera/12.1/nios2eds/bin/gnu/h-i686-mingw32/bin/../lib/gcc/nios2-elf/4.1.2/../../../../nios2-elf/lib\libstdc++.a(si_class_type_info.o)
 .data          0x04059ef8        0x0 c:/altera/12.1/nios2eds/bin/gnu/h-i686-mingw32/bin/../lib/gcc/nios2-elf/4.1.2/../../../../nios2-elf/lib\libstdc++.a(eh_alloc.o)
 .data          0x04059ef8        0x0 c:/altera/12.1/nios2eds/bin/gnu/h-i686-mingw32/bin/../lib/gcc/nios2-elf/4.1.2/../../../../nios2-elf/lib\libstdc++.a(tinfo.o)
 .data          0x04059ef8        0x0 c:/altera/12.1/nios2eds/bin/gnu/h-i686-mingw32/bin/../lib/gcc/nios2-elf/4.1.2/../../../../nios2-elf/lib\libstdc++.a(eh_throw.o)
 .data          0x04059ef8        0x0 c:/altera/12.1/nios2eds/bin/gnu/h-i686-mingw32/bin/../lib/gcc/nios2-elf/4.1.2/../../../../nios2-elf/lib\libstdc++.a(eh_terminate.o)
 .data          0x04059ef8        0x0 c:/altera/12.1/nios2eds/bin/gnu/h-i686-mingw32/bin/../lib/gcc/nios2-elf/4.1.2/../../../../nios2-elf/lib\libstdc++.a(eh_globals.o)
 .data          0x04059ef8        0x0 c:/altera/12.1/nios2eds/bin/gnu/h-i686-mingw32/bin/../lib/gcc/nios2-elf/4.1.2/../../../../nios2-elf/lib\libstdc++.a(eh_unex_handler.o)
 .data          0x04059ef8        0x0 c:/altera/12.1/nios2eds/bin/gnu/h-i686-mingw32/bin/../lib/gcc/nios2-elf/4.1.2/../../../../nios2-elf/lib\libstdc++.a(new_handler.o)
 .data          0x04059ef8        0x0 c:/altera/12.1/nios2eds/bin/gnu/h-i686-mingw32/bin/../lib/gcc/nios2-elf/4.1.2/../../../../nios2-elf/lib\libstdc++.a(eh_catch.o)
 .data          0x04059ef8        0x0 c:/altera/12.1/nios2eds/bin/gnu/h-i686-mingw32/bin/../lib/gcc/nios2-elf/4.1.2/../../../../nios2-elf/lib\libstdc++.a(eh_term_handler.o)
 .data          0x04059ef8        0x0 c:/altera/12.1/nios2eds/bin/gnu/h-i686-mingw32/bin/../lib/gcc/nios2-elf/4.1.2\libgcc.a(lib2-divmod.o)
 .data          0x04059ef8        0x0 c:/altera/12.1/nios2eds/bin/gnu/h-i686-mingw32/bin/../lib/gcc/nios2-elf/4.1.2\libgcc.a(unwind-sjlj.o)
 .data          0x04059ef8        0x0 c:/altera/12.1/nios2eds/bin/gnu/h-i686-mingw32/bin/../lib/gcc/nios2-elf/4.1.2/../../../../nios2-elf/lib\libc.a(lib_a-abort.o)
 .data          0x04059ef8        0x0 c:/altera/12.1/nios2eds/bin/gnu/h-i686-mingw32/bin/../lib/gcc/nios2-elf/4.1.2/../../../../nios2-elf/lib\libc.a(lib_a-ctype_.o)
 .data          0x04059ef8        0x0 c:/altera/12.1/nios2eds/bin/gnu/h-i686-mingw32/bin/../lib/gcc/nios2-elf/4.1.2/../../../../nios2-elf/lib\libc.a(lib_a-fprintf.o)
 .data          0x04059ef8        0x0 c:/altera/12.1/nios2eds/bin/gnu/h-i686-mingw32/bin/../lib/gcc/nios2-elf/4.1.2/../../../../nios2-elf/lib\libc.a(lib_a-fwrite.o)
 .data          0x04059ef8        0x0 c:/altera/12.1/nios2eds/bin/gnu/h-i686-mingw32/bin/../lib/gcc/nios2-elf/4.1.2/../../../../nios2-elf/lib\libc.a(lib_a-getc.o)
 .data          0x04059ef8      0x400 c:/altera/12.1/nios2eds/bin/gnu/h-i686-mingw32/bin/../lib/gcc/nios2-elf/4.1.2/../../../../nios2-elf/lib\libc.a(lib_a-impure.o)
 .data          0x0405a2f8        0x0 c:/altera/12.1/nios2eds/bin/gnu/h-i686-mingw32/bin/../lib/gcc/nios2-elf/4.1.2/../../../../nios2-elf/lib\libc.a(lib_a-malloc.o)
 .data          0x0405a2f8      0x408 c:/altera/12.1/nios2eds/bin/gnu/h-i686-mingw32/bin/../lib/gcc/nios2-elf/4.1.2/../../../../nios2-elf/lib\libc.a(lib_a-mallocr.o)
                0x0405a2f8                __malloc_av_
 .data          0x0405a700        0x0 c:/altera/12.1/nios2eds/bin/gnu/h-i686-mingw32/bin/../lib/gcc/nios2-elf/4.1.2/../../../../nios2-elf/lib\libc.a(lib_a-memmove.o)
 .data          0x0405a700        0x0 c:/altera/12.1/nios2eds/bin/gnu/h-i686-mingw32/bin/../lib/gcc/nios2-elf/4.1.2/../../../../nios2-elf/lib\libc.a(lib_a-memset.o)
 .data          0x0405a700        0x0 c:/altera/12.1/nios2eds/bin/gnu/h-i686-mingw32/bin/../lib/gcc/nios2-elf/4.1.2/../../../../nios2-elf/lib\libc.a(lib_a-perror.o)
 .data          0x0405a700        0x0 c:/altera/12.1/nios2eds/bin/gnu/h-i686-mingw32/bin/../lib/gcc/nios2-elf/4.1.2/../../../../nios2-elf/lib\libc.a(lib_a-printf.o)
 .data          0x0405a700        0x0 c:/altera/12.1/nios2eds/bin/gnu/h-i686-mingw32/bin/../lib/gcc/nios2-elf/4.1.2/../../../../nios2-elf/lib\libc.a(lib_a-putc.o)
 .data          0x0405a700        0x0 c:/altera/12.1/nios2eds/bin/gnu/h-i686-mingw32/bin/../lib/gcc/nios2-elf/4.1.2/../../../../nios2-elf/lib\libc.a(lib_a-putchar.o)
 .data          0x0405a700        0x0 c:/altera/12.1/nios2eds/bin/gnu/h-i686-mingw32/bin/../lib/gcc/nios2-elf/4.1.2/../../../../nios2-elf/lib\libc.a(lib_a-puts.o)
 .data          0x0405a700        0x0 c:/altera/12.1/nios2eds/bin/gnu/h-i686-mingw32/bin/../lib/gcc/nios2-elf/4.1.2/../../../../nios2-elf/lib\libc.a(lib_a-rget.o)
 .data          0x0405a700        0x0 c:/altera/12.1/nios2eds/bin/gnu/h-i686-mingw32/bin/../lib/gcc/nios2-elf/4.1.2/../../../../nios2-elf/lib\libc.a(lib_a-sbrkr.o)
 .data          0x0405a700        0x0 c:/altera/12.1/nios2eds/bin/gnu/h-i686-mingw32/bin/../lib/gcc/nios2-elf/4.1.2/../../../../nios2-elf/lib\libc.a(lib_a-signal.o)
 .data          0x0405a700        0x0 c:/altera/12.1/nios2eds/bin/gnu/h-i686-mingw32/bin/../lib/gcc/nios2-elf/4.1.2/../../../../nios2-elf/lib\libc.a(lib_a-signalr.o)
 .data          0x0405a700        0x0 c:/altera/12.1/nios2eds/bin/gnu/h-i686-mingw32/bin/../lib/gcc/nios2-elf/4.1.2/../../../../nios2-elf/lib\libc.a(lib_a-strerror.o)
 .data          0x0405a700        0x0 c:/altera/12.1/nios2eds/bin/gnu/h-i686-mingw32/bin/../lib/gcc/nios2-elf/4.1.2/../../../../nios2-elf/lib\libc.a(lib_a-strlen.o)
 .data          0x0405a700        0x0 c:/altera/12.1/nios2eds/bin/gnu/h-i686-mingw32/bin/../lib/gcc/nios2-elf/4.1.2/../../../../nios2-elf/lib\libc.a(lib_a-u_strerr.o)
 .data          0x0405a700        0x0 c:/altera/12.1/nios2eds/bin/gnu/h-i686-mingw32/bin/../lib/gcc/nios2-elf/4.1.2/../../../../nios2-elf/lib\libc.a(lib_a-vfprintf.o)
 .data          0x0405a700        0x0 c:/altera/12.1/nios2eds/bin/gnu/h-i686-mingw32/bin/../lib/gcc/nios2-elf/4.1.2/../../../../nios2-elf/lib\libc.a(lib_a-wbuf.o)
 .data          0x0405a700        0x0 c:/altera/12.1/nios2eds/bin/gnu/h-i686-mingw32/bin/../lib/gcc/nios2-elf/4.1.2/../../../../nios2-elf/lib\libc.a(lib_a-wsetup.o)
 .data          0x0405a700        0x0 c:/altera/12.1/nios2eds/bin/gnu/h-i686-mingw32/bin/../lib/gcc/nios2-elf/4.1.2/../../../../nios2-elf/lib\libc.a(lib_a-dtoa.o)
 .data          0x0405a700        0x0 c:/altera/12.1/nios2eds/bin/gnu/h-i686-mingw32/bin/../lib/gcc/nios2-elf/4.1.2/../../../../nios2-elf/lib\libc.a(lib_a-fflush.o)
 .data          0x0405a700        0x0 c:/altera/12.1/nios2eds/bin/gnu/h-i686-mingw32/bin/../lib/gcc/nios2-elf/4.1.2/../../../../nios2-elf/lib\libc.a(lib_a-findfp.o)
 .data          0x0405a700        0x0 c:/altera/12.1/nios2eds/bin/gnu/h-i686-mingw32/bin/../lib/gcc/nios2-elf/4.1.2/../../../../nios2-elf/lib\libc.a(lib_a-fputc.o)
 .data          0x0405a700        0x0 c:/altera/12.1/nios2eds/bin/gnu/h-i686-mingw32/bin/../lib/gcc/nios2-elf/4.1.2/../../../../nios2-elf/lib\libc.a(lib_a-fputs.o)
 .data          0x0405a700        0x0 c:/altera/12.1/nios2eds/bin/gnu/h-i686-mingw32/bin/../lib/gcc/nios2-elf/4.1.2/../../../../nios2-elf/lib\libc.a(lib_a-freer.o)
 .data          0x0405a700        0x0 c:/altera/12.1/nios2eds/bin/gnu/h-i686-mingw32/bin/../lib/gcc/nios2-elf/4.1.2/../../../../nios2-elf/lib\libc.a(lib_a-fvwrite.o)
 .data          0x0405a700        0x0 c:/altera/12.1/nios2eds/bin/gnu/h-i686-mingw32/bin/../lib/gcc/nios2-elf/4.1.2/../../../../nios2-elf/lib\libc.a(lib_a-fwalk.o)
 .data          0x0405a700        0x0 c:/altera/12.1/nios2eds/bin/gnu/h-i686-mingw32/bin/../lib/gcc/nios2-elf/4.1.2/../../../../nios2-elf/lib\libc.a(lib_a-int_errno.o)
 .data          0x0405a700        0xc c:/altera/12.1/nios2eds/bin/gnu/h-i686-mingw32/bin/../lib/gcc/nios2-elf/4.1.2/../../../../nios2-elf/lib\libc.a(lib_a-locale.o)
                0x0405a700                __lc_ctype
 .data          0x0405a70c        0x0 c:/altera/12.1/nios2eds/bin/gnu/h-i686-mingw32/bin/../lib/gcc/nios2-elf/4.1.2/../../../../nios2-elf/lib\libc.a(lib_a-makebuf.o)
 .data          0x0405a70c        0x0 c:/altera/12.1/nios2eds/bin/gnu/h-i686-mingw32/bin/../lib/gcc/nios2-elf/4.1.2/../../../../nios2-elf/lib\libc.a(lib_a-memchr.o)
 .data          0x0405a70c        0x0 c:/altera/12.1/nios2eds/bin/gnu/h-i686-mingw32/bin/../lib/gcc/nios2-elf/4.1.2/../../../../nios2-elf/lib\libc.a(lib_a-memcpy.o)
 .data          0x0405a70c        0x0 c:/altera/12.1/nios2eds/bin/gnu/h-i686-mingw32/bin/../lib/gcc/nios2-elf/4.1.2/../../../../nios2-elf/lib\libc.a(lib_a-mprec.o)
 .data          0x0405a70c        0x0 c:/altera/12.1/nios2eds/bin/gnu/h-i686-mingw32/bin/../lib/gcc/nios2-elf/4.1.2/../../../../nios2-elf/lib\libc.a(lib_a-reallocr.o)
 .data          0x0405a70c        0x0 c:/altera/12.1/nios2eds/bin/gnu/h-i686-mingw32/bin/../lib/gcc/nios2-elf/4.1.2/../../../../nios2-elf/lib\libc.a(lib_a-refill.o)
 .data          0x0405a70c        0x0 c:/altera/12.1/nios2eds/bin/gnu/h-i686-mingw32/bin/../lib/gcc/nios2-elf/4.1.2/../../../../nios2-elf/lib\libc.a(lib_a-s_isinfd.o)
 .data          0x0405a70c        0x0 c:/altera/12.1/nios2eds/bin/gnu/h-i686-mingw32/bin/../lib/gcc/nios2-elf/4.1.2/../../../../nios2-elf/lib\libc.a(lib_a-s_isnand.o)
 .data          0x0405a70c        0x0 c:/altera/12.1/nios2eds/bin/gnu/h-i686-mingw32/bin/../lib/gcc/nios2-elf/4.1.2/../../../../nios2-elf/lib\libc.a(lib_a-stdio.o)
 .data          0x0405a70c        0x0 c:/altera/12.1/nios2eds/bin/gnu/h-i686-mingw32/bin/../lib/gcc/nios2-elf/4.1.2/../../../../nios2-elf/lib\libc.a(lib_a-strcmp.o)
 .data          0x0405a70c        0x0 c:/altera/12.1/nios2eds/bin/gnu/h-i686-mingw32/bin/../lib/gcc/nios2-elf/4.1.2/../../../../nios2-elf/lib\libc.a(lib_a-writer.o)
 .data          0x0405a70c        0x0 c:/altera/12.1/nios2eds/bin/gnu/h-i686-mingw32/bin/../lib/gcc/nios2-elf/4.1.2/../../../../nios2-elf/lib\libc.a(lib_a-callocr.o)
 .data          0x0405a70c        0x0 c:/altera/12.1/nios2eds/bin/gnu/h-i686-mingw32/bin/../lib/gcc/nios2-elf/4.1.2/../../../../nios2-elf/lib\libc.a(lib_a-closer.o)
 .data          0x0405a70c        0x0 c:/altera/12.1/nios2eds/bin/gnu/h-i686-mingw32/bin/../lib/gcc/nios2-elf/4.1.2/../../../../nios2-elf/lib\libc.a(lib_a-fclose.o)
 .data          0x0405a70c        0x0 c:/altera/12.1/nios2eds/bin/gnu/h-i686-mingw32/bin/../lib/gcc/nios2-elf/4.1.2/../../../../nios2-elf/lib\libc.a(lib_a-fstatr.o)
 .data          0x0405a70c        0x0 c:/altera/12.1/nios2eds/bin/gnu/h-i686-mingw32/bin/../lib/gcc/nios2-elf/4.1.2/../../../../nios2-elf/lib\libc.a(lib_a-isattyr.o)
 .data          0x0405a70c        0x0 c:/altera/12.1/nios2eds/bin/gnu/h-i686-mingw32/bin/../lib/gcc/nios2-elf/4.1.2/../../../../nios2-elf/lib\libc.a(lib_a-lseekr.o)
 .data          0x0405a70c        0x0 c:/altera/12.1/nios2eds/bin/gnu/h-i686-mingw32/bin/../lib/gcc/nios2-elf/4.1.2/../../../../nios2-elf/lib\libc.a(lib_a-readr.o)
 .data          0x0405a70c        0x0 c:/altera/12.1/nios2eds/bin/gnu/h-i686-mingw32/bin/../lib/gcc/nios2-elf/4.1.2\libgcc.a(_udivdi3.o)
 .data          0x0405a70c        0x0 c:/altera/12.1/nios2eds/bin/gnu/h-i686-mingw32/bin/../lib/gcc/nios2-elf/4.1.2\libgcc.a(_umoddi3.o)
 .data          0x0405a70c        0x0 c:/altera/12.1/nios2eds/bin/gnu/h-i686-mingw32/bin/../lib/gcc/nios2-elf/4.1.2\libgcc.a(_addsub_df.o)
 .data          0x0405a70c        0x0 c:/altera/12.1/nios2eds/bin/gnu/h-i686-mingw32/bin/../lib/gcc/nios2-elf/4.1.2\libgcc.a(_mul_df.o)
 .data          0x0405a70c        0x0 c:/altera/12.1/nios2eds/bin/gnu/h-i686-mingw32/bin/../lib/gcc/nios2-elf/4.1.2\libgcc.a(_div_df.o)
 .data          0x0405a70c        0x0 c:/altera/12.1/nios2eds/bin/gnu/h-i686-mingw32/bin/../lib/gcc/nios2-elf/4.1.2\libgcc.a(_eq_df.o)
 .data          0x0405a70c        0x0 c:/altera/12.1/nios2eds/bin/gnu/h-i686-mingw32/bin/../lib/gcc/nios2-elf/4.1.2\libgcc.a(_ne_df.o)
 .data          0x0405a70c        0x0 c:/altera/12.1/nios2eds/bin/gnu/h-i686-mingw32/bin/../lib/gcc/nios2-elf/4.1.2\libgcc.a(_gt_df.o)
 .data          0x0405a70c        0x0 c:/altera/12.1/nios2eds/bin/gnu/h-i686-mingw32/bin/../lib/gcc/nios2-elf/4.1.2\libgcc.a(_ge_df.o)
 .data          0x0405a70c        0x0 c:/altera/12.1/nios2eds/bin/gnu/h-i686-mingw32/bin/../lib/gcc/nios2-elf/4.1.2\libgcc.a(_lt_df.o)
 .data          0x0405a70c        0x0 c:/altera/12.1/nios2eds/bin/gnu/h-i686-mingw32/bin/../lib/gcc/nios2-elf/4.1.2\libgcc.a(_si_to_df.o)
 .data          0x0405a70c        0x0 c:/altera/12.1/nios2eds/bin/gnu/h-i686-mingw32/bin/../lib/gcc/nios2-elf/4.1.2\libgcc.a(_df_to_si.o)
 .data          0x0405a70c        0x0 c:/altera/12.1/nios2eds/bin/gnu/h-i686-mingw32/bin/../lib/gcc/nios2-elf/4.1.2\libgcc.a(_thenan_df.o)
 .data          0x0405a70c        0x0 c:/altera/12.1/nios2eds/bin/gnu/h-i686-mingw32/bin/../lib/gcc/nios2-elf/4.1.2\libgcc.a(_usi_to_df.o)
 .data          0x0405a70c        0x0 c:/altera/12.1/nios2eds/bin/gnu/h-i686-mingw32/bin/../lib/gcc/nios2-elf/4.1.2\libgcc.a(_muldi3.o)
 .data          0x0405a70c        0x0 c:/altera/12.1/nios2eds/bin/gnu/h-i686-mingw32/bin/../lib/gcc/nios2-elf/4.1.2\libgcc.a(_clz.o)
 .data          0x0405a70c        0x0 c:/altera/12.1/nios2eds/bin/gnu/h-i686-mingw32/bin/../lib/gcc/nios2-elf/4.1.2\libgcc.a(_clzsi2.o)
 .data          0x0405a70c        0x0 c:/altera/12.1/nios2eds/bin/gnu/h-i686-mingw32/bin/../lib/gcc/nios2-elf/4.1.2\libgcc.a(_pack_df.o)
 .data          0x0405a70c        0x0 c:/altera/12.1/nios2eds/bin/gnu/h-i686-mingw32/bin/../lib/gcc/nios2-elf/4.1.2\libgcc.a(_unpack_df.o)
 .data          0x0405a70c        0x0 c:/altera/12.1/nios2eds/bin/gnu/h-i686-mingw32/bin/../lib/gcc/nios2-elf/4.1.2\libgcc.a(_fpcmp_parts_df.o)
 .data          0x0405a70c        0x0 ../Car2X_communication_bsp/\libucosii_bsp.a(alt_exit.o)
 .data          0x0405a70c        0x0 ../Car2X_communication_bsp/\libucosii_bsp.a(alt_fstat.o)
 .data          0x0405a70c        0x0 ../Car2X_communication_bsp/\libucosii_bsp.a(alt_getpid.o)
 .data          0x0405a70c        0x0 ../Car2X_communication_bsp/\libucosii_bsp.a(alt_isatty.o)
 .data          0x0405a70c        0x0 ../Car2X_communication_bsp/\libucosii_bsp.a(alt_kill.o)
 .data          0x0405a70c        0x0 ../Car2X_communication_bsp/\libucosii_bsp.a(alt_load.o)
 .data          0x0405a70c        0x0 ../Car2X_communication_bsp/\libucosii_bsp.a(alt_lseek.o)
 .data          0x0405a70c        0x0 ../Car2X_communication_bsp/\libucosii_bsp.a(alt_main.o)
 .data          0x0405a70c        0x0 ../Car2X_communication_bsp/\libucosii_bsp.a(alt_sbrk.o)
 .data          0x0405a70c        0x0 ../Car2X_communication_bsp/\libucosii_bsp.a(alt_tick.o)
 .data          0x0405a70c        0x0 ../Car2X_communication_bsp/\libucosii_bsp.a(alt_usleep.o)
 .data          0x0405a70c        0x0 ../Car2X_communication_bsp/\libucosii_bsp.a(alt_env_lock.o)
 .data          0x0405a70c        0x0 ../Car2X_communication_bsp/\libucosii_bsp.a(alt_malloc_lock.o)
 .data          0x0405a70c        0x0 ../Car2X_communication_bsp/\libucosii_bsp.a(os_core.o)
 .data          0x0405a70c        0x0 ../Car2X_communication_bsp/\libucosii_bsp.a(os_dbg.o)
 .data          0x0405a70c        0x0 ../Car2X_communication_bsp/\libucosii_bsp.a(os_flag.o)
 .data          0x0405a70c        0x0 ../Car2X_communication_bsp/\libucosii_bsp.a(os_mem.o)
 .data          0x0405a70c        0x0 ../Car2X_communication_bsp/\libucosii_bsp.a(os_q.o)
 .data          0x0405a70c        0x0 ../Car2X_communication_bsp/\libucosii_bsp.a(os_sem.o)
 .data          0x0405a70c        0x0 ../Car2X_communication_bsp/\libucosii_bsp.a(os_task.o)
 .data          0x0405a70c        0x0 ../Car2X_communication_bsp/\libucosii_bsp.a(os_time.o)
 .data          0x0405a70c     0x10e0 ../Car2X_communication_bsp/\libucosii_bsp.a(alt_sys_init.o)
 .data          0x0405b7ec        0x0 ../Car2X_communication_bsp/\libucosii_bsp.a(altera_avalon_jtag_uart_fd.o)
 .data          0x0405b7ec        0x0 ../Car2X_communication_bsp/\libucosii_bsp.a(altera_avalon_jtag_uart_init.o)
 .data          0x0405b7ec        0x0 ../Car2X_communication_bsp/\libucosii_bsp.a(altera_avalon_jtag_uart_ioctl.o)
 .data          0x0405b7ec        0x0 ../Car2X_communication_bsp/\libucosii_bsp.a(altera_avalon_jtag_uart_read.o)
 .data          0x0405b7ec        0x0 ../Car2X_communication_bsp/\libucosii_bsp.a(altera_avalon_jtag_uart_write.o)
 .data          0x0405b7ec        0x0 ../Car2X_communication_bsp/\libucosii_bsp.a(altera_avalon_mutex.o)
 .data          0x0405b7ec        0x0 ../Car2X_communication_bsp/\libucosii_bsp.a(altera_avalon_sgdma.o)
 .data          0x0405b7ec        0x0 ../Car2X_communication_bsp/\libucosii_bsp.a(altera_avalon_timer_sc.o)
 .data          0x0405b7ec        0x0 ../Car2X_communication_bsp/\libucosii_bsp.a(altera_avalon_tse.o)
 .data          0x0405b7ec        0x0 ../Car2X_communication_bsp/\libucosii_bsp.a(ins_tse_mac.o)
 .data          0x0405b7ec        0x0 ../Car2X_communication_bsp/\libucosii_bsp.a(alt_iniche_close.o)
 .data          0x0405b7ec        0x0 ../Car2X_communication_bsp/\libucosii_bsp.a(alt_iniche_dev.o)
 .data          0x0405b7ec        0x0 ../Car2X_communication_bsp/\libucosii_bsp.a(alt_iniche_read.o)
 .data          0x0405b7ec        0x0 ../Car2X_communication_bsp/\libucosii_bsp.a(alt_iniche_write.o)
 .data          0x0405b7ec        0x0 ../Car2X_communication_bsp/\libucosii_bsp.a(ipnet.o)
 .data          0x0405b7ec        0x0 ../Car2X_communication_bsp/\libucosii_bsp.a(ipstart.o)
 .data          0x0405b7ec        0x0 ../Car2X_communication_bsp/\libucosii_bsp.a(igmp_cmn.o)
 .data          0x0405b7ec        0x0 ../Car2X_communication_bsp/\libucosii_bsp.a(bsdsock.o)
 .data          0x0405b7ec        0x0 ../Car2X_communication_bsp/\libucosii_bsp.a(cksum.o)
 .data          0x0405b7ec        0x0 ../Car2X_communication_bsp/\libucosii_bsp.a(in_utils.o)
 .data          0x0405b7ec       0x30 ../Car2X_communication_bsp/\libucosii_bsp.a(netmain.o)
                0x0405b7ec                nettasks
 .data          0x0405b81c        0x0 ../Car2X_communication_bsp/\libucosii_bsp.a(tk_crnos.o)
 .data          0x0405b81c        0x0 ../Car2X_communication_bsp/\libucosii_bsp.a(pktalloc.o)
 .data          0x0405b81c        0x0 ../Car2X_communication_bsp/\libucosii_bsp.a(q.o)
 .data          0x0405b81c        0x0 ../Car2X_communication_bsp/\libucosii_bsp.a(asm_cksum.o)
 .data          0x0405b81c        0x0 ../Car2X_communication_bsp/\libucosii_bsp.a(brdutils.o)
 .data          0x0405b81c        0x0 ../Car2X_communication_bsp/\libucosii_bsp.a(osportco.o)
 .data          0x0405b81c        0x0 ../Car2X_communication_bsp/\libucosii_bsp.a(targnios.o)
 .data          0x0405b81c       0x48 ../Car2X_communication_bsp/\libucosii_bsp.a(nptcp.o)
                0x0405b81c                tcp_protosw
                0x0405b834                udp_protosw
                0x0405b84c                rawip_protosw
 .data          0x0405b864        0x0 ../Car2X_communication_bsp/\libucosii_bsp.a(rawsock.o)
 .data          0x0405b864        0x0 ../Car2X_communication_bsp/\libucosii_bsp.a(sockcall.o)
 .data          0x0405b864        0x0 ../Car2X_communication_bsp/\libucosii_bsp.a(socket.o)
 .data          0x0405b864        0x0 ../Car2X_communication_bsp/\libucosii_bsp.a(socket2.o)
 .data          0x0405b864        0x0 ../Car2X_communication_bsp/\libucosii_bsp.a(soselect.o)
 .data          0x0405b864        0x0 ../Car2X_communication_bsp/\libucosii_bsp.a(tcp_in.o)
 .data          0x0405b864        0xb ../Car2X_communication_bsp/\libucosii_bsp.a(tcp_out.o)
                0x0405b864                tcp_outflags
 .data          0x0405b86f        0x0 ../Car2X_communication_bsp/\libucosii_bsp.a(tcp_subr.o)
 .data          0x0405b86f        0xd ../Car2X_communication_bsp/\libucosii_bsp.a(tcp_timr.o)
                0x0405b86f                tcp_backoff
 .data          0x0405b87c        0x0 ../Car2X_communication_bsp/\libucosii_bsp.a(tcp_usr.o)
 .data          0x0405b87c        0x0 ../Car2X_communication_bsp/\libucosii_bsp.a(tcpport.o)
 .data          0x0405b87c        0x0 ../Car2X_communication_bsp/\libucosii_bsp.a(udpsock.o)
 .data          0x0405b87c        0x0 ../Car2X_communication_bsp/\libucosii_bsp.a(alt_alarm_start.o)
 .data          0x0405b87c        0x0 ../Car2X_communication_bsp/\libucosii_bsp.a(alt_busy_sleep.o)
 .data          0x0405b87c        0x0 ../Car2X_communication_bsp/\libucosii_bsp.a(alt_close.o)
 .data          0x0405b87c        0x0 ../Car2X_communication_bsp/\libucosii_bsp.a(alt_dcache_flush_all.o)
 .data          0x0405b87c      0x1a8 ../Car2X_communication_bsp/\libucosii_bsp.a(alt_dev.o)
                0x0405b87c                alt_dev_null
                0x0405b8a4                alt_fd_list
 .data          0x0405ba24        0x0 ../Car2X_communication_bsp/\libucosii_bsp.a(alt_dev_llist_insert.o)
 .data          0x0405ba24        0x0 ../Car2X_communication_bsp/\libucosii_bsp.a(alt_do_ctors.o)
 .data          0x0405ba24        0x0 ../Car2X_communication_bsp/\libucosii_bsp.a(alt_do_dtors.o)
 .data          0x0405ba24        0x0 ../Car2X_communication_bsp/\libucosii_bsp.a(alt_errno.o)
 .data          0x0405ba24        0x0 ../Car2X_communication_bsp/\libucosii_bsp.a(alt_find_dev.o)
 .data          0x0405ba24        0x0 ../Car2X_communication_bsp/\libucosii_bsp.a(alt_icache_flush_all.o)
 .data          0x0405ba24        0x0 ../Car2X_communication_bsp/\libucosii_bsp.a(alt_iic.o)
 .data          0x0405ba24        0x0 ../Car2X_communication_bsp/\libucosii_bsp.a(alt_iic_isr_register.o)
 .data          0x0405ba24        0x0 ../Car2X_communication_bsp/\libucosii_bsp.a(alt_io_redirect.o)
 .data          0x0405ba24        0x0 ../Car2X_communication_bsp/\libucosii_bsp.a(alt_irq_entry.o)
 .data          0x0405ba24        0x0 ../Car2X_communication_bsp/\libucosii_bsp.a(alt_irq_handler.o)
 .data          0x0405ba24        0x0 ../Car2X_communication_bsp/\libucosii_bsp.a(alt_irq_vars.o)
 .data          0x0405ba24        0x0 ../Car2X_communication_bsp/\libucosii_bsp.a(alt_open.o)
 .data          0x0405ba24        0x0 ../Car2X_communication_bsp/\libucosii_bsp.a(alt_read.o)
 .data          0x0405ba24        0x0 ../Car2X_communication_bsp/\libucosii_bsp.a(alt_release_fd.o)
 .data          0x0405ba24        0x0 ../Car2X_communication_bsp/\libucosii_bsp.a(alt_remap_cached.o)
 .data          0x0405ba24        0x0 ../Car2X_communication_bsp/\libucosii_bsp.a(alt_remap_uncached.o)
 .data          0x0405ba24        0x0 ../Car2X_communication_bsp/\libucosii_bsp.a(alt_uncached_malloc.o)
 .data          0x0405ba24        0x0 ../Car2X_communication_bsp/\libucosii_bsp.a(alt_write.o)
 .data          0x0405ba24        0x0 ../Car2X_communication_bsp/\libucosii_bsp.a(altera_nios2_qsys_irq.o)
 .data          0x0405ba24        0x0 ../Car2X_communication_bsp/\libucosii_bsp.a(os_cpu_a.o)
 .data          0x0405ba24        0x0 ../Car2X_communication_bsp/\libucosii_bsp.a(os_cpu_c.o)
 .data          0x0405ba24       0x18 ../Car2X_communication_bsp/\libucosii_bsp.a(allports.o)
                0x0405ba24                icmpdu_types
 .data          0x0405ba3c        0x0 ../Car2X_communication_bsp/\libucosii_bsp.a(timeouts.o)
 .data          0x0405ba3c        0x0 ../Car2X_communication_bsp/\libucosii_bsp.a(tk_misc.o)
 .data          0x0405ba3c        0x0 ../Car2X_communication_bsp/\libucosii_bsp.a(alt_iniche_fcntl.o)
 .data          0x0405ba3c        0x0 ../Car2X_communication_bsp/\libucosii_bsp.a(et_arp.o)
 .data          0x0405ba3c        0x0 ../Car2X_communication_bsp/\libucosii_bsp.a(iface.o)
 .data          0x0405ba3c        0x0 ../Car2X_communication_bsp/\libucosii_bsp.a(ip.o)
 .data          0x0405ba3c        0x0 ../Car2X_communication_bsp/\libucosii_bsp.a(ip_reasm.o)
 .data          0x0405ba3c        0x0 ../Car2X_communication_bsp/\libucosii_bsp.a(ipdemux.o)
 .data          0x0405ba3c        0x0 ../Car2X_communication_bsp/\libucosii_bsp.a(ipmc.o)
 .data          0x0405ba3c        0x0 ../Car2X_communication_bsp/\libucosii_bsp.a(ipport.o)
 .data          0x0405ba3c        0x0 ../Car2X_communication_bsp/\libucosii_bsp.a(ipraw.o)
 .data          0x0405ba3c        0x9 ../Car2X_communication_bsp/\libucosii_bsp.a(iproute.o)
                0x0405ba3c                rtp_priority
 .data          0x0405ba45        0x0 ../Car2X_communication_bsp/\libucosii_bsp.a(udp.o)
 .data          0x0405ba45        0x0 ../Car2X_communication_bsp/\libucosii_bsp.a(igmp.o)
 .data          0x0405ba45        0x0 ../Car2X_communication_bsp/\libucosii_bsp.a(igmp2.o)
 .data          0x0405ba45        0x0 ../Car2X_communication_bsp/\libucosii_bsp.a(ipopt.o)
 .data          0x0405ba45        0x0 ../Car2X_communication_bsp/\libucosii_bsp.a(u_mctest.o)
 *fill*         0x0405ba45        0x3 00
 .data          0x0405ba48       0xd4 ../Car2X_communication_bsp/\libucosii_bsp.a(memdev.o)
                0x0405ba48                mdio
                0x0405ba6c                mdlist
 .data          0x0405bb1c        0x0 ../Car2X_communication_bsp/\libucosii_bsp.a(parseip.o)
 .data          0x0405bb1c        0x0 ../Car2X_communication_bsp/\libucosii_bsp.a(tcpcksum.o)
 .data          0x0405bb1c        0x0 ../Car2X_communication_bsp/\libucosii_bsp.a(udp_open.o)
 .data          0x0405bb1c        0x0 ../Car2X_communication_bsp/\libucosii_bsp.a(in_pcb.o)
 .data          0x0405bb1c       0x80 ../Car2X_communication_bsp/\libucosii_bsp.a(vfsfiles.o)
                0x0405bb1c                vfs_root_path
 .data          0x0405bb9c        0x0 ../Car2X_communication_bsp/\libucosii_bsp.a(vfsport.o)
 .data          0x0405bb9c        0x0 ../Car2X_communication_bsp/\libucosii_bsp.a(alt_dcache_flush.o)
 .data          0x0405bb9c        0x0 ../Car2X_communication_bsp/\libucosii_bsp.a(alt_exception_entry.o)
 .data          0x0405bb9c        0x0 ../Car2X_communication_bsp/\libucosii_bsp.a(alt_fcntl.o)
 .data          0x0405bb9c        0x0 ../Car2X_communication_bsp/\libucosii_bsp.a(alt_find_file.o)
 .data          0x0405bb9c        0x0 ../Car2X_communication_bsp/\libucosii_bsp.a(alt_get_fd.o)
 .data          0x0405bb9c        0x0 ../Car2X_communication_bsp/\libucosii_bsp.a(alt_icache_flush.o)
 .data          0x0405bb9c       0x18 ../Car2X_communication_bsp/\libucosii_bsp.a(icmp.o)
 .data          0x0405bbb4        0x0 c:/altera/12.1/nios2eds/bin/gnu/h-i686-mingw32/bin/../lib/gcc/nios2-elf/4.1.2/../../../../nios2-elf/lib\libc.a(lib_a-atexit.o)
 .data          0x0405bbb4        0x0 c:/altera/12.1/nios2eds/bin/gnu/h-i686-mingw32/bin/../lib/gcc/nios2-elf/4.1.2/../../../../nios2-elf/lib\libc.a(lib_a-atoi.o)
 .data          0x0405bbb4        0x0 c:/altera/12.1/nios2eds/bin/gnu/h-i686-mingw32/bin/../lib/gcc/nios2-elf/4.1.2/../../../../nios2-elf/lib\libc.a(lib_a-calloc.o)
 .data          0x0405bbb4        0x0 c:/altera/12.1/nios2eds/bin/gnu/h-i686-mingw32/bin/../lib/gcc/nios2-elf/4.1.2/../../../../nios2-elf/lib\libc.a(lib_a-exit.o)
 .data          0x0405bbb4        0x0 c:/altera/12.1/nios2eds/bin/gnu/h-i686-mingw32/bin/../lib/gcc/nios2-elf/4.1.2/../../../../nios2-elf/lib\libc.a(lib_a-memcmp.o)
 .data          0x0405bbb4        0x0 c:/altera/12.1/nios2eds/bin/gnu/h-i686-mingw32/bin/../lib/gcc/nios2-elf/4.1.2/../../../../nios2-elf/lib\libc.a(lib_a-sprintf.o)
 .data          0x0405bbb4        0x0 c:/altera/12.1/nios2eds/bin/gnu/h-i686-mingw32/bin/../lib/gcc/nios2-elf/4.1.2/../../../../nios2-elf/lib\libc.a(lib_a-strchr.o)
 .data          0x0405bbb4        0x0 c:/altera/12.1/nios2eds/bin/gnu/h-i686-mingw32/bin/../lib/gcc/nios2-elf/4.1.2/../../../../nios2-elf/lib\libc.a(lib_a-strcpy.o)
 .data          0x0405bbb4        0x0 c:/altera/12.1/nios2eds/bin/gnu/h-i686-mingw32/bin/../lib/gcc/nios2-elf/4.1.2/../../../../nios2-elf/lib\libc.a(lib_a-strncmp.o)
 .data          0x0405bbb4        0x0 c:/altera/12.1/nios2eds/bin/gnu/h-i686-mingw32/bin/../lib/gcc/nios2-elf/4.1.2/../../../../nios2-elf/lib\libc.a(lib_a-strtol.o)
 .data          0x0405bbb4        0x0 c:/altera/12.1/nios2eds/bin/gnu/h-i686-mingw32/bin/../lib/gcc/nios2-elf/4.1.2/../../../../nios2-elf/lib\libc.a(lib_a-vprintf.o)
 .data          0x0405bbb4        0x0 c:/altera/12.1/nios2eds/bin/gnu/h-i686-mingw32/bin/../lib/gcc/nios2-elf/4.1.2/../../../../nios2-elf/lib\libc.a(lib_a-vsprintf.o)
 .data          0x0405bbb4        0x0 c:/altera/12.1/nios2eds/bin/gnu/h-i686-mingw32/bin/../lib/gcc/nios2-elf/4.1.2/../../../../nios2-elf/lib\libc.a(lib_a-__atexit.o)
 .data          0x0405bbb4        0x0 c:/altera/12.1/nios2eds/bin/gnu/h-i686-mingw32/bin/../lib/gcc/nios2-elf/4.1.2/../../../../nios2-elf/lib\libc.a(lib_a-__call_atexit.o)
                0x04063bb4                _gp = ABSOLUTE ((. + 0x8000))
                0x04063bb4                PROVIDE (gp, _gp)
 *(.rwdata .rwdata.*)
 *(.sdata .sdata.* .gnu.linkonce.s.*)
 .sdata._ZTI11CCarMessage
                0x0405bbb4        0x8 obj/default/COMM_CarProtocol/CarMessage.o
                0x0405bbb4                typeinfo for CCarMessage
 .sdata._ZTI12CCarProtocol
                0x0405bbbc        0x8 obj/default/COMM_CarProtocol/CarProtocol.o
                0x0405bbbc                typeinfo for CCarProtocol
 .sdata._ZTI12CSensorState
                0x0405bbc4        0x8 obj/default/sensors/SensorState.o
                0x0405bbc4                typeinfo for CSensorState
 .sdata._ZTISt9exception
                0x0405bbcc        0x8 c:/altera/12.1/nios2eds/bin/gnu/h-i686-mingw32/bin/../lib/gcc/nios2-elf/4.1.2/../../../../nios2-elf/lib\libstdc++.a(eh_exception.o)
                0x0405bbcc                typeinfo for std::exception
 .sdata._ZTISt9type_info
                0x0405bbd4        0x8 c:/altera/12.1/nios2eds/bin/gnu/h-i686-mingw32/bin/../lib/gcc/nios2-elf/4.1.2/../../../../nios2-elf/lib\libstdc++.a(tinfo.o)
                0x0405bbd4                typeinfo for std::type_info
 .sdata         0x0405bbdc        0x4 c:/altera/12.1/nios2eds/bin/gnu/h-i686-mingw32/bin/../lib/gcc/nios2-elf/4.1.2/../../../../nios2-elf/lib\libstdc++.a(eh_unex_handler.o)
                0x0405bbdc                __cxxabiv1::__unexpected_handler
 .sdata         0x0405bbe0        0x1 c:/altera/12.1/nios2eds/bin/gnu/h-i686-mingw32/bin/../lib/gcc/nios2-elf/4.1.2/../../../../nios2-elf/lib\libstdc++.a(new_handler.o)
                0x0405bbe0                std::nothrow
 *fill*         0x0405bbe1        0x3 00
 .sdata         0x0405bbe4        0x4 c:/altera/12.1/nios2eds/bin/gnu/h-i686-mingw32/bin/../lib/gcc/nios2-elf/4.1.2/../../../../nios2-elf/lib\libstdc++.a(eh_term_handler.o)
                0x0405bbe4                __cxxabiv1::__terminate_handler
 .sdata         0x0405bbe8        0x4 c:/altera/12.1/nios2eds/bin/gnu/h-i686-mingw32/bin/../lib/gcc/nios2-elf/4.1.2/../../../../nios2-elf/lib\libc.a(lib_a-ctype_.o)
                0x0405bbe8                __ctype_ptr
 .sdata         0x0405bbec        0x8 c:/altera/12.1/nios2eds/bin/gnu/h-i686-mingw32/bin/../lib/gcc/nios2-elf/4.1.2/../../../../nios2-elf/lib\libc.a(lib_a-impure.o)
                0x0405bbec                _impure_ptr
                0x0405bbf0                _global_impure_ptr
 .sdata         0x0405bbf4        0x8 c:/altera/12.1/nios2eds/bin/gnu/h-i686-mingw32/bin/../lib/gcc/nios2-elf/4.1.2/../../../../nios2-elf/lib\libc.a(lib_a-mallocr.o)
                0x0405bbf4                __malloc_trim_threshold
                0x0405bbf8                __malloc_sbrk_base
 .sdata         0x0405bbfc        0x8 c:/altera/12.1/nios2eds/bin/gnu/h-i686-mingw32/bin/../lib/gcc/nios2-elf/4.1.2/../../../../nios2-elf/lib\libc.a(lib_a-locale.o)
                0x0405bbfc                __mb_cur_max
 .sdata         0x0405bc04        0x4 ../Car2X_communication_bsp/\libucosii_bsp.a(alt_sbrk.o)
 .sdata         0x0405bc08        0x8 ../Car2X_communication_bsp/\libucosii_bsp.a(alt_tick.o)
                0x0405bc08                alt_alarm_list
 .sdata         0x0405bc10        0x4 ../Car2X_communication_bsp/\libucosii_bsp.a(alt_env_lock.o)
 .sdata         0x0405bc14        0x4 ../Car2X_communication_bsp/\libucosii_bsp.a(alt_malloc_lock.o)
 .sdata         0x0405bc18       0x74 ../Car2X_communication_bsp/\libucosii_bsp.a(os_dbg.o)
                0x0405bc18                OSDebugEn
                0x0405bc1c                OSEndiannessTest
                0x0405bc20                OSEventEn
                0x0405bc22                OSEventMax
                0x0405bc24                OSEventNameSize
                0x0405bc26                OSEventSize
                0x0405bc28                OSEventTblSize
                0x0405bc2a                OSEventMultiEn
                0x0405bc2c                OSFlagEn
                0x0405bc2e                OSFlagGrpSize
                0x0405bc30                OSFlagNodeSize
                0x0405bc32                OSFlagWidth
                0x0405bc34                OSFlagMax
                0x0405bc36                OSFlagNameSize
                0x0405bc38                OSLowestPrio
                0x0405bc3a                OSMboxEn
                0x0405bc3c                OSMemEn
                0x0405bc3e                OSMemMax
                0x0405bc40                OSMemNameSize
                0x0405bc42                OSMemSize
                0x0405bc44                OSMemTblSize
                0x0405bc46                OSMutexEn
                0x0405bc48                OSPtrSize
                0x0405bc4a                OSQEn
                0x0405bc4c                OSQMax
                0x0405bc4e                OSQSize
                0x0405bc50                OSRdyTblSize
                0x0405bc52                OSSemEn
                0x0405bc54                OSStkWidth
                0x0405bc56                OSTaskCreateEn
                0x0405bc58                OSTaskCreateExtEn
                0x0405bc5a                OSTaskDelEn
                0x0405bc5c                OSTaskIdleStkSize
                0x0405bc5e                OSTaskProfileEn
                0x0405bc60                OSTaskMax
                0x0405bc62                OSTaskNameSize
                0x0405bc64                OSTaskStatEn
                0x0405bc66                OSTaskStatStkSize
                0x0405bc68                OSTaskStatStkChkEn
                0x0405bc6a                OSTaskSwHookEn
                0x0405bc6c                OSTCBPrioTblMax
                0x0405bc6e                OSTCBSize
                0x0405bc70                OSTicksPerSec
                0x0405bc72                OSTimeTickHookEn
                0x0405bc74                OSVersionNbr
                0x0405bc76                OSTmrEn
                0x0405bc78                OSTmrCfgMax
                0x0405bc7a                OSTmrCfgNameSize
                0x0405bc7c                OSTmrCfgWheelSize
                0x0405bc7e                OSTmrCfgTicksPerSec
                0x0405bc80                OSTmrSize
                0x0405bc82                OSTmrTblSize
                0x0405bc84                OSTmrWheelSize
                0x0405bc86                OSTmrWheelTblSize
                0x0405bc88                OSDataSize
 .sdata         0x0405bc8c        0x4 ../Car2X_communication_bsp/\libucosii_bsp.a(alt_sys_init.o)
                0x0405bc8c                ethernet_subsystem_tse_mac_name
 .sdata         0x0405bc90        0x8 ../Car2X_communication_bsp/\libucosii_bsp.a(altera_avalon_mutex.o)
                0x0405bc90                alt_mutex_list
 .sdata         0x0405bc98        0x8 ../Car2X_communication_bsp/\libucosii_bsp.a(altera_avalon_sgdma.o)
                0x0405bc98                alt_sgdma_list
 .sdata         0x0405bca0        0x1 ../Car2X_communication_bsp/\libucosii_bsp.a(altera_avalon_tse.o)
                0x0405bca0                max_mac_system
 *fill*         0x0405bca1        0x3 00
 .sdata         0x0405bca4        0x8 ../Car2X_communication_bsp/\libucosii_bsp.a(alt_iniche_dev.o)
                0x0405bca4                alt_iniche_dev_list
 .sdata         0x0405bcac        0x4 ../Car2X_communication_bsp/\libucosii_bsp.a(ipstart.o)
                0x0405bcac                ipmcfail_str
 .sdata         0x0405bcb0        0x4 ../Car2X_communication_bsp/\libucosii_bsp.a(cksum.o)
 .sdata         0x0405bcb4        0x4 ../Car2X_communication_bsp/\libucosii_bsp.a(netmain.o)
                0x0405bcb4                num_net_tasks
 .sdata         0x0405bcb8       0x10 ../Car2X_communication_bsp/\libucosii_bsp.a(pktalloc.o)
                0x0405bcb8                lilbufs
                0x0405bcbc                lilbufsiz
                0x0405bcc0                bigbufs
                0x0405bcc4                bigbufsiz
 .sdata         0x0405bcc8        0x4 ../Car2X_communication_bsp/\libucosii_bsp.a(brdutils.o)
                0x0405bcc8                kb_last
 .sdata         0x0405bccc        0x4 ../Car2X_communication_bsp/\libucosii_bsp.a(nptcp.o)
                0x0405bccc                TCPTV_MSL
 .sdata         0x0405bcd0        0x2 ../Car2X_communication_bsp/\libucosii_bsp.a(socket.o)
                0x0405bcd0                socket_defaults
 .sdata         0x0405bcd2        0x1 ../Car2X_communication_bsp/\libucosii_bsp.a(tcp_in.o)
                0x0405bcd2                tcprexmtthresh
 *fill*         0x0405bcd3        0x1 00
 .sdata         0x0405bcd4        0x4 ../Car2X_communication_bsp/\libucosii_bsp.a(tcp_subr.o)
                0x0405bcd4                tcp_ttl
 .sdata         0x0405bcd8        0x8 ../Car2X_communication_bsp/\libucosii_bsp.a(tcp_timr.o)
                0x0405bcd8                tcp_keepidle
                0x0405bcdc                tcp_keepintvl
 .sdata         0x0405bce0        0x8 ../Car2X_communication_bsp/\libucosii_bsp.a(tcp_usr.o)
                0x0405bce0                tcp_sendspace
                0x0405bce4                tcp_recvspace
 .sdata         0x0405bce8       0x14 ../Car2X_communication_bsp/\libucosii_bsp.a(alt_dev.o)
                0x0405bce8                alt_fs_list
                0x0405bcf0                alt_dev_list
                0x0405bcf8                alt_max_fd
 .sdata         0x0405bcfc        0x4 ../Car2X_communication_bsp/\libucosii_bsp.a(alt_errno.o)
                0x0405bcfc                alt_errno
 .sdata         0x0405bd00        0x4 ../Car2X_communication_bsp/\libucosii_bsp.a(alt_irq_vars.o)
                0x0405bd00                alt_priority_mask
 .sdata         0x0405bd04       0x10 ../Car2X_communication_bsp/\libucosii_bsp.a(allports.o)
                0x0405bd04                name
                0x0405bd08                prompt
                0x0405bd0c                pingdelay
                0x0405bd10                deflength
 .sdata         0x0405bd14        0x4 ../Car2X_communication_bsp/\libucosii_bsp.a(et_arp.o)
                0x0405bd14                arp_ageout
 .sdata         0x0405bd18        0x8 ../Car2X_communication_bsp/\libucosii_bsp.a(ip.o)
                0x0405bd1c                ipRoutes
 .sdata         0x0405bd20        0x4 ../Car2X_communication_bsp/\libucosii_bsp.a(u_mctest.o)
 .sdata         0x0405bd24        0x4 ../Car2X_communication_bsp/\libucosii_bsp.a(memdev.o)
                0x0405bd24                mdlist_size
 .sdata         0x0405bd28        0x4 ../Car2X_communication_bsp/\libucosii_bsp.a(parseip.o)
                0x0405bd28                pton_error
 .sdata         0x0405bd2c        0x4 ../Car2X_communication_bsp/\libucosii_bsp.a(vfsfiles.o)
                0x0405bd2c                http_root_path
 *(.sdata2 .sdata2.* .gnu.linkonce.s2.*)
                0x0405bd30                . = ALIGN (0x4)
                0x0405bd30                _edata = ABSOLUTE (.)
                0x0405bd30                PROVIDE (edata, ABSOLUTE (.))
                0x0405bd30                PROVIDE (__ram_rwdata_end, ABSOLUTE (.))
                0x0405bd30                PROVIDE (__flash_rwdata_start, LOADADDR (.rwdata))

.bss            0x0405dca0     0x72a8
                0x0405dca0                __bss_start = ABSOLUTE (.)
                0x0405dca0                PROVIDE (__sbss_start, ABSOLUTE (.))
                0x0405dca0                PROVIDE (___sbss_start, ABSOLUTE (.))
 *(.dynsbss)
 *(.sbss .sbss.* .gnu.linkonce.sb.*)
 .sbss          0x0405dca0        0x1 obj/default/main.o
                0x0405dca0                to_ssstask
 *fill*         0x0405dca1        0x3 00
 .sbss          0x0405dca4        0x8 obj/default/network_utilities.o
                0x0405dca4                last_flash_sector_offset
                0x0405dca8                last_flash_sector
 .sbss          0x0405dcac        0x1 obj/default/external_drivers/accelerometer_interface.o
                0x0405dcac                bSPIReady
 *fill*         0x0405dcad        0x3 00
 .sbss          0x0405dcb0        0x4 c:/altera/12.1/nios2eds/bin/gnu/h-i686-mingw32/bin/../lib/gcc/nios2-elf/4.1.2/../../../../nios2-elf/lib\libstdc++.a(eh_alloc.o)
 .sbss          0x0405dcb4        0x8 c:/altera/12.1/nios2eds/bin/gnu/h-i686-mingw32/bin/../lib/gcc/nios2-elf/4.1.2/../../../../nios2-elf/lib\libstdc++.a(eh_globals.o)
 .sbss          0x0405dcbc        0x4 c:/altera/12.1/nios2eds/bin/gnu/h-i686-mingw32/bin/../lib/gcc/nios2-elf/4.1.2/../../../../nios2-elf/lib\libstdc++.a(new_handler.o)
                0x0405dcbc                __new_handler
 .sbss          0x0405dcc0        0x4 c:/altera/12.1/nios2eds/bin/gnu/h-i686-mingw32/bin/../lib/gcc/nios2-elf/4.1.2\libgcc.a(unwind-sjlj.o)
 .sbss          0x0405dcc4        0xc c:/altera/12.1/nios2eds/bin/gnu/h-i686-mingw32/bin/../lib/gcc/nios2-elf/4.1.2/../../../../nios2-elf/lib\libc.a(lib_a-mallocr.o)
                0x0405dcc4                __malloc_top_pad
                0x0405dcc8                __malloc_max_sbrked_mem
                0x0405dccc                __malloc_max_total_mem
 .sbss          0x0405dcd0        0x4 c:/altera/12.1/nios2eds/bin/gnu/h-i686-mingw32/bin/../lib/gcc/nios2-elf/4.1.2/../../../../nios2-elf/lib\libc.a(lib_a-int_errno.o)
                0x0405dcd0                errno
 .sbss          0x0405dcd4        0xc c:/altera/12.1/nios2eds/bin/gnu/h-i686-mingw32/bin/../lib/gcc/nios2-elf/4.1.2/../../../../nios2-elf/lib\libc.a(lib_a-locale.o)
                0x0405dcd4                __nlocale_changed
                0x0405dcd8                __mlocale_changed
                0x0405dcdc                _PathLocale
 .sbss          0x0405dce0        0xc ../Car2X_communication_bsp/\libucosii_bsp.a(alt_main.o)
                0x0405dce0                alt_argc
                0x0405dce4                alt_argv
                0x0405dce8                alt_envp
 .sbss          0x0405dcec        0x8 ../Car2X_communication_bsp/\libucosii_bsp.a(alt_tick.o)
                0x0405dcec                _alt_tick_rate
                0x0405dcf0                _alt_nticks
 .sbss          0x0405dcf4        0x8 ../Car2X_communication_bsp/\libucosii_bsp.a(alt_env_lock.o)
                0x0405dcf8                alt_envsem
 .sbss          0x0405dcfc        0x8 ../Car2X_communication_bsp/\libucosii_bsp.a(alt_malloc_lock.o)
                0x0405dd00                alt_heapsem
 .sbss          0x0405dd04       0x50 ../Car2X_communication_bsp/\libucosii_bsp.a(os_core.o)
                0x0405dd04                OSLockNesting
                0x0405dd05                OSRunning
                0x0405dd08                OSIdleCtr
                0x0405dd0c                OSPrioHighRdy
                0x0405dd0d                OSPrioCur
                0x0405dd10                OSTCBList
                0x0405dd14                OSTickStepState
                0x0405dd18                OSCtxSwCtr
                0x0405dd1c                OSIdleCtrMax
                0x0405dd20                OSTCBFreeList
                0x0405dd24                OSCPUUsage
                0x0405dd25                OSTaskCtr
                0x0405dd28                OSMemFreeList
                0x0405dd2c                OSTCBHighRdy
                0x0405dd30                OSQFreeList
                0x0405dd34                OSRdyGrp
                0x0405dd35                OSRdyTbl
                0x0405dd38                OSEventFreeList
                0x0405dd3c                OSIntNesting
                0x0405dd40                OSTCBCur
                0x0405dd44                OSTime
                0x0405dd48                OSFlagFreeList
                0x0405dd4c                OSStatRdy
                0x0405dd50                OSIdleCtrRun
 .sbss          0x0405dd54        0x4 ../Car2X_communication_bsp/\libucosii_bsp.a(altera_avalon_tse.o)
                0x0405dd54                phy_profile_count
                0x0405dd55                mac_group_count
 .sbss          0x0405dd58        0x1 ../Car2X_communication_bsp/\libucosii_bsp.a(ins_tse_mac.o)
                0x0405dd58                number_of_tse_mac
 *fill*         0x0405dd59        0x3 00
 .sbss          0x0405dd5c        0xc ../Car2X_communication_bsp/\libucosii_bsp.a(ipnet.o)
                0x0405dd5c                MaxLnh
                0x0405dd60                MaxMtu
                0x0405dd64                NDEBUG
 .sbss          0x0405dd68        0x8 ../Car2X_communication_bsp/\libucosii_bsp.a(ipstart.o)
                0x0405dd68                ifNumber
 .sbss          0x0405dd70       0x10 ../Car2X_communication_bsp/\libucosii_bsp.a(igmp_cmn.o)
                0x0405dd70                igmp_timers_are_running
                0x0405dd74                igmp_cticks
                0x0405dd78                igmp_all_hosts_group
                0x0405dd7c                igmp_all_rtrs_group
 .sbss          0x0405dd80        0xe ../Car2X_communication_bsp/\libucosii_bsp.a(netmain.o)
                0x0405dd80                netmain_wakes
                0x0405dd84                nettick_wakes
                0x0405dd88                iniche_net_ready
                0x0405dd8c                to_netmain
                0x0405dd8d                to_nettick
 *fill*         0x0405dd8e        0x2 00
 .sbss          0x0405dd90        0x4 ../Car2X_communication_bsp/\libucosii_bsp.a(tk_crnos.o)
                0x0405dd90                tcp_sleep_timeout
 .sbss          0x0405dd94       0x18 ../Car2X_communication_bsp/\libucosii_bsp.a(brdutils.o)
                0x0405dd98                cticks_initialized
                0x0405dd9c                irq_level
                0x0405dda4                cticks_factor
                0x0405dda8                OS_TPS
 .sbss          0x0405ddac       0x18 ../Car2X_communication_bsp/\libucosii_bsp.a(osportco.o)
                0x0405ddac                tcp_sleep_count
                0x0405ddb0                tcp_wakeup_count
                0x0405ddb4                netq_intmask
                0x0405ddb8                old_mode
                0x0405ddbc                global_TCPwakeup_setIndx
                0x0405ddc0                cticks
 .sbss          0x0405ddc4        0xc ../Car2X_communication_bsp/\libucosii_bsp.a(targnios.o)
                0x0405ddc4                memtrapsize
                0x0405ddc8                mheap_sem_ptr
                0x0405ddcc                rcvdq_sem_ptr
 .sbss          0x0405ddd0       0x12 ../Car2X_communication_bsp/\libucosii_bsp.a(nptcp.o)
                0x0405ddd0                nextslow
                0x0405ddd8                mbstat
                0x0405dde0                select_wait
 *fill*         0x0405dde2        0x2 00
 .sbss          0x0405dde4        0x8 ../Car2X_communication_bsp/\libucosii_bsp.a(tcp_in.o)
                0x0405dde4                tcpprintfs
                0x0405dde8                dropline
 .sbss          0x0405ddec        0x4 ../Car2X_communication_bsp/\libucosii_bsp.a(tcp_out.o)
                0x0405ddec                tcp_optionbuf
 .sbss          0x0405ddf0        0x8 ../Car2X_communication_bsp/\libucosii_bsp.a(tcp_timr.o)
                0x0405ddf0                tcp_maxidle
                0x0405ddf4                tcp_iss
 .sbss          0x0405ddf8        0x4 ../Car2X_communication_bsp/\libucosii_bsp.a(alt_dev.o)
                0x0405ddf8                alt_fd_list_lock
 .sbss          0x0405ddfc        0x4 ../Car2X_communication_bsp/\libucosii_bsp.a(alt_irq_vars.o)
                0x0405ddfc                alt_irq_active
 .sbss          0x0405de00        0x8 ../Car2X_communication_bsp/\libucosii_bsp.a(allports.o)
                0x0405de00                activehost
 .sbss          0x0405de08        0xc ../Car2X_communication_bsp/\libucosii_bsp.a(timeouts.o)
                0x0405de08                nextppp
                0x0405de0c                port_1s_callout
 .sbss          0x0405de14       0x1c ../Car2X_communication_bsp/\libucosii_bsp.a(et_arp.o)
                0x0405de18                arpcache
                0x0405de1c                arpReqsIn
                0x0405de20                arpReqsOut
                0x0405de24                arpRepsIn
                0x0405de28                arpRepsOut
 .sbss          0x0405de30        0x4 ../Car2X_communication_bsp/\libucosii_bsp.a(ip.o)
                0x0405de30                rt_mib
 .sbss          0x0405de34        0xc ../Car2X_communication_bsp/\libucosii_bsp.a(ip_reasm.o)
                0x0405de34                ipr_curr_mem
                0x0405de38                h_ireq
                0x0405de3c                ire_cticks
 .sbss          0x0405de40       0x11 ../Car2X_communication_bsp/\libucosii_bsp.a(ipport.o)
                0x0405de40                port_prep
                0x0405de44                net_system_exit
                0x0405de48                so_evtmap_create
                0x0405de4c                so_evtmap_delete
                0x0405de50                so_evtmap
 *fill*         0x0405de51        0x3 00
 .sbss          0x0405de54        0x4 ../Car2X_communication_bsp/\libucosii_bsp.a(ipraw.o)
                0x0405de54                ipraw_eps
 .sbss          0x0405de58        0x4 ../Car2X_communication_bsp/\libucosii_bsp.a(iproute.o)
                0x0405de58                cachedRoute
 .sbss          0x0405de5c        0x2 ../Car2X_communication_bsp/\libucosii_bsp.a(udp.o)
 *fill*         0x0405de5e        0x2 00
 .sbss          0x0405de60        0x4 ../Car2X_communication_bsp/\libucosii_bsp.a(udp_open.o)
                0x0405de60                firstudp
 .sbss          0x0405de64        0x8 ../Car2X_communication_bsp/\libucosii_bsp.a(in_pcb.o)
                0x0405de64                inpcb_cachehits
                0x0405de68                inpcb_cachemiss
 .sbss          0x0405de6c       0x20 ../Car2X_communication_bsp/\libucosii_bsp.a(vfsfiles.o)
                0x0405de6c                vfsystems
                0x0405de70                vfiles
                0x0405de74                vfsfiles
                0x0405de78                vfopen_error
                0x0405de7c                vfs_dir_stale
                0x0405de80                vfs_open_files
                0x0405de84                vfs_total_rw_space
                0x0405de88                vfs_total_dyna_files
 .sbss          0x0405de8c        0x4 ../Car2X_communication_bsp/\libucosii_bsp.a(icmp.o)
                0x0405de8c                icmpdu_hook
 *(.sbss2 .sbss2.* .gnu.linkonce.sb2.*)
 *(.scommon)
                0x0405de90                PROVIDE (__sbss_end, ABSOLUTE (.))
                0x0405de90                PROVIDE (___sbss_end, ABSOLUTE (.))
 *(.dynbss)
 *(.bss .bss.* .gnu.linkonce.b.*)
 .bss           0x0405de90        0x0 ../Car2X_communication_bsp//obj/HAL/src/crt0.o
 .bss           0x0405de90        0x0 obj/default/alt_error_handler.o
 .bss           0x0405de90        0x0 obj/default/main.o
 .bss           0x0405de90        0x0 obj/default/network_utilities.o
 .bss           0x0405de90        0x0 obj/default/tse_my_system.o
 .bss           0x0405de90        0x0 obj/default/COMM_CarProtocol/ADCInfoMessage.o
 .bss           0x0405de90        0x0 obj/default/COMM_CarProtocol/ADCValuesMessage.o
 .bss           0x0405de90        0x0 obj/default/COMM_CarProtocol/AccelerationValuesMessage.o
 .bss           0x0405de90        0x0 obj/default/COMM_CarProtocol/CarMessage.o
 .bss           0x0405de90        0x0 obj/default/COMM_CarProtocol/CarProtocol.o
 .bss           0x0405de90        0x0 obj/default/COMM_CarProtocol/MotorMeasurementMessage.o
 .bss           0x0405de90        0x0 obj/default/COMM_CarProtocol/MotorVelocityMessage.o
 .bss           0x0405de90        0x0 obj/default/COMM_CarProtocol/UltrasoundDistanceMessage.o
 .bss           0x0405de90        0x0 obj/default/COMM_CarProtocol/WelcomeMessage.o
 .bss           0x0405de90        0x0 obj/default/CarMessages/CControlMessage.o
 .bss           0x0405de90        0x0 obj/default/CarMessages/CEmergencyBrakeMessage.o
 .bss           0x0405de90        0x0 obj/default/etc/utility.o
 .bss           0x0405de90        0x0 obj/default/external_drivers/accelerometer_interface.o
 .bss           0x0405de90        0x0 obj/default/external_drivers/adc_interface.o
 .bss           0x0405de90        0x0 obj/default/external_drivers/ultrasound_interface.o
 .bss           0x0405de90        0x0 obj/default/sensors/ADCSensor.o
 .bss           0x0405de90        0x0 obj/default/sensors/AccelerationSensor.o
 .bss           0x0405de90        0x0 obj/default/sensors/SensorState.o
 .bss           0x0405de90        0x0 obj/default/sensors/UltrasoundSensor.o
 .bss           0x0405de90      0x5ec obj/default/socketserver.o
 .bss           0x0405e47c        0x0 obj/default/terasic_lib/I2C.o
 .bss           0x0405e47c        0x0 obj/default/terasic_lib/accelerometer_adxl345_spi.o
 .bss           0x0405e47c        0x0 obj/default/terasic_lib/adc_spi_read.o
 .bss           0x0405e47c        0x0 obj/default/terasic_lib/terasic_spi.o
 .bss           0x0405e47c        0x0 c:/altera/12.1/nios2eds/bin/gnu/h-i686-mingw32/bin/../lib/gcc/nios2-elf/4.1.2/../../../../nios2-elf/lib\libstdc++.a(eh_personality.o)
 .bss           0x0405e47c        0x0 c:/altera/12.1/nios2eds/bin/gnu/h-i686-mingw32/bin/../lib/gcc/nios2-elf/4.1.2/../../../../nios2-elf/lib\libstdc++.a(eh_exception.o)
 .bss           0x0405e47c        0x0 c:/altera/12.1/nios2eds/bin/gnu/h-i686-mingw32/bin/../lib/gcc/nios2-elf/4.1.2/../../../../nios2-elf/lib\libstdc++.a(del_op.o)
 .bss           0x0405e47c        0x0 c:/altera/12.1/nios2eds/bin/gnu/h-i686-mingw32/bin/../lib/gcc/nios2-elf/4.1.2/../../../../nios2-elf/lib\libstdc++.a(eh_call.o)
 .bss           0x0405e47c        0x0 c:/altera/12.1/nios2eds/bin/gnu/h-i686-mingw32/bin/../lib/gcc/nios2-elf/4.1.2/../../../../nios2-elf/lib\libstdc++.a(class_type_info.o)
 .bss           0x0405e47c        0x0 c:/altera/12.1/nios2eds/bin/gnu/h-i686-mingw32/bin/../lib/gcc/nios2-elf/4.1.2/../../../../nios2-elf/lib\libstdc++.a(new_op.o)
 .bss           0x0405e47c        0x0 c:/altera/12.1/nios2eds/bin/gnu/h-i686-mingw32/bin/../lib/gcc/nios2-elf/4.1.2/../../../../nios2-elf/lib\libstdc++.a(si_class_type_info.o)
 .bss           0x0405e47c      0x800 c:/altera/12.1/nios2eds/bin/gnu/h-i686-mingw32/bin/../lib/gcc/nios2-elf/4.1.2/../../../../nios2-elf/lib\libstdc++.a(eh_alloc.o)
 .bss           0x0405ec7c        0x0 c:/altera/12.1/nios2eds/bin/gnu/h-i686-mingw32/bin/../lib/gcc/nios2-elf/4.1.2/../../../../nios2-elf/lib\libstdc++.a(tinfo.o)
 .bss           0x0405ec7c        0x0 c:/altera/12.1/nios2eds/bin/gnu/h-i686-mingw32/bin/../lib/gcc/nios2-elf/4.1.2/../../../../nios2-elf/lib\libstdc++.a(eh_throw.o)
 .bss           0x0405ec7c        0x0 c:/altera/12.1/nios2eds/bin/gnu/h-i686-mingw32/bin/../lib/gcc/nios2-elf/4.1.2/../../../../nios2-elf/lib\libstdc++.a(eh_terminate.o)
 .bss           0x0405ec7c        0x0 c:/altera/12.1/nios2eds/bin/gnu/h-i686-mingw32/bin/../lib/gcc/nios2-elf/4.1.2/../../../../nios2-elf/lib\libstdc++.a(eh_globals.o)
 .bss           0x0405ec7c        0x0 c:/altera/12.1/nios2eds/bin/gnu/h-i686-mingw32/bin/../lib/gcc/nios2-elf/4.1.2/../../../../nios2-elf/lib\libstdc++.a(eh_unex_handler.o)
 .bss           0x0405ec7c        0x0 c:/altera/12.1/nios2eds/bin/gnu/h-i686-mingw32/bin/../lib/gcc/nios2-elf/4.1.2/../../../../nios2-elf/lib\libstdc++.a(new_handler.o)
 .bss           0x0405ec7c        0x0 c:/altera/12.1/nios2eds/bin/gnu/h-i686-mingw32/bin/../lib/gcc/nios2-elf/4.1.2/../../../../nios2-elf/lib\libstdc++.a(eh_catch.o)
 .bss           0x0405ec7c        0x0 c:/altera/12.1/nios2eds/bin/gnu/h-i686-mingw32/bin/../lib/gcc/nios2-elf/4.1.2/../../../../nios2-elf/lib\libstdc++.a(eh_term_handler.o)
 .bss           0x0405ec7c        0x0 c:/altera/12.1/nios2eds/bin/gnu/h-i686-mingw32/bin/../lib/gcc/nios2-elf/4.1.2\libgcc.a(lib2-divmod.o)
 .bss           0x0405ec7c        0x0 c:/altera/12.1/nios2eds/bin/gnu/h-i686-mingw32/bin/../lib/gcc/nios2-elf/4.1.2\libgcc.a(unwind-sjlj.o)
 .bss           0x0405ec7c        0x0 c:/altera/12.1/nios2eds/bin/gnu/h-i686-mingw32/bin/../lib/gcc/nios2-elf/4.1.2/../../../../nios2-elf/lib\libc.a(lib_a-abort.o)
 .bss           0x0405ec7c        0x0 c:/altera/12.1/nios2eds/bin/gnu/h-i686-mingw32/bin/../lib/gcc/nios2-elf/4.1.2/../../../../nios2-elf/lib\libc.a(lib_a-ctype_.o)
 .bss           0x0405ec7c        0x0 c:/altera/12.1/nios2eds/bin/gnu/h-i686-mingw32/bin/../lib/gcc/nios2-elf/4.1.2/../../../../nios2-elf/lib\libc.a(lib_a-fprintf.o)
 .bss           0x0405ec7c        0x0 c:/altera/12.1/nios2eds/bin/gnu/h-i686-mingw32/bin/../lib/gcc/nios2-elf/4.1.2/../../../../nios2-elf/lib\libc.a(lib_a-fwrite.o)
 .bss           0x0405ec7c        0x0 c:/altera/12.1/nios2eds/bin/gnu/h-i686-mingw32/bin/../lib/gcc/nios2-elf/4.1.2/../../../../nios2-elf/lib\libc.a(lib_a-getc.o)
 .bss           0x0405ec7c        0x0 c:/altera/12.1/nios2eds/bin/gnu/h-i686-mingw32/bin/../lib/gcc/nios2-elf/4.1.2/../../../../nios2-elf/lib\libc.a(lib_a-impure.o)
 .bss           0x0405ec7c        0x0 c:/altera/12.1/nios2eds/bin/gnu/h-i686-mingw32/bin/../lib/gcc/nios2-elf/4.1.2/../../../../nios2-elf/lib\libc.a(lib_a-malloc.o)
 .bss           0x0405ec7c       0x28 c:/altera/12.1/nios2eds/bin/gnu/h-i686-mingw32/bin/../lib/gcc/nios2-elf/4.1.2/../../../../nios2-elf/lib\libc.a(lib_a-mallocr.o)
                0x0405ec7c                __malloc_current_mallinfo
 .bss           0x0405eca4        0x0 c:/altera/12.1/nios2eds/bin/gnu/h-i686-mingw32/bin/../lib/gcc/nios2-elf/4.1.2/../../../../nios2-elf/lib\libc.a(lib_a-memmove.o)
 .bss           0x0405eca4        0x0 c:/altera/12.1/nios2eds/bin/gnu/h-i686-mingw32/bin/../lib/gcc/nios2-elf/4.1.2/../../../../nios2-elf/lib\libc.a(lib_a-memset.o)
 .bss           0x0405eca4        0x0 c:/altera/12.1/nios2eds/bin/gnu/h-i686-mingw32/bin/../lib/gcc/nios2-elf/4.1.2/../../../../nios2-elf/lib\libc.a(lib_a-perror.o)
 .bss           0x0405eca4        0x0 c:/altera/12.1/nios2eds/bin/gnu/h-i686-mingw32/bin/../lib/gcc/nios2-elf/4.1.2/../../../../nios2-elf/lib\libc.a(lib_a-printf.o)
 .bss           0x0405eca4        0x0 c:/altera/12.1/nios2eds/bin/gnu/h-i686-mingw32/bin/../lib/gcc/nios2-elf/4.1.2/../../../../nios2-elf/lib\libc.a(lib_a-putc.o)
 .bss           0x0405eca4        0x0 c:/altera/12.1/nios2eds/bin/gnu/h-i686-mingw32/bin/../lib/gcc/nios2-elf/4.1.2/../../../../nios2-elf/lib\libc.a(lib_a-putchar.o)
 .bss           0x0405eca4        0x0 c:/altera/12.1/nios2eds/bin/gnu/h-i686-mingw32/bin/../lib/gcc/nios2-elf/4.1.2/../../../../nios2-elf/lib\libc.a(lib_a-puts.o)
 .bss           0x0405eca4        0x0 c:/altera/12.1/nios2eds/bin/gnu/h-i686-mingw32/bin/../lib/gcc/nios2-elf/4.1.2/../../../../nios2-elf/lib\libc.a(lib_a-rget.o)
 .bss           0x0405eca4        0x0 c:/altera/12.1/nios2eds/bin/gnu/h-i686-mingw32/bin/../lib/gcc/nios2-elf/4.1.2/../../../../nios2-elf/lib\libc.a(lib_a-sbrkr.o)
 .bss           0x0405eca4        0x0 c:/altera/12.1/nios2eds/bin/gnu/h-i686-mingw32/bin/../lib/gcc/nios2-elf/4.1.2/../../../../nios2-elf/lib\libc.a(lib_a-signal.o)
 .bss           0x0405eca4        0x0 c:/altera/12.1/nios2eds/bin/gnu/h-i686-mingw32/bin/../lib/gcc/nios2-elf/4.1.2/../../../../nios2-elf/lib\libc.a(lib_a-signalr.o)
 .bss           0x0405eca4        0x0 c:/altera/12.1/nios2eds/bin/gnu/h-i686-mingw32/bin/../lib/gcc/nios2-elf/4.1.2/../../../../nios2-elf/lib\libc.a(lib_a-strerror.o)
 .bss           0x0405eca4        0x0 c:/altera/12.1/nios2eds/bin/gnu/h-i686-mingw32/bin/../lib/gcc/nios2-elf/4.1.2/../../../../nios2-elf/lib\libc.a(lib_a-strlen.o)
 .bss           0x0405eca4        0x0 c:/altera/12.1/nios2eds/bin/gnu/h-i686-mingw32/bin/../lib/gcc/nios2-elf/4.1.2/../../../../nios2-elf/lib\libc.a(lib_a-u_strerr.o)
 .bss           0x0405eca4        0x0 c:/altera/12.1/nios2eds/bin/gnu/h-i686-mingw32/bin/../lib/gcc/nios2-elf/4.1.2/../../../../nios2-elf/lib\libc.a(lib_a-vfprintf.o)
 .bss           0x0405eca4        0x0 c:/altera/12.1/nios2eds/bin/gnu/h-i686-mingw32/bin/../lib/gcc/nios2-elf/4.1.2/../../../../nios2-elf/lib\libc.a(lib_a-wbuf.o)
 .bss           0x0405eca4        0x0 c:/altera/12.1/nios2eds/bin/gnu/h-i686-mingw32/bin/../lib/gcc/nios2-elf/4.1.2/../../../../nios2-elf/lib\libc.a(lib_a-wsetup.o)
 .bss           0x0405eca4        0x0 c:/altera/12.1/nios2eds/bin/gnu/h-i686-mingw32/bin/../lib/gcc/nios2-elf/4.1.2/../../../../nios2-elf/lib\libc.a(lib_a-dtoa.o)
 .bss           0x0405eca4        0x0 c:/altera/12.1/nios2eds/bin/gnu/h-i686-mingw32/bin/../lib/gcc/nios2-elf/4.1.2/../../../../nios2-elf/lib\libc.a(lib_a-fflush.o)
 .bss           0x0405eca4        0x0 c:/altera/12.1/nios2eds/bin/gnu/h-i686-mingw32/bin/../lib/gcc/nios2-elf/4.1.2/../../../../nios2-elf/lib\libc.a(lib_a-findfp.o)
 .bss           0x0405eca4        0x0 c:/altera/12.1/nios2eds/bin/gnu/h-i686-mingw32/bin/../lib/gcc/nios2-elf/4.1.2/../../../../nios2-elf/lib\libc.a(lib_a-fputc.o)
 .bss           0x0405eca4        0x0 c:/altera/12.1/nios2eds/bin/gnu/h-i686-mingw32/bin/../lib/gcc/nios2-elf/4.1.2/../../../../nios2-elf/lib\libc.a(lib_a-fputs.o)
 .bss           0x0405eca4        0x0 c:/altera/12.1/nios2eds/bin/gnu/h-i686-mingw32/bin/../lib/gcc/nios2-elf/4.1.2/../../../../nios2-elf/lib\libc.a(lib_a-freer.o)
 .bss           0x0405eca4        0x0 c:/altera/12.1/nios2eds/bin/gnu/h-i686-mingw32/bin/../lib/gcc/nios2-elf/4.1.2/../../../../nios2-elf/lib\libc.a(lib_a-fvwrite.o)
 .bss           0x0405eca4        0x0 c:/altera/12.1/nios2eds/bin/gnu/h-i686-mingw32/bin/../lib/gcc/nios2-elf/4.1.2/../../../../nios2-elf/lib\libc.a(lib_a-fwalk.o)
 .bss           0x0405eca4        0x0 c:/altera/12.1/nios2eds/bin/gnu/h-i686-mingw32/bin/../lib/gcc/nios2-elf/4.1.2/../../../../nios2-elf/lib\libc.a(lib_a-int_errno.o)
 .bss           0x0405eca4        0x0 c:/altera/12.1/nios2eds/bin/gnu/h-i686-mingw32/bin/../lib/gcc/nios2-elf/4.1.2/../../../../nios2-elf/lib\libc.a(lib_a-locale.o)
 .bss           0x0405eca4        0x0 c:/altera/12.1/nios2eds/bin/gnu/h-i686-mingw32/bin/../lib/gcc/nios2-elf/4.1.2/../../../../nios2-elf/lib\libc.a(lib_a-makebuf.o)
 .bss           0x0405eca4        0x0 c:/altera/12.1/nios2eds/bin/gnu/h-i686-mingw32/bin/../lib/gcc/nios2-elf/4.1.2/../../../../nios2-elf/lib\libc.a(lib_a-memchr.o)
 .bss           0x0405eca4        0x0 c:/altera/12.1/nios2eds/bin/gnu/h-i686-mingw32/bin/../lib/gcc/nios2-elf/4.1.2/../../../../nios2-elf/lib\libc.a(lib_a-memcpy.o)
 .bss           0x0405eca4        0x0 c:/altera/12.1/nios2eds/bin/gnu/h-i686-mingw32/bin/../lib/gcc/nios2-elf/4.1.2/../../../../nios2-elf/lib\libc.a(lib_a-mprec.o)
 .bss           0x0405eca4        0x0 c:/altera/12.1/nios2eds/bin/gnu/h-i686-mingw32/bin/../lib/gcc/nios2-elf/4.1.2/../../../../nios2-elf/lib\libc.a(lib_a-reallocr.o)
 .bss           0x0405eca4        0x0 c:/altera/12.1/nios2eds/bin/gnu/h-i686-mingw32/bin/../lib/gcc/nios2-elf/4.1.2/../../../../nios2-elf/lib\libc.a(lib_a-refill.o)
 .bss           0x0405eca4        0x0 c:/altera/12.1/nios2eds/bin/gnu/h-i686-mingw32/bin/../lib/gcc/nios2-elf/4.1.2/../../../../nios2-elf/lib\libc.a(lib_a-s_isinfd.o)
 .bss           0x0405eca4        0x0 c:/altera/12.1/nios2eds/bin/gnu/h-i686-mingw32/bin/../lib/gcc/nios2-elf/4.1.2/../../../../nios2-elf/lib\libc.a(lib_a-s_isnand.o)
 .bss           0x0405eca4        0x0 c:/altera/12.1/nios2eds/bin/gnu/h-i686-mingw32/bin/../lib/gcc/nios2-elf/4.1.2/../../../../nios2-elf/lib\libc.a(lib_a-stdio.o)
 .bss           0x0405eca4        0x0 c:/altera/12.1/nios2eds/bin/gnu/h-i686-mingw32/bin/../lib/gcc/nios2-elf/4.1.2/../../../../nios2-elf/lib\libc.a(lib_a-strcmp.o)
 .bss           0x0405eca4        0x0 c:/altera/12.1/nios2eds/bin/gnu/h-i686-mingw32/bin/../lib/gcc/nios2-elf/4.1.2/../../../../nios2-elf/lib\libc.a(lib_a-writer.o)
 .bss           0x0405eca4        0x0 c:/altera/12.1/nios2eds/bin/gnu/h-i686-mingw32/bin/../lib/gcc/nios2-elf/4.1.2/../../../../nios2-elf/lib\libc.a(lib_a-callocr.o)
 .bss           0x0405eca4        0x0 c:/altera/12.1/nios2eds/bin/gnu/h-i686-mingw32/bin/../lib/gcc/nios2-elf/4.1.2/../../../../nios2-elf/lib\libc.a(lib_a-closer.o)
 .bss           0x0405eca4        0x0 c:/altera/12.1/nios2eds/bin/gnu/h-i686-mingw32/bin/../lib/gcc/nios2-elf/4.1.2/../../../../nios2-elf/lib\libc.a(lib_a-fclose.o)
 .bss           0x0405eca4        0x0 c:/altera/12.1/nios2eds/bin/gnu/h-i686-mingw32/bin/../lib/gcc/nios2-elf/4.1.2/../../../../nios2-elf/lib\libc.a(lib_a-fstatr.o)
 .bss           0x0405eca4        0x0 c:/altera/12.1/nios2eds/bin/gnu/h-i686-mingw32/bin/../lib/gcc/nios2-elf/4.1.2/../../../../nios2-elf/lib\libc.a(lib_a-isattyr.o)
 .bss           0x0405eca4        0x0 c:/altera/12.1/nios2eds/bin/gnu/h-i686-mingw32/bin/../lib/gcc/nios2-elf/4.1.2/../../../../nios2-elf/lib\libc.a(lib_a-lseekr.o)
 .bss           0x0405eca4        0x0 c:/altera/12.1/nios2eds/bin/gnu/h-i686-mingw32/bin/../lib/gcc/nios2-elf/4.1.2/../../../../nios2-elf/lib\libc.a(lib_a-readr.o)
 .bss           0x0405eca4        0x0 c:/altera/12.1/nios2eds/bin/gnu/h-i686-mingw32/bin/../lib/gcc/nios2-elf/4.1.2\libgcc.a(_udivdi3.o)
 .bss           0x0405eca4        0x0 c:/altera/12.1/nios2eds/bin/gnu/h-i686-mingw32/bin/../lib/gcc/nios2-elf/4.1.2\libgcc.a(_umoddi3.o)
 .bss           0x0405eca4        0x0 c:/altera/12.1/nios2eds/bin/gnu/h-i686-mingw32/bin/../lib/gcc/nios2-elf/4.1.2\libgcc.a(_addsub_df.o)
 .bss           0x0405eca4        0x0 c:/altera/12.1/nios2eds/bin/gnu/h-i686-mingw32/bin/../lib/gcc/nios2-elf/4.1.2\libgcc.a(_mul_df.o)
 .bss           0x0405eca4        0x0 c:/altera/12.1/nios2eds/bin/gnu/h-i686-mingw32/bin/../lib/gcc/nios2-elf/4.1.2\libgcc.a(_div_df.o)
 .bss           0x0405eca4        0x0 c:/altera/12.1/nios2eds/bin/gnu/h-i686-mingw32/bin/../lib/gcc/nios2-elf/4.1.2\libgcc.a(_eq_df.o)
 .bss           0x0405eca4        0x0 c:/altera/12.1/nios2eds/bin/gnu/h-i686-mingw32/bin/../lib/gcc/nios2-elf/4.1.2\libgcc.a(_ne_df.o)
 .bss           0x0405eca4        0x0 c:/altera/12.1/nios2eds/bin/gnu/h-i686-mingw32/bin/../lib/gcc/nios2-elf/4.1.2\libgcc.a(_gt_df.o)
 .bss           0x0405eca4        0x0 c:/altera/12.1/nios2eds/bin/gnu/h-i686-mingw32/bin/../lib/gcc/nios2-elf/4.1.2\libgcc.a(_ge_df.o)
 .bss           0x0405eca4        0x0 c:/altera/12.1/nios2eds/bin/gnu/h-i686-mingw32/bin/../lib/gcc/nios2-elf/4.1.2\libgcc.a(_lt_df.o)
 .bss           0x0405eca4        0x0 c:/altera/12.1/nios2eds/bin/gnu/h-i686-mingw32/bin/../lib/gcc/nios2-elf/4.1.2\libgcc.a(_si_to_df.o)
 .bss           0x0405eca4        0x0 c:/altera/12.1/nios2eds/bin/gnu/h-i686-mingw32/bin/../lib/gcc/nios2-elf/4.1.2\libgcc.a(_df_to_si.o)
 .bss           0x0405eca4        0x0 c:/altera/12.1/nios2eds/bin/gnu/h-i686-mingw32/bin/../lib/gcc/nios2-elf/4.1.2\libgcc.a(_thenan_df.o)
 .bss           0x0405eca4        0x0 c:/altera/12.1/nios2eds/bin/gnu/h-i686-mingw32/bin/../lib/gcc/nios2-elf/4.1.2\libgcc.a(_usi_to_df.o)
 .bss           0x0405eca4        0x0 c:/altera/12.1/nios2eds/bin/gnu/h-i686-mingw32/bin/../lib/gcc/nios2-elf/4.1.2\libgcc.a(_muldi3.o)
 .bss           0x0405eca4        0x0 c:/altera/12.1/nios2eds/bin/gnu/h-i686-mingw32/bin/../lib/gcc/nios2-elf/4.1.2\libgcc.a(_clz.o)
 .bss           0x0405eca4        0x0 c:/altera/12.1/nios2eds/bin/gnu/h-i686-mingw32/bin/../lib/gcc/nios2-elf/4.1.2\libgcc.a(_clzsi2.o)
 .bss           0x0405eca4        0x0 c:/altera/12.1/nios2eds/bin/gnu/h-i686-mingw32/bin/../lib/gcc/nios2-elf/4.1.2\libgcc.a(_pack_df.o)
 .bss           0x0405eca4        0x0 c:/altera/12.1/nios2eds/bin/gnu/h-i686-mingw32/bin/../lib/gcc/nios2-elf/4.1.2\libgcc.a(_unpack_df.o)
 .bss           0x0405eca4        0x0 c:/altera/12.1/nios2eds/bin/gnu/h-i686-mingw32/bin/../lib/gcc/nios2-elf/4.1.2\libgcc.a(_fpcmp_parts_df.o)
 .bss           0x0405eca4        0x0 ../Car2X_communication_bsp/\libucosii_bsp.a(alt_exit.o)
 .bss           0x0405eca4        0x0 ../Car2X_communication_bsp/\libucosii_bsp.a(alt_fstat.o)
 .bss           0x0405eca4        0x0 ../Car2X_communication_bsp/\libucosii_bsp.a(alt_getpid.o)
 .bss           0x0405eca4        0x0 ../Car2X_communication_bsp/\libucosii_bsp.a(alt_isatty.o)
 .bss           0x0405eca4        0x0 ../Car2X_communication_bsp/\libucosii_bsp.a(alt_kill.o)
 .bss           0x0405eca4        0x0 ../Car2X_communication_bsp/\libucosii_bsp.a(alt_load.o)
 .bss           0x0405eca4        0x0 ../Car2X_communication_bsp/\libucosii_bsp.a(alt_lseek.o)
 .bss           0x0405eca4        0x0 ../Car2X_communication_bsp/\libucosii_bsp.a(alt_main.o)
 .bss           0x0405eca4        0x0 ../Car2X_communication_bsp/\libucosii_bsp.a(alt_sbrk.o)
 .bss           0x0405eca4        0x0 ../Car2X_communication_bsp/\libucosii_bsp.a(alt_tick.o)
 .bss           0x0405eca4        0x0 ../Car2X_communication_bsp/\libucosii_bsp.a(alt_usleep.o)
 .bss           0x0405eca4        0x0 ../Car2X_communication_bsp/\libucosii_bsp.a(alt_env_lock.o)
 .bss           0x0405eca4        0x0 ../Car2X_communication_bsp/\libucosii_bsp.a(alt_malloc_lock.o)
 .bss           0x0405eca4        0x0 ../Car2X_communication_bsp/\libucosii_bsp.a(os_core.o)
 .bss           0x0405eca4        0x0 ../Car2X_communication_bsp/\libucosii_bsp.a(os_dbg.o)
 .bss           0x0405eca4        0x0 ../Car2X_communication_bsp/\libucosii_bsp.a(os_flag.o)
 .bss           0x0405eca4        0x0 ../Car2X_communication_bsp/\libucosii_bsp.a(os_mem.o)
 .bss           0x0405eca4        0x0 ../Car2X_communication_bsp/\libucosii_bsp.a(os_q.o)
 .bss           0x0405eca4        0x0 ../Car2X_communication_bsp/\libucosii_bsp.a(os_sem.o)
 .bss           0x0405eca4        0x0 ../Car2X_communication_bsp/\libucosii_bsp.a(os_task.o)
 .bss           0x0405eca4        0x0 ../Car2X_communication_bsp/\libucosii_bsp.a(os_time.o)
 .bss           0x0405eca4        0x0 ../Car2X_communication_bsp/\libucosii_bsp.a(alt_sys_init.o)
 .bss           0x0405eca4        0x0 ../Car2X_communication_bsp/\libucosii_bsp.a(altera_avalon_jtag_uart_fd.o)
 .bss           0x0405eca4        0x0 ../Car2X_communication_bsp/\libucosii_bsp.a(altera_avalon_jtag_uart_init.o)
 .bss           0x0405eca4        0x0 ../Car2X_communication_bsp/\libucosii_bsp.a(altera_avalon_jtag_uart_ioctl.o)
 .bss           0x0405eca4        0x0 ../Car2X_communication_bsp/\libucosii_bsp.a(altera_avalon_jtag_uart_read.o)
 .bss           0x0405eca4        0x0 ../Car2X_communication_bsp/\libucosii_bsp.a(altera_avalon_jtag_uart_write.o)
 .bss           0x0405eca4        0x0 ../Car2X_communication_bsp/\libucosii_bsp.a(altera_avalon_mutex.o)
 .bss           0x0405eca4        0x0 ../Car2X_communication_bsp/\libucosii_bsp.a(altera_avalon_sgdma.o)
 .bss           0x0405eca4        0x0 ../Car2X_communication_bsp/\libucosii_bsp.a(altera_avalon_timer_sc.o)
 .bss           0x0405eca4        0x0 ../Car2X_communication_bsp/\libucosii_bsp.a(altera_avalon_tse.o)
 .bss           0x0405eca4        0x0 ../Car2X_communication_bsp/\libucosii_bsp.a(ins_tse_mac.o)
 .bss           0x0405eca4        0x0 ../Car2X_communication_bsp/\libucosii_bsp.a(alt_iniche_close.o)
 .bss           0x0405eca4        0x0 ../Car2X_communication_bsp/\libucosii_bsp.a(alt_iniche_dev.o)
 .bss           0x0405eca4        0x0 ../Car2X_communication_bsp/\libucosii_bsp.a(alt_iniche_read.o)
 .bss           0x0405eca4        0x0 ../Car2X_communication_bsp/\libucosii_bsp.a(alt_iniche_write.o)
 .bss           0x0405eca4        0x0 ../Car2X_communication_bsp/\libucosii_bsp.a(ipnet.o)
 .bss           0x0405eca4       0x3c ../Car2X_communication_bsp/\libucosii_bsp.a(ipstart.o)
 .bss           0x0405ece0        0x0 ../Car2X_communication_bsp/\libucosii_bsp.a(igmp_cmn.o)
 .bss           0x0405ece0        0x0 ../Car2X_communication_bsp/\libucosii_bsp.a(bsdsock.o)
 .bss           0x0405ece0        0x0 ../Car2X_communication_bsp/\libucosii_bsp.a(cksum.o)
 .bss           0x0405ece0       0x18 ../Car2X_communication_bsp/\libucosii_bsp.a(in_utils.o)
 .bss           0x0405ecf8        0x0 ../Car2X_communication_bsp/\libucosii_bsp.a(netmain.o)
 .bss           0x0405ecf8        0x0 ../Car2X_communication_bsp/\libucosii_bsp.a(tk_crnos.o)
 .bss           0x0405ecf8        0x0 ../Car2X_communication_bsp/\libucosii_bsp.a(pktalloc.o)
 .bss           0x0405ecf8        0x0 ../Car2X_communication_bsp/\libucosii_bsp.a(q.o)
 .bss           0x0405ecf8        0x0 ../Car2X_communication_bsp/\libucosii_bsp.a(asm_cksum.o)
 .bss           0x0405ecf8        0x0 ../Car2X_communication_bsp/\libucosii_bsp.a(brdutils.o)
 .bss           0x0405ecf8        0x0 ../Car2X_communication_bsp/\libucosii_bsp.a(osportco.o)
 .bss           0x0405ecf8        0x0 ../Car2X_communication_bsp/\libucosii_bsp.a(targnios.o)
 .bss           0x0405ecf8        0x0 ../Car2X_communication_bsp/\libucosii_bsp.a(nptcp.o)
 .bss           0x0405ecf8        0x0 ../Car2X_communication_bsp/\libucosii_bsp.a(rawsock.o)
 .bss           0x0405ecf8        0x0 ../Car2X_communication_bsp/\libucosii_bsp.a(sockcall.o)
 .bss           0x0405ecf8        0x0 ../Car2X_communication_bsp/\libucosii_bsp.a(socket.o)
 .bss           0x0405ecf8        0x0 ../Car2X_communication_bsp/\libucosii_bsp.a(socket2.o)
 .bss           0x0405ecf8        0x0 ../Car2X_communication_bsp/\libucosii_bsp.a(soselect.o)
 .bss           0x0405ecf8        0x0 ../Car2X_communication_bsp/\libucosii_bsp.a(tcp_in.o)
 .bss           0x0405ecf8        0x0 ../Car2X_communication_bsp/\libucosii_bsp.a(tcp_out.o)
 .bss           0x0405ecf8        0x0 ../Car2X_communication_bsp/\libucosii_bsp.a(tcp_subr.o)
 .bss           0x0405ecf8        0x0 ../Car2X_communication_bsp/\libucosii_bsp.a(tcp_timr.o)
 .bss           0x0405ecf8        0x0 ../Car2X_communication_bsp/\libucosii_bsp.a(tcp_usr.o)
 .bss           0x0405ecf8        0x0 ../Car2X_communication_bsp/\libucosii_bsp.a(tcpport.o)
 .bss           0x0405ecf8        0x0 ../Car2X_communication_bsp/\libucosii_bsp.a(udpsock.o)
 .bss           0x0405ecf8        0x0 ../Car2X_communication_bsp/\libucosii_bsp.a(alt_alarm_start.o)
 .bss           0x0405ecf8        0x0 ../Car2X_communication_bsp/\libucosii_bsp.a(alt_busy_sleep.o)
 .bss           0x0405ecf8        0x0 ../Car2X_communication_bsp/\libucosii_bsp.a(alt_close.o)
 .bss           0x0405ecf8        0x0 ../Car2X_communication_bsp/\libucosii_bsp.a(alt_dcache_flush_all.o)
 .bss           0x0405ecf8        0x0 ../Car2X_communication_bsp/\libucosii_bsp.a(alt_dev.o)
 .bss           0x0405ecf8        0x0 ../Car2X_communication_bsp/\libucosii_bsp.a(alt_dev_llist_insert.o)
 .bss           0x0405ecf8        0x0 ../Car2X_communication_bsp/\libucosii_bsp.a(alt_do_ctors.o)
 .bss           0x0405ecf8        0x0 ../Car2X_communication_bsp/\libucosii_bsp.a(alt_do_dtors.o)
 .bss           0x0405ecf8        0x0 ../Car2X_communication_bsp/\libucosii_bsp.a(alt_errno.o)
 .bss           0x0405ecf8        0x0 ../Car2X_communication_bsp/\libucosii_bsp.a(alt_find_dev.o)
 .bss           0x0405ecf8        0x0 ../Car2X_communication_bsp/\libucosii_bsp.a(alt_icache_flush_all.o)
 .bss           0x0405ecf8        0x0 ../Car2X_communication_bsp/\libucosii_bsp.a(alt_iic.o)
 .bss           0x0405ecf8        0x0 ../Car2X_communication_bsp/\libucosii_bsp.a(alt_iic_isr_register.o)
 .bss           0x0405ecf8        0x0 ../Car2X_communication_bsp/\libucosii_bsp.a(alt_io_redirect.o)
 .bss           0x0405ecf8        0x0 ../Car2X_communication_bsp/\libucosii_bsp.a(alt_irq_entry.o)
 .bss           0x0405ecf8        0x0 ../Car2X_communication_bsp/\libucosii_bsp.a(alt_irq_handler.o)
 .bss           0x0405ecf8        0x0 ../Car2X_communication_bsp/\libucosii_bsp.a(alt_irq_vars.o)
 .bss           0x0405ecf8        0x0 ../Car2X_communication_bsp/\libucosii_bsp.a(alt_open.o)
 .bss           0x0405ecf8        0x0 ../Car2X_communication_bsp/\libucosii_bsp.a(alt_read.o)
 .bss           0x0405ecf8        0x0 ../Car2X_communication_bsp/\libucosii_bsp.a(alt_release_fd.o)
 .bss           0x0405ecf8        0x0 ../Car2X_communication_bsp/\libucosii_bsp.a(alt_remap_cached.o)
 .bss           0x0405ecf8        0x0 ../Car2X_communication_bsp/\libucosii_bsp.a(alt_remap_uncached.o)
 .bss           0x0405ecf8        0x0 ../Car2X_communication_bsp/\libucosii_bsp.a(alt_uncached_malloc.o)
 .bss           0x0405ecf8        0x0 ../Car2X_communication_bsp/\libucosii_bsp.a(alt_write.o)
 .bss           0x0405ecf8        0x0 ../Car2X_communication_bsp/\libucosii_bsp.a(altera_nios2_qsys_irq.o)
 .bss           0x0405ecf8        0x0 ../Car2X_communication_bsp/\libucosii_bsp.a(os_cpu_a.o)
 .bss           0x0405ecf8        0x0 ../Car2X_communication_bsp/\libucosii_bsp.a(os_cpu_c.o)
 .bss           0x0405ecf8        0x0 ../Car2X_communication_bsp/\libucosii_bsp.a(allports.o)
 .bss           0x0405ecf8        0x0 ../Car2X_communication_bsp/\libucosii_bsp.a(timeouts.o)
 .bss           0x0405ecf8        0x0 ../Car2X_communication_bsp/\libucosii_bsp.a(tk_misc.o)
 .bss           0x0405ecf8        0x0 ../Car2X_communication_bsp/\libucosii_bsp.a(alt_iniche_fcntl.o)
 .bss           0x0405ecf8        0x0 ../Car2X_communication_bsp/\libucosii_bsp.a(et_arp.o)
 .bss           0x0405ecf8        0x0 ../Car2X_communication_bsp/\libucosii_bsp.a(iface.o)
 .bss           0x0405ecf8        0x0 ../Car2X_communication_bsp/\libucosii_bsp.a(ip.o)
 .bss           0x0405ecf8        0x0 ../Car2X_communication_bsp/\libucosii_bsp.a(ip_reasm.o)
 .bss           0x0405ecf8        0x0 ../Car2X_communication_bsp/\libucosii_bsp.a(ipdemux.o)
 .bss           0x0405ecf8        0x0 ../Car2X_communication_bsp/\libucosii_bsp.a(ipmc.o)
 .bss           0x0405ecf8        0x0 ../Car2X_communication_bsp/\libucosii_bsp.a(ipport.o)
 .bss           0x0405ecf8        0x0 ../Car2X_communication_bsp/\libucosii_bsp.a(ipraw.o)
 .bss           0x0405ecf8        0x0 ../Car2X_communication_bsp/\libucosii_bsp.a(iproute.o)
 .bss           0x0405ecf8        0x0 ../Car2X_communication_bsp/\libucosii_bsp.a(udp.o)
 .bss           0x0405ecf8        0x0 ../Car2X_communication_bsp/\libucosii_bsp.a(igmp.o)
 .bss           0x0405ecf8        0x0 ../Car2X_communication_bsp/\libucosii_bsp.a(igmp2.o)
 .bss           0x0405ecf8        0x0 ../Car2X_communication_bsp/\libucosii_bsp.a(ipopt.o)
 .bss           0x0405ecf8        0x0 ../Car2X_communication_bsp/\libucosii_bsp.a(u_mctest.o)
 .bss           0x0405ecf8        0x0 ../Car2X_communication_bsp/\libucosii_bsp.a(memdev.o)
 .bss           0x0405ecf8       0x1e ../Car2X_communication_bsp/\libucosii_bsp.a(parseip.o)
 .bss           0x0405ed16        0x0 ../Car2X_communication_bsp/\libucosii_bsp.a(tcpcksum.o)
 .bss           0x0405ed16        0x0 ../Car2X_communication_bsp/\libucosii_bsp.a(udp_open.o)
 .bss           0x0405ed16        0x0 ../Car2X_communication_bsp/\libucosii_bsp.a(in_pcb.o)
 .bss           0x0405ed16        0x0 ../Car2X_communication_bsp/\libucosii_bsp.a(vfsfiles.o)
 .bss           0x0405ed16        0x0 ../Car2X_communication_bsp/\libucosii_bsp.a(vfsport.o)
 .bss           0x0405ed16        0x0 ../Car2X_communication_bsp/\libucosii_bsp.a(alt_dcache_flush.o)
 .bss           0x0405ed16        0x0 ../Car2X_communication_bsp/\libucosii_bsp.a(alt_exception_entry.o)
 .bss           0x0405ed16        0x0 ../Car2X_communication_bsp/\libucosii_bsp.a(alt_fcntl.o)
 .bss           0x0405ed16        0x0 ../Car2X_communication_bsp/\libucosii_bsp.a(alt_find_file.o)
 .bss           0x0405ed16        0x0 ../Car2X_communication_bsp/\libucosii_bsp.a(alt_get_fd.o)
 .bss           0x0405ed16        0x0 ../Car2X_communication_bsp/\libucosii_bsp.a(alt_icache_flush.o)
 .bss           0x0405ed16        0x0 ../Car2X_communication_bsp/\libucosii_bsp.a(icmp.o)
 .bss           0x0405ed16        0x0 c:/altera/12.1/nios2eds/bin/gnu/h-i686-mingw32/bin/../lib/gcc/nios2-elf/4.1.2/../../../../nios2-elf/lib\libc.a(lib_a-atexit.o)
 .bss           0x0405ed16        0x0 c:/altera/12.1/nios2eds/bin/gnu/h-i686-mingw32/bin/../lib/gcc/nios2-elf/4.1.2/../../../../nios2-elf/lib\libc.a(lib_a-atoi.o)
 .bss           0x0405ed16        0x0 c:/altera/12.1/nios2eds/bin/gnu/h-i686-mingw32/bin/../lib/gcc/nios2-elf/4.1.2/../../../../nios2-elf/lib\libc.a(lib_a-calloc.o)
 .bss           0x0405ed16        0x0 c:/altera/12.1/nios2eds/bin/gnu/h-i686-mingw32/bin/../lib/gcc/nios2-elf/4.1.2/../../../../nios2-elf/lib\libc.a(lib_a-exit.o)
 .bss           0x0405ed16        0x0 c:/altera/12.1/nios2eds/bin/gnu/h-i686-mingw32/bin/../lib/gcc/nios2-elf/4.1.2/../../../../nios2-elf/lib\libc.a(lib_a-memcmp.o)
 .bss           0x0405ed16        0x0 c:/altera/12.1/nios2eds/bin/gnu/h-i686-mingw32/bin/../lib/gcc/nios2-elf/4.1.2/../../../../nios2-elf/lib\libc.a(lib_a-sprintf.o)
 .bss           0x0405ed16        0x0 c:/altera/12.1/nios2eds/bin/gnu/h-i686-mingw32/bin/../lib/gcc/nios2-elf/4.1.2/../../../../nios2-elf/lib\libc.a(lib_a-strchr.o)
 .bss           0x0405ed16        0x0 c:/altera/12.1/nios2eds/bin/gnu/h-i686-mingw32/bin/../lib/gcc/nios2-elf/4.1.2/../../../../nios2-elf/lib\libc.a(lib_a-strcpy.o)
 .bss           0x0405ed16        0x0 c:/altera/12.1/nios2eds/bin/gnu/h-i686-mingw32/bin/../lib/gcc/nios2-elf/4.1.2/../../../../nios2-elf/lib\libc.a(lib_a-strncmp.o)
 .bss           0x0405ed16        0x0 c:/altera/12.1/nios2eds/bin/gnu/h-i686-mingw32/bin/../lib/gcc/nios2-elf/4.1.2/../../../../nios2-elf/lib\libc.a(lib_a-strtol.o)
 .bss           0x0405ed16        0x0 c:/altera/12.1/nios2eds/bin/gnu/h-i686-mingw32/bin/../lib/gcc/nios2-elf/4.1.2/../../../../nios2-elf/lib\libc.a(lib_a-vprintf.o)
 .bss           0x0405ed16        0x0 c:/altera/12.1/nios2eds/bin/gnu/h-i686-mingw32/bin/../lib/gcc/nios2-elf/4.1.2/../../../../nios2-elf/lib\libc.a(lib_a-vsprintf.o)
 .bss           0x0405ed16        0x0 c:/altera/12.1/nios2eds/bin/gnu/h-i686-mingw32/bin/../lib/gcc/nios2-elf/4.1.2/../../../../nios2-elf/lib\libc.a(lib_a-__atexit.o)
 .bss           0x0405ed16        0x0 c:/altera/12.1/nios2eds/bin/gnu/h-i686-mingw32/bin/../lib/gcc/nios2-elf/4.1.2/../../../../nios2-elf/lib\libc.a(lib_a-__call_atexit.o)
 *(COMMON)
 *fill*         0x0405ed16        0x2 00
 COMMON         0x0405ed18     0x2000 obj/default/main.o
                0x0405ed18                SSSInitialTaskStk
 COMMON         0x04060d18     0x3224 ../Car2X_communication_bsp/\libucosii_bsp.a(os_core.o)
                0x04060d18                OSFlagTbl
                0x04061088                OSMemTbl
                0x04061cb8                OSTaskStatStk
                0x040624b8                OSQTbl
                0x04062698                OSTaskIdleStk
                0x04062e98                OSEventTbl
                0x040639d8                OSTCBTbl
                0x04063ee8                OSTCBPrioTbl
 COMMON         0x04063f3c       0xe0 ../Car2X_communication_bsp/\libucosii_bsp.a(alt_sys_init.o)
                0x04063f3c                ethernet_subsystem_tse_mac_if
 COMMON         0x0406401c       0x20 ../Car2X_communication_bsp/\libucosii_bsp.a(altera_avalon_tse.o)
                0x0406401c                pmac_groups
                0x0406402c                pphy_profiles
 COMMON         0x0406403c      0x160 ../Car2X_communication_bsp/\libucosii_bsp.a(ins_tse_mac.o)
                0x0406403c                tse_iniche_dev_driver_data
                0x0406406c                tse
 COMMON         0x0406419c       0x14 ../Car2X_communication_bsp/\libucosii_bsp.a(ipnet.o)
                0x0406419c                rcvdq
 COMMON         0x040641b0      0x310 ../Car2X_communication_bsp/\libucosii_bsp.a(ipstart.o)
                0x040641b0                netstatic
                0x040644b0                nets
 COMMON         0x040644c0       0x64 ../Car2X_communication_bsp/\libucosii_bsp.a(igmp_cmn.o)
                0x040644c0                igmpstats
 COMMON         0x04064524       0x24 ../Car2X_communication_bsp/\libucosii_bsp.a(in_utils.o)
                0x04064524                eth_prt_buf
                0x04064536                ipreturn
 COMMON         0x04064548      0x128 ../Car2X_communication_bsp/\libucosii_bsp.a(pktalloc.o)
                0x04064548                lilfreeq
                0x0406455c                memestats
                0x0406456c                pktlog
                0x0406465c                bigfreeq
 COMMON         0x04064670      0x1ec ../Car2X_communication_bsp/\libucosii_bsp.a(osportco.o)
                0x04064670                global_tcb_ext
                0x0406476c                global_TCPwakeup_set
 COMMON         0x0406485c       0x58 ../Car2X_communication_bsp/\libucosii_bsp.a(targnios.o)
                0x0406485c                resid_semaphore
                0x0406489c                app_semaphore
 COMMON         0x040648b4       0x78 ../Car2X_communication_bsp/\libucosii_bsp.a(nptcp.o)
                0x040648b4                soq
                0x040648c8                tcpmib
                0x04064904                mbufq
                0x04064918                mfreeq
 COMMON         0x0406492c       0x28 ../Car2X_communication_bsp/\libucosii_bsp.a(tcp_in.o)
                0x0406492c                tcp_saveti
 COMMON         0x04064954      0x10c ../Car2X_communication_bsp/\libucosii_bsp.a(tcp_subr.o)
                0x04064954                tcb
                0x04064980                tcpstat
 COMMON         0x04064a60      0x100 ../Car2X_communication_bsp/\libucosii_bsp.a(alt_irq_handler.o)
                0x04064a60                alt_irq
 COMMON         0x04064b60       0x64 ../Car2X_communication_bsp/\libucosii_bsp.a(timeouts.o)
                0x04064b60                intimers
 COMMON         0x04064bc4      0x100 ../Car2X_communication_bsp/\libucosii_bsp.a(et_arp.o)
                0x04064bc4                arp_table
 COMMON         0x04064cc4       0x14 ../Car2X_communication_bsp/\libucosii_bsp.a(iface.o)
                0x04064cc4                netlist
 COMMON         0x04064cd8       0x50 ../Car2X_communication_bsp/\libucosii_bsp.a(ip.o)
                0x04064cd8                ip_mib
 COMMON         0x04064d28       0x18 ../Car2X_communication_bsp/\libucosii_bsp.a(ip_reasm.o)
                0x04064d28                ire_stats
 COMMON         0x04064d40       0x10 ../Car2X_communication_bsp/\libucosii_bsp.a(udp.o)
                0x04064d40                udp_mib
 COMMON         0x04064d50       0x68 ../Car2X_communication_bsp/\libucosii_bsp.a(icmp.o)
                0x04064d50                icmp_mib
 COMMON         0x04064db8      0x190 c:/altera/12.1/nios2eds/bin/gnu/h-i686-mingw32/bin/../lib/gcc/nios2-elf/4.1.2/../../../../nios2-elf/lib\libc.a(lib_a-atexit.o)
                0x04064db8                _atexit0
                0x04064f48                . = ALIGN (0x4)
                0x04064f48                __bss_end = ABSOLUTE (.)

.com_memory     0x04064f48        0x0
                0x04064f48                PROVIDE (_alt_partition_com_memory_start, ABSOLUTE (.))
 *(.com_memory. com_memory.*)
                0x04064f48                . = ALIGN (0x4)
                0x04064f48                PROVIDE (_alt_partition_com_memory_end, ABSOLUTE (.))
                0x04064f48                _end = ABSOLUTE (.)
                0x04064f48                end = ABSOLUTE (.)
                0x04064f48                __alt_stack_base = ABSOLUTE (.)
                0x04064f48                PROVIDE (_alt_partition_com_memory_load_addr, LOADADDR (.com_memory))

.ethernet_subsystem_descriptor_memory
                0x08000000        0x0 load address 0x04064f48
                0x08000000                PROVIDE (_alt_partition_ethernet_subsystem_descriptor_memory_start, ABSOLUTE (.))
 *(.ethernet_subsystem_descriptor_memory. ethernet_subsystem_descriptor_memory.*)
                0x08000000                . = ALIGN (0x4)
                0x08000000                PROVIDE (_alt_partition_ethernet_subsystem_descriptor_memory_end, ABSOLUTE (.))
                0x04064f48                PROVIDE (_alt_partition_ethernet_subsystem_descriptor_memory_load_addr, LOADADDR (.ethernet_subsystem_descriptor_memory))

.shared_memory  0x08002000        0x0 load address 0x04064f48
                0x08002000                PROVIDE (_alt_partition_shared_memory_start, ABSOLUTE (.))
 *(.shared_memory. shared_memory.*)
                0x08002000                . = ALIGN (0x4)
                0x08002000                PROVIDE (_alt_partition_shared_memory_end, ABSOLUTE (.))
                0x04064f48                PROVIDE (_alt_partition_shared_memory_load_addr, LOADADDR (.shared_memory))

.com_ocmemory   0x08004000        0x0 load address 0x04064f48
                0x08004000                PROVIDE (_alt_partition_com_ocmemory_start, ABSOLUTE (.))
 *(.com_ocmemory. com_ocmemory.*)
                0x08004000                . = ALIGN (0x4)
                0x08004000                PROVIDE (_alt_partition_com_ocmemory_end, ABSOLUTE (.))
                0x04064f48                PROVIDE (_alt_partition_com_ocmemory_load_addr, LOADADDR (.com_ocmemory))

.stab
 *(.stab)

.stabstr
 *(.stabstr)

.stab.excl
 *(.stab.excl)

.stab.exclstr
 *(.stab.exclstr)

.stab.index
 *(.stab.index)

.stab.indexstr
 *(.stab.indexstr)

.comment        0x00000000       0x23
 *(.comment)
 .comment       0x00000000       0x23 obj/default/alt_error_handler.o
                                 0x24 (size before relaxing)
 .comment       0x00000000       0x24 obj/default/main.o
 .comment       0x00000000       0x24 obj/default/network_utilities.o
 .comment       0x00000000       0x24 obj/default/tse_my_system.o
 .comment       0x00000000       0x24 obj/default/COMM_CarProtocol/ADCInfoMessage.o
 .comment       0x00000000       0x24 obj/default/COMM_CarProtocol/ADCValuesMessage.o
 .comment       0x00000000       0x24 obj/default/COMM_CarProtocol/AccelerationValuesMessage.o
 .comment       0x00000000       0x24 obj/default/COMM_CarProtocol/CarMessage.o
 .comment       0x00000000       0x24 obj/default/COMM_CarProtocol/CarProtocol.o
 .comment       0x00000000       0x24 obj/default/COMM_CarProtocol/MotorMeasurementMessage.o
 .comment       0x00000000       0x24 obj/default/COMM_CarProtocol/MotorVelocityMessage.o
 .comment       0x00000000       0x24 obj/default/COMM_CarProtocol/UltrasoundDistanceMessage.o
 .comment       0x00000000       0x24 obj/default/COMM_CarProtocol/WelcomeMessage.o
 .comment       0x00000000       0x24 obj/default/CarMessages/CControlMessage.o
 .comment       0x00000000       0x24 obj/default/CarMessages/CEmergencyBrakeMessage.o
 .comment       0x00000000       0x24 obj/default/etc/utility.o
 .comment       0x00000000       0x24 obj/default/external_drivers/accelerometer_interface.o
 .comment       0x00000000       0x24 obj/default/external_drivers/adc_interface.o
 .comment       0x00000000       0x24 obj/default/external_drivers/ultrasound_interface.o
 .comment       0x00000000       0x24 obj/default/sensors/ADCSensor.o
 .comment       0x00000000       0x24 obj/default/sensors/AccelerationSensor.o
 .comment       0x00000000       0x24 obj/default/sensors/SensorState.o
 .comment       0x00000000       0x24 obj/default/sensors/UltrasoundSensor.o
 .comment       0x00000000       0x24 obj/default/socketserver.o
 .comment       0x00000000       0x24 obj/default/terasic_lib/I2C.o
 .comment       0x00000000       0x24 obj/default/terasic_lib/accelerometer_adxl345_spi.o
 .comment       0x00000000       0x24 obj/default/terasic_lib/adc_spi_read.o
 .comment       0x00000000       0x24 obj/default/terasic_lib/terasic_spi.o
 .comment       0x00000000       0x24 c:/altera/12.1/nios2eds/bin/gnu/h-i686-mingw32/bin/../lib/gcc/nios2-elf/4.1.2/../../../../nios2-elf/lib\libstdc++.a(eh_personality.o)
 .comment       0x00000000       0x24 c:/altera/12.1/nios2eds/bin/gnu/h-i686-mingw32/bin/../lib/gcc/nios2-elf/4.1.2/../../../../nios2-elf/lib\libstdc++.a(eh_exception.o)
 .comment       0x00000000       0x24 c:/altera/12.1/nios2eds/bin/gnu/h-i686-mingw32/bin/../lib/gcc/nios2-elf/4.1.2/../../../../nios2-elf/lib\libstdc++.a(del_op.o)
 .comment       0x00000000       0x24 c:/altera/12.1/nios2eds/bin/gnu/h-i686-mingw32/bin/../lib/gcc/nios2-elf/4.1.2/../../../../nios2-elf/lib\libstdc++.a(eh_call.o)
 .comment       0x00000000       0x24 c:/altera/12.1/nios2eds/bin/gnu/h-i686-mingw32/bin/../lib/gcc/nios2-elf/4.1.2/../../../../nios2-elf/lib\libstdc++.a(class_type_info.o)
 .comment       0x00000000       0x24 c:/altera/12.1/nios2eds/bin/gnu/h-i686-mingw32/bin/../lib/gcc/nios2-elf/4.1.2/../../../../nios2-elf/lib\libstdc++.a(new_op.o)
 .comment       0x00000000       0x24 c:/altera/12.1/nios2eds/bin/gnu/h-i686-mingw32/bin/../lib/gcc/nios2-elf/4.1.2/../../../../nios2-elf/lib\libstdc++.a(si_class_type_info.o)
 .comment       0x00000000       0x24 c:/altera/12.1/nios2eds/bin/gnu/h-i686-mingw32/bin/../lib/gcc/nios2-elf/4.1.2/../../../../nios2-elf/lib\libstdc++.a(eh_alloc.o)
 .comment       0x00000000       0x24 c:/altera/12.1/nios2eds/bin/gnu/h-i686-mingw32/bin/../lib/gcc/nios2-elf/4.1.2/../../../../nios2-elf/lib\libstdc++.a(tinfo.o)
 .comment       0x00000000       0x24 c:/altera/12.1/nios2eds/bin/gnu/h-i686-mingw32/bin/../lib/gcc/nios2-elf/4.1.2/../../../../nios2-elf/lib\libstdc++.a(eh_throw.o)
 .comment       0x00000000       0x24 c:/altera/12.1/nios2eds/bin/gnu/h-i686-mingw32/bin/../lib/gcc/nios2-elf/4.1.2/../../../../nios2-elf/lib\libstdc++.a(eh_terminate.o)
 .comment       0x00000000       0x24 c:/altera/12.1/nios2eds/bin/gnu/h-i686-mingw32/bin/../lib/gcc/nios2-elf/4.1.2/../../../../nios2-elf/lib\libstdc++.a(eh_globals.o)
 .comment       0x00000000       0x24 c:/altera/12.1/nios2eds/bin/gnu/h-i686-mingw32/bin/../lib/gcc/nios2-elf/4.1.2/../../../../nios2-elf/lib\libstdc++.a(eh_unex_handler.o)
 .comment       0x00000000       0x24 c:/altera/12.1/nios2eds/bin/gnu/h-i686-mingw32/bin/../lib/gcc/nios2-elf/4.1.2/../../../../nios2-elf/lib\libstdc++.a(new_handler.o)
 .comment       0x00000000       0x24 c:/altera/12.1/nios2eds/bin/gnu/h-i686-mingw32/bin/../lib/gcc/nios2-elf/4.1.2/../../../../nios2-elf/lib\libstdc++.a(eh_catch.o)
 .comment       0x00000000       0x24 c:/altera/12.1/nios2eds/bin/gnu/h-i686-mingw32/bin/../lib/gcc/nios2-elf/4.1.2/../../../../nios2-elf/lib\libstdc++.a(eh_term_handler.o)
 .comment       0x00000000       0x24 c:/altera/12.1/nios2eds/bin/gnu/h-i686-mingw32/bin/../lib/gcc/nios2-elf/4.1.2\libgcc.a(lib2-divmod.o)
 .comment       0x00000000       0x24 c:/altera/12.1/nios2eds/bin/gnu/h-i686-mingw32/bin/../lib/gcc/nios2-elf/4.1.2\libgcc.a(unwind-sjlj.o)
 .comment       0x00000000       0x24 c:/altera/12.1/nios2eds/bin/gnu/h-i686-mingw32/bin/../lib/gcc/nios2-elf/4.1.2/../../../../nios2-elf/lib\libc.a(lib_a-abort.o)
 .comment       0x00000000       0x24 c:/altera/12.1/nios2eds/bin/gnu/h-i686-mingw32/bin/../lib/gcc/nios2-elf/4.1.2/../../../../nios2-elf/lib\libc.a(lib_a-ctype_.o)
 .comment       0x00000000       0x24 c:/altera/12.1/nios2eds/bin/gnu/h-i686-mingw32/bin/../lib/gcc/nios2-elf/4.1.2/../../../../nios2-elf/lib\libc.a(lib_a-fprintf.o)
 .comment       0x00000000       0x24 c:/altera/12.1/nios2eds/bin/gnu/h-i686-mingw32/bin/../lib/gcc/nios2-elf/4.1.2/../../../../nios2-elf/lib\libc.a(lib_a-fwrite.o)
 .comment       0x00000000       0x24 c:/altera/12.1/nios2eds/bin/gnu/h-i686-mingw32/bin/../lib/gcc/nios2-elf/4.1.2/../../../../nios2-elf/lib\libc.a(lib_a-getc.o)
 .comment       0x00000000       0x24 c:/altera/12.1/nios2eds/bin/gnu/h-i686-mingw32/bin/../lib/gcc/nios2-elf/4.1.2/../../../../nios2-elf/lib\libc.a(lib_a-impure.o)
 .comment       0x00000000       0x24 c:/altera/12.1/nios2eds/bin/gnu/h-i686-mingw32/bin/../lib/gcc/nios2-elf/4.1.2/../../../../nios2-elf/lib\libc.a(lib_a-malloc.o)
 .comment       0x00000000       0x24 c:/altera/12.1/nios2eds/bin/gnu/h-i686-mingw32/bin/../lib/gcc/nios2-elf/4.1.2/../../../../nios2-elf/lib\libc.a(lib_a-mallocr.o)
 .comment       0x00000000       0x24 c:/altera/12.1/nios2eds/bin/gnu/h-i686-mingw32/bin/../lib/gcc/nios2-elf/4.1.2/../../../../nios2-elf/lib\libc.a(lib_a-memmove.o)
 .comment       0x00000000       0x24 c:/altera/12.1/nios2eds/bin/gnu/h-i686-mingw32/bin/../lib/gcc/nios2-elf/4.1.2/../../../../nios2-elf/lib\libc.a(lib_a-memset.o)
 .comment       0x00000000       0x24 c:/altera/12.1/nios2eds/bin/gnu/h-i686-mingw32/bin/../lib/gcc/nios2-elf/4.1.2/../../../../nios2-elf/lib\libc.a(lib_a-perror.o)
 .comment       0x00000000       0x24 c:/altera/12.1/nios2eds/bin/gnu/h-i686-mingw32/bin/../lib/gcc/nios2-elf/4.1.2/../../../../nios2-elf/lib\libc.a(lib_a-printf.o)
 .comment       0x00000000       0x24 c:/altera/12.1/nios2eds/bin/gnu/h-i686-mingw32/bin/../lib/gcc/nios2-elf/4.1.2/../../../../nios2-elf/lib\libc.a(lib_a-putc.o)
 .comment       0x00000000       0x24 c:/altera/12.1/nios2eds/bin/gnu/h-i686-mingw32/bin/../lib/gcc/nios2-elf/4.1.2/../../../../nios2-elf/lib\libc.a(lib_a-putchar.o)
 .comment       0x00000000       0x24 c:/altera/12.1/nios2eds/bin/gnu/h-i686-mingw32/bin/../lib/gcc/nios2-elf/4.1.2/../../../../nios2-elf/lib\libc.a(lib_a-puts.o)
 .comment       0x00000000       0x24 c:/altera/12.1/nios2eds/bin/gnu/h-i686-mingw32/bin/../lib/gcc/nios2-elf/4.1.2/../../../../nios2-elf/lib\libc.a(lib_a-rget.o)
 .comment       0x00000000       0x24 c:/altera/12.1/nios2eds/bin/gnu/h-i686-mingw32/bin/../lib/gcc/nios2-elf/4.1.2/../../../../nios2-elf/lib\libc.a(lib_a-sbrkr.o)
 .comment       0x00000000       0x24 c:/altera/12.1/nios2eds/bin/gnu/h-i686-mingw32/bin/../lib/gcc/nios2-elf/4.1.2/../../../../nios2-elf/lib\libc.a(lib_a-signal.o)
 .comment       0x00000000       0x24 c:/altera/12.1/nios2eds/bin/gnu/h-i686-mingw32/bin/../lib/gcc/nios2-elf/4.1.2/../../../../nios2-elf/lib\libc.a(lib_a-signalr.o)
 .comment       0x00000000       0x24 c:/altera/12.1/nios2eds/bin/gnu/h-i686-mingw32/bin/../lib/gcc/nios2-elf/4.1.2/../../../../nios2-elf/lib\libc.a(lib_a-strerror.o)
 .comment       0x00000000       0x24 c:/altera/12.1/nios2eds/bin/gnu/h-i686-mingw32/bin/../lib/gcc/nios2-elf/4.1.2/../../../../nios2-elf/lib\libc.a(lib_a-strlen.o)
 .comment       0x00000000       0x24 c:/altera/12.1/nios2eds/bin/gnu/h-i686-mingw32/bin/../lib/gcc/nios2-elf/4.1.2/../../../../nios2-elf/lib\libc.a(lib_a-u_strerr.o)
 .comment       0x00000000       0x24 c:/altera/12.1/nios2eds/bin/gnu/h-i686-mingw32/bin/../lib/gcc/nios2-elf/4.1.2/../../../../nios2-elf/lib\libc.a(lib_a-vfprintf.o)
 .comment       0x00000000       0x24 c:/altera/12.1/nios2eds/bin/gnu/h-i686-mingw32/bin/../lib/gcc/nios2-elf/4.1.2/../../../../nios2-elf/lib\libc.a(lib_a-wbuf.o)
 .comment       0x00000000       0x24 c:/altera/12.1/nios2eds/bin/gnu/h-i686-mingw32/bin/../lib/gcc/nios2-elf/4.1.2/../../../../nios2-elf/lib\libc.a(lib_a-wsetup.o)
 .comment       0x00000000       0x24 c:/altera/12.1/nios2eds/bin/gnu/h-i686-mingw32/bin/../lib/gcc/nios2-elf/4.1.2/../../../../nios2-elf/lib\libc.a(lib_a-dtoa.o)
 .comment       0x00000000       0x24 c:/altera/12.1/nios2eds/bin/gnu/h-i686-mingw32/bin/../lib/gcc/nios2-elf/4.1.2/../../../../nios2-elf/lib\libc.a(lib_a-fflush.o)
 .comment       0x00000000       0x24 c:/altera/12.1/nios2eds/bin/gnu/h-i686-mingw32/bin/../lib/gcc/nios2-elf/4.1.2/../../../../nios2-elf/lib\libc.a(lib_a-findfp.o)
 .comment       0x00000000       0x24 c:/altera/12.1/nios2eds/bin/gnu/h-i686-mingw32/bin/../lib/gcc/nios2-elf/4.1.2/../../../../nios2-elf/lib\libc.a(lib_a-fputc.o)
 .comment       0x00000000       0x24 c:/altera/12.1/nios2eds/bin/gnu/h-i686-mingw32/bin/../lib/gcc/nios2-elf/4.1.2/../../../../nios2-elf/lib\libc.a(lib_a-fputs.o)
 .comment       0x00000000       0x24 c:/altera/12.1/nios2eds/bin/gnu/h-i686-mingw32/bin/../lib/gcc/nios2-elf/4.1.2/../../../../nios2-elf/lib\libc.a(lib_a-freer.o)
 .comment       0x00000000       0x24 c:/altera/12.1/nios2eds/bin/gnu/h-i686-mingw32/bin/../lib/gcc/nios2-elf/4.1.2/../../../../nios2-elf/lib\libc.a(lib_a-fvwrite.o)
 .comment       0x00000000       0x24 c:/altera/12.1/nios2eds/bin/gnu/h-i686-mingw32/bin/../lib/gcc/nios2-elf/4.1.2/../../../../nios2-elf/lib\libc.a(lib_a-fwalk.o)
 .comment       0x00000000       0x24 c:/altera/12.1/nios2eds/bin/gnu/h-i686-mingw32/bin/../lib/gcc/nios2-elf/4.1.2/../../../../nios2-elf/lib\libc.a(lib_a-int_errno.o)
 .comment       0x00000000       0x24 c:/altera/12.1/nios2eds/bin/gnu/h-i686-mingw32/bin/../lib/gcc/nios2-elf/4.1.2/../../../../nios2-elf/lib\libc.a(lib_a-locale.o)
 .comment       0x00000000       0x24 c:/altera/12.1/nios2eds/bin/gnu/h-i686-mingw32/bin/../lib/gcc/nios2-elf/4.1.2/../../../../nios2-elf/lib\libc.a(lib_a-makebuf.o)
 .comment       0x00000000       0x24 c:/altera/12.1/nios2eds/bin/gnu/h-i686-mingw32/bin/../lib/gcc/nios2-elf/4.1.2/../../../../nios2-elf/lib\libc.a(lib_a-memchr.o)
 .comment       0x00000000       0x24 c:/altera/12.1/nios2eds/bin/gnu/h-i686-mingw32/bin/../lib/gcc/nios2-elf/4.1.2/../../../../nios2-elf/lib\libc.a(lib_a-memcpy.o)
 .comment       0x00000000       0x24 c:/altera/12.1/nios2eds/bin/gnu/h-i686-mingw32/bin/../lib/gcc/nios2-elf/4.1.2/../../../../nios2-elf/lib\libc.a(lib_a-mprec.o)
 .comment       0x00000000       0x24 c:/altera/12.1/nios2eds/bin/gnu/h-i686-mingw32/bin/../lib/gcc/nios2-elf/4.1.2/../../../../nios2-elf/lib\libc.a(lib_a-reallocr.o)
 .comment       0x00000000       0x24 c:/altera/12.1/nios2eds/bin/gnu/h-i686-mingw32/bin/../lib/gcc/nios2-elf/4.1.2/../../../../nios2-elf/lib\libc.a(lib_a-refill.o)
 .comment       0x00000000       0x24 c:/altera/12.1/nios2eds/bin/gnu/h-i686-mingw32/bin/../lib/gcc/nios2-elf/4.1.2/../../../../nios2-elf/lib\libc.a(lib_a-s_isinfd.o)
 .comment       0x00000000       0x24 c:/altera/12.1/nios2eds/bin/gnu/h-i686-mingw32/bin/../lib/gcc/nios2-elf/4.1.2/../../../../nios2-elf/lib\libc.a(lib_a-s_isnand.o)
 .comment       0x00000000       0x24 c:/altera/12.1/nios2eds/bin/gnu/h-i686-mingw32/bin/../lib/gcc/nios2-elf/4.1.2/../../../../nios2-elf/lib\libc.a(lib_a-stdio.o)
 .comment       0x00000000       0x24 c:/altera/12.1/nios2eds/bin/gnu/h-i686-mingw32/bin/../lib/gcc/nios2-elf/4.1.2/../../../../nios2-elf/lib\libc.a(lib_a-strcmp.o)
 .comment       0x00000000       0x24 c:/altera/12.1/nios2eds/bin/gnu/h-i686-mingw32/bin/../lib/gcc/nios2-elf/4.1.2/../../../../nios2-elf/lib\libc.a(lib_a-writer.o)
 .comment       0x00000000       0x24 c:/altera/12.1/nios2eds/bin/gnu/h-i686-mingw32/bin/../lib/gcc/nios2-elf/4.1.2/../../../../nios2-elf/lib\libc.a(lib_a-callocr.o)
 .comment       0x00000000       0x24 c:/altera/12.1/nios2eds/bin/gnu/h-i686-mingw32/bin/../lib/gcc/nios2-elf/4.1.2/../../../../nios2-elf/lib\libc.a(lib_a-closer.o)
 .comment       0x00000000       0x24 c:/altera/12.1/nios2eds/bin/gnu/h-i686-mingw32/bin/../lib/gcc/nios2-elf/4.1.2/../../../../nios2-elf/lib\libc.a(lib_a-fclose.o)
 .comment       0x00000000       0x24 c:/altera/12.1/nios2eds/bin/gnu/h-i686-mingw32/bin/../lib/gcc/nios2-elf/4.1.2/../../../../nios2-elf/lib\libc.a(lib_a-fstatr.o)
 .comment       0x00000000       0x24 c:/altera/12.1/nios2eds/bin/gnu/h-i686-mingw32/bin/../lib/gcc/nios2-elf/4.1.2/../../../../nios2-elf/lib\libc.a(lib_a-isattyr.o)
 .comment       0x00000000       0x24 c:/altera/12.1/nios2eds/bin/gnu/h-i686-mingw32/bin/../lib/gcc/nios2-elf/4.1.2/../../../../nios2-elf/lib\libc.a(lib_a-lseekr.o)
 .comment       0x00000000       0x24 c:/altera/12.1/nios2eds/bin/gnu/h-i686-mingw32/bin/../lib/gcc/nios2-elf/4.1.2/../../../../nios2-elf/lib\libc.a(lib_a-readr.o)
 .comment       0x00000000       0x24 c:/altera/12.1/nios2eds/bin/gnu/h-i686-mingw32/bin/../lib/gcc/nios2-elf/4.1.2\libgcc.a(_udivdi3.o)
 .comment       0x00000000       0x24 c:/altera/12.1/nios2eds/bin/gnu/h-i686-mingw32/bin/../lib/gcc/nios2-elf/4.1.2\libgcc.a(_umoddi3.o)
 .comment       0x00000000       0x24 c:/altera/12.1/nios2eds/bin/gnu/h-i686-mingw32/bin/../lib/gcc/nios2-elf/4.1.2\libgcc.a(_addsub_df.o)
 .comment       0x00000000       0x24 c:/altera/12.1/nios2eds/bin/gnu/h-i686-mingw32/bin/../lib/gcc/nios2-elf/4.1.2\libgcc.a(_mul_df.o)
 .comment       0x00000000       0x24 c:/altera/12.1/nios2eds/bin/gnu/h-i686-mingw32/bin/../lib/gcc/nios2-elf/4.1.2\libgcc.a(_div_df.o)
 .comment       0x00000000       0x24 c:/altera/12.1/nios2eds/bin/gnu/h-i686-mingw32/bin/../lib/gcc/nios2-elf/4.1.2\libgcc.a(_eq_df.o)
 .comment       0x00000000       0x24 c:/altera/12.1/nios2eds/bin/gnu/h-i686-mingw32/bin/../lib/gcc/nios2-elf/4.1.2\libgcc.a(_ne_df.o)
 .comment       0x00000000       0x24 c:/altera/12.1/nios2eds/bin/gnu/h-i686-mingw32/bin/../lib/gcc/nios2-elf/4.1.2\libgcc.a(_gt_df.o)
 .comment       0x00000000       0x24 c:/altera/12.1/nios2eds/bin/gnu/h-i686-mingw32/bin/../lib/gcc/nios2-elf/4.1.2\libgcc.a(_ge_df.o)
 .comment       0x00000000       0x24 c:/altera/12.1/nios2eds/bin/gnu/h-i686-mingw32/bin/../lib/gcc/nios2-elf/4.1.2\libgcc.a(_lt_df.o)
 .comment       0x00000000       0x24 c:/altera/12.1/nios2eds/bin/gnu/h-i686-mingw32/bin/../lib/gcc/nios2-elf/4.1.2\libgcc.a(_si_to_df.o)
 .comment       0x00000000       0x24 c:/altera/12.1/nios2eds/bin/gnu/h-i686-mingw32/bin/../lib/gcc/nios2-elf/4.1.2\libgcc.a(_df_to_si.o)
 .comment       0x00000000       0x24 c:/altera/12.1/nios2eds/bin/gnu/h-i686-mingw32/bin/../lib/gcc/nios2-elf/4.1.2\libgcc.a(_thenan_df.o)
 .comment       0x00000000       0x24 c:/altera/12.1/nios2eds/bin/gnu/h-i686-mingw32/bin/../lib/gcc/nios2-elf/4.1.2\libgcc.a(_usi_to_df.o)
 .comment       0x00000000       0x24 c:/altera/12.1/nios2eds/bin/gnu/h-i686-mingw32/bin/../lib/gcc/nios2-elf/4.1.2\libgcc.a(_muldi3.o)
 .comment       0x00000000       0x24 c:/altera/12.1/nios2eds/bin/gnu/h-i686-mingw32/bin/../lib/gcc/nios2-elf/4.1.2\libgcc.a(_clz.o)
 .comment       0x00000000       0x24 c:/altera/12.1/nios2eds/bin/gnu/h-i686-mingw32/bin/../lib/gcc/nios2-elf/4.1.2\libgcc.a(_clzsi2.o)
 .comment       0x00000000       0x24 c:/altera/12.1/nios2eds/bin/gnu/h-i686-mingw32/bin/../lib/gcc/nios2-elf/4.1.2\libgcc.a(_pack_df.o)
 .comment       0x00000000       0x24 c:/altera/12.1/nios2eds/bin/gnu/h-i686-mingw32/bin/../lib/gcc/nios2-elf/4.1.2\libgcc.a(_unpack_df.o)
 .comment       0x00000000       0x24 c:/altera/12.1/nios2eds/bin/gnu/h-i686-mingw32/bin/../lib/gcc/nios2-elf/4.1.2\libgcc.a(_fpcmp_parts_df.o)
 .comment       0x00000000       0x24 ../Car2X_communication_bsp/\libucosii_bsp.a(alt_exit.o)
 .comment       0x00000000       0x24 ../Car2X_communication_bsp/\libucosii_bsp.a(alt_fstat.o)
 .comment       0x00000000       0x24 ../Car2X_communication_bsp/\libucosii_bsp.a(alt_getpid.o)
 .comment       0x00000000       0x24 ../Car2X_communication_bsp/\libucosii_bsp.a(alt_isatty.o)
 .comment       0x00000000       0x24 ../Car2X_communication_bsp/\libucosii_bsp.a(alt_kill.o)
 .comment       0x00000000       0x24 ../Car2X_communication_bsp/\libucosii_bsp.a(alt_load.o)
 .comment       0x00000000       0x24 ../Car2X_communication_bsp/\libucosii_bsp.a(alt_lseek.o)
 .comment       0x00000000       0x24 ../Car2X_communication_bsp/\libucosii_bsp.a(alt_main.o)
 .comment       0x00000000       0x24 ../Car2X_communication_bsp/\libucosii_bsp.a(alt_sbrk.o)
 .comment       0x00000000       0x24 ../Car2X_communication_bsp/\libucosii_bsp.a(alt_tick.o)
 .comment       0x00000000       0x24 ../Car2X_communication_bsp/\libucosii_bsp.a(alt_usleep.o)
 .comment       0x00000000       0x24 ../Car2X_communication_bsp/\libucosii_bsp.a(alt_env_lock.o)
 .comment       0x00000000       0x24 ../Car2X_communication_bsp/\libucosii_bsp.a(alt_malloc_lock.o)
 .comment       0x00000000       0x24 ../Car2X_communication_bsp/\libucosii_bsp.a(os_core.o)
 .comment       0x00000000       0x24 ../Car2X_communication_bsp/\libucosii_bsp.a(os_dbg.o)
 .comment       0x00000000       0x24 ../Car2X_communication_bsp/\libucosii_bsp.a(os_flag.o)
 .comment       0x00000000       0x24 ../Car2X_communication_bsp/\libucosii_bsp.a(os_mem.o)
 .comment       0x00000000       0x24 ../Car2X_communication_bsp/\libucosii_bsp.a(os_q.o)
 .comment       0x00000000       0x24 ../Car2X_communication_bsp/\libucosii_bsp.a(os_sem.o)
 .comment       0x00000000       0x24 ../Car2X_communication_bsp/\libucosii_bsp.a(os_task.o)
 .comment       0x00000000       0x24 ../Car2X_communication_bsp/\libucosii_bsp.a(os_time.o)
 .comment       0x00000000       0x24 ../Car2X_communication_bsp/\libucosii_bsp.a(alt_sys_init.o)
 .comment       0x00000000       0x24 ../Car2X_communication_bsp/\libucosii_bsp.a(altera_avalon_jtag_uart_fd.o)
 .comment       0x00000000       0x24 ../Car2X_communication_bsp/\libucosii_bsp.a(altera_avalon_jtag_uart_init.o)
 .comment       0x00000000       0x24 ../Car2X_communication_bsp/\libucosii_bsp.a(altera_avalon_jtag_uart_ioctl.o)
 .comment       0x00000000       0x24 ../Car2X_communication_bsp/\libucosii_bsp.a(altera_avalon_jtag_uart_read.o)
 .comment       0x00000000       0x24 ../Car2X_communication_bsp/\libucosii_bsp.a(altera_avalon_jtag_uart_write.o)
 .comment       0x00000000       0x24 ../Car2X_communication_bsp/\libucosii_bsp.a(altera_avalon_mutex.o)
 .comment       0x00000000       0x24 ../Car2X_communication_bsp/\libucosii_bsp.a(altera_avalon_sgdma.o)
 .comment       0x00000000       0x24 ../Car2X_communication_bsp/\libucosii_bsp.a(altera_avalon_timer_sc.o)
 .comment       0x00000000       0x24 ../Car2X_communication_bsp/\libucosii_bsp.a(altera_avalon_tse.o)
 .comment       0x00000000       0x24 ../Car2X_communication_bsp/\libucosii_bsp.a(ins_tse_mac.o)
 .comment       0x00000000       0x24 ../Car2X_communication_bsp/\libucosii_bsp.a(alt_iniche_close.o)
 .comment       0x00000000       0x24 ../Car2X_communication_bsp/\libucosii_bsp.a(alt_iniche_dev.o)
 .comment       0x00000000       0x24 ../Car2X_communication_bsp/\libucosii_bsp.a(alt_iniche_read.o)
 .comment       0x00000000       0x24 ../Car2X_communication_bsp/\libucosii_bsp.a(alt_iniche_write.o)
 .comment       0x00000000       0x24 ../Car2X_communication_bsp/\libucosii_bsp.a(ipnet.o)
 .comment       0x00000000       0x24 ../Car2X_communication_bsp/\libucosii_bsp.a(ipstart.o)
 .comment       0x00000000       0x24 ../Car2X_communication_bsp/\libucosii_bsp.a(igmp_cmn.o)
 .comment       0x00000000       0x24 ../Car2X_communication_bsp/\libucosii_bsp.a(bsdsock.o)
 .comment       0x00000000       0x24 ../Car2X_communication_bsp/\libucosii_bsp.a(cksum.o)
 .comment       0x00000000       0x24 ../Car2X_communication_bsp/\libucosii_bsp.a(in_utils.o)
 .comment       0x00000000       0x24 ../Car2X_communication_bsp/\libucosii_bsp.a(netmain.o)
 .comment       0x00000000       0x24 ../Car2X_communication_bsp/\libucosii_bsp.a(tk_crnos.o)
 .comment       0x00000000       0x24 ../Car2X_communication_bsp/\libucosii_bsp.a(pktalloc.o)
 .comment       0x00000000       0x24 ../Car2X_communication_bsp/\libucosii_bsp.a(q.o)
 .comment       0x00000000       0x24 ../Car2X_communication_bsp/\libucosii_bsp.a(brdutils.o)
 .comment       0x00000000       0x24 ../Car2X_communication_bsp/\libucosii_bsp.a(osportco.o)
 .comment       0x00000000       0x24 ../Car2X_communication_bsp/\libucosii_bsp.a(targnios.o)
 .comment       0x00000000       0x24 ../Car2X_communication_bsp/\libucosii_bsp.a(nptcp.o)
 .comment       0x00000000       0x24 ../Car2X_communication_bsp/\libucosii_bsp.a(rawsock.o)
 .comment       0x00000000       0x24 ../Car2X_communication_bsp/\libucosii_bsp.a(sockcall.o)
 .comment       0x00000000       0x24 ../Car2X_communication_bsp/\libucosii_bsp.a(socket.o)
 .comment       0x00000000       0x24 ../Car2X_communication_bsp/\libucosii_bsp.a(socket2.o)
 .comment       0x00000000       0x24 ../Car2X_communication_bsp/\libucosii_bsp.a(soselect.o)
 .comment       0x00000000       0x24 ../Car2X_communication_bsp/\libucosii_bsp.a(tcp_in.o)
 .comment       0x00000000       0x24 ../Car2X_communication_bsp/\libucosii_bsp.a(tcp_out.o)
 .comment       0x00000000       0x24 ../Car2X_communication_bsp/\libucosii_bsp.a(tcp_subr.o)
 .comment       0x00000000       0x24 ../Car2X_communication_bsp/\libucosii_bsp.a(tcp_timr.o)
 .comment       0x00000000       0x24 ../Car2X_communication_bsp/\libucosii_bsp.a(tcp_usr.o)
 .comment       0x00000000       0x24 ../Car2X_communication_bsp/\libucosii_bsp.a(tcpport.o)
 .comment       0x00000000       0x24 ../Car2X_communication_bsp/\libucosii_bsp.a(udpsock.o)
 .comment       0x00000000       0x24 ../Car2X_communication_bsp/\libucosii_bsp.a(alt_alarm_start.o)
 .comment       0x00000000       0x24 ../Car2X_communication_bsp/\libucosii_bsp.a(alt_busy_sleep.o)
 .comment       0x00000000       0x24 ../Car2X_communication_bsp/\libucosii_bsp.a(alt_close.o)
 .comment       0x00000000       0x24 ../Car2X_communication_bsp/\libucosii_bsp.a(alt_dcache_flush_all.o)
 .comment       0x00000000       0x24 ../Car2X_communication_bsp/\libucosii_bsp.a(alt_dev.o)
 .comment       0x00000000       0x24 ../Car2X_communication_bsp/\libucosii_bsp.a(alt_dev_llist_insert.o)
 .comment       0x00000000       0x24 ../Car2X_communication_bsp/\libucosii_bsp.a(alt_do_ctors.o)
 .comment       0x00000000       0x24 ../Car2X_communication_bsp/\libucosii_bsp.a(alt_do_dtors.o)
 .comment       0x00000000       0x24 ../Car2X_communication_bsp/\libucosii_bsp.a(alt_errno.o)
 .comment       0x00000000       0x24 ../Car2X_communication_bsp/\libucosii_bsp.a(alt_find_dev.o)
 .comment       0x00000000       0x24 ../Car2X_communication_bsp/\libucosii_bsp.a(alt_icache_flush_all.o)
 .comment       0x00000000       0x24 ../Car2X_communication_bsp/\libucosii_bsp.a(alt_iic.o)
 .comment       0x00000000       0x24 ../Car2X_communication_bsp/\libucosii_bsp.a(alt_iic_isr_register.o)
 .comment       0x00000000       0x24 ../Car2X_communication_bsp/\libucosii_bsp.a(alt_io_redirect.o)
 .comment       0x00000000       0x24 ../Car2X_communication_bsp/\libucosii_bsp.a(alt_irq_handler.o)
 .comment       0x00000000       0x24 ../Car2X_communication_bsp/\libucosii_bsp.a(alt_irq_vars.o)
 .comment       0x00000000       0x24 ../Car2X_communication_bsp/\libucosii_bsp.a(alt_open.o)
 .comment       0x00000000       0x24 ../Car2X_communication_bsp/\libucosii_bsp.a(alt_read.o)
 .comment       0x00000000       0x24 ../Car2X_communication_bsp/\libucosii_bsp.a(alt_release_fd.o)
 .comment       0x00000000       0x24 ../Car2X_communication_bsp/\libucosii_bsp.a(alt_remap_cached.o)
 .comment       0x00000000       0x24 ../Car2X_communication_bsp/\libucosii_bsp.a(alt_remap_uncached.o)
 .comment       0x00000000       0x24 ../Car2X_communication_bsp/\libucosii_bsp.a(alt_uncached_malloc.o)
 .comment       0x00000000       0x24 ../Car2X_communication_bsp/\libucosii_bsp.a(alt_write.o)
 .comment       0x00000000       0x24 ../Car2X_communication_bsp/\libucosii_bsp.a(altera_nios2_qsys_irq.o)
 .comment       0x00000000       0x24 ../Car2X_communication_bsp/\libucosii_bsp.a(os_cpu_c.o)
 .comment       0x00000000       0x24 ../Car2X_communication_bsp/\libucosii_bsp.a(allports.o)
 .comment       0x00000000       0x24 ../Car2X_communication_bsp/\libucosii_bsp.a(timeouts.o)
 .comment       0x00000000       0x24 ../Car2X_communication_bsp/\libucosii_bsp.a(tk_misc.o)
 .comment       0x00000000       0x24 ../Car2X_communication_bsp/\libucosii_bsp.a(alt_iniche_fcntl.o)
 .comment       0x00000000       0x24 ../Car2X_communication_bsp/\libucosii_bsp.a(et_arp.o)
 .comment       0x00000000       0x24 ../Car2X_communication_bsp/\libucosii_bsp.a(iface.o)
 .comment       0x00000000       0x24 ../Car2X_communication_bsp/\libucosii_bsp.a(ip.o)
 .comment       0x00000000       0x24 ../Car2X_communication_bsp/\libucosii_bsp.a(ip_reasm.o)
 .comment       0x00000000       0x24 ../Car2X_communication_bsp/\libucosii_bsp.a(ipdemux.o)
 .comment       0x00000000       0x24 ../Car2X_communication_bsp/\libucosii_bsp.a(ipmc.o)
 .comment       0x00000000       0x24 ../Car2X_communication_bsp/\libucosii_bsp.a(ipport.o)
 .comment       0x00000000       0x24 ../Car2X_communication_bsp/\libucosii_bsp.a(ipraw.o)
 .comment       0x00000000       0x24 ../Car2X_communication_bsp/\libucosii_bsp.a(iproute.o)
 .comment       0x00000000       0x24 ../Car2X_communication_bsp/\libucosii_bsp.a(udp.o)
 .comment       0x00000000       0x24 ../Car2X_communication_bsp/\libucosii_bsp.a(igmp.o)
 .comment       0x00000000       0x24 ../Car2X_communication_bsp/\libucosii_bsp.a(igmp2.o)
 .comment       0x00000000       0x24 ../Car2X_communication_bsp/\libucosii_bsp.a(ipopt.o)
 .comment       0x00000000       0x24 ../Car2X_communication_bsp/\libucosii_bsp.a(u_mctest.o)
 .comment       0x00000000       0x24 ../Car2X_communication_bsp/\libucosii_bsp.a(memdev.o)
 .comment       0x00000000       0x24 ../Car2X_communication_bsp/\libucosii_bsp.a(parseip.o)
 .comment       0x00000000       0x24 ../Car2X_communication_bsp/\libucosii_bsp.a(tcpcksum.o)
 .comment       0x00000000       0x24 ../Car2X_communication_bsp/\libucosii_bsp.a(udp_open.o)
 .comment       0x00000000       0x24 ../Car2X_communication_bsp/\libucosii_bsp.a(in_pcb.o)
 .comment       0x00000000       0x24 ../Car2X_communication_bsp/\libucosii_bsp.a(vfsfiles.o)
 .comment       0x00000000       0x24 ../Car2X_communication_bsp/\libucosii_bsp.a(vfsport.o)
 .comment       0x00000000       0x24 ../Car2X_communication_bsp/\libucosii_bsp.a(alt_dcache_flush.o)
 .comment       0x00000000       0x24 ../Car2X_communication_bsp/\libucosii_bsp.a(alt_fcntl.o)
 .comment       0x00000000       0x24 ../Car2X_communication_bsp/\libucosii_bsp.a(alt_find_file.o)
 .comment       0x00000000       0x24 ../Car2X_communication_bsp/\libucosii_bsp.a(alt_get_fd.o)
 .comment       0x00000000       0x24 ../Car2X_communication_bsp/\libucosii_bsp.a(alt_icache_flush.o)
 .comment       0x00000000       0x24 ../Car2X_communication_bsp/\libucosii_bsp.a(icmp.o)
 .comment       0x00000000       0x24 c:/altera/12.1/nios2eds/bin/gnu/h-i686-mingw32/bin/../lib/gcc/nios2-elf/4.1.2/../../../../nios2-elf/lib\libc.a(lib_a-atexit.o)
 .comment       0x00000000       0x24 c:/altera/12.1/nios2eds/bin/gnu/h-i686-mingw32/bin/../lib/gcc/nios2-elf/4.1.2/../../../../nios2-elf/lib\libc.a(lib_a-atoi.o)
 .comment       0x00000000       0x24 c:/altera/12.1/nios2eds/bin/gnu/h-i686-mingw32/bin/../lib/gcc/nios2-elf/4.1.2/../../../../nios2-elf/lib\libc.a(lib_a-calloc.o)
 .comment       0x00000000       0x24 c:/altera/12.1/nios2eds/bin/gnu/h-i686-mingw32/bin/../lib/gcc/nios2-elf/4.1.2/../../../../nios2-elf/lib\libc.a(lib_a-exit.o)
 .comment       0x00000000       0x24 c:/altera/12.1/nios2eds/bin/gnu/h-i686-mingw32/bin/../lib/gcc/nios2-elf/4.1.2/../../../../nios2-elf/lib\libc.a(lib_a-memcmp.o)
 .comment       0x00000000       0x24 c:/altera/12.1/nios2eds/bin/gnu/h-i686-mingw32/bin/../lib/gcc/nios2-elf/4.1.2/../../../../nios2-elf/lib\libc.a(lib_a-sprintf.o)
 .comment       0x00000000       0x24 c:/altera/12.1/nios2eds/bin/gnu/h-i686-mingw32/bin/../lib/gcc/nios2-elf/4.1.2/../../../../nios2-elf/lib\libc.a(lib_a-strchr.o)
 .comment       0x00000000       0x24 c:/altera/12.1/nios2eds/bin/gnu/h-i686-mingw32/bin/../lib/gcc/nios2-elf/4.1.2/../../../../nios2-elf/lib\libc.a(lib_a-strcpy.o)
 .comment       0x00000000       0x24 c:/altera/12.1/nios2eds/bin/gnu/h-i686-mingw32/bin/../lib/gcc/nios2-elf/4.1.2/../../../../nios2-elf/lib\libc.a(lib_a-strncmp.o)
 .comment       0x00000000       0x24 c:/altera/12.1/nios2eds/bin/gnu/h-i686-mingw32/bin/../lib/gcc/nios2-elf/4.1.2/../../../../nios2-elf/lib\libc.a(lib_a-strtol.o)
 .comment       0x00000000       0x24 c:/altera/12.1/nios2eds/bin/gnu/h-i686-mingw32/bin/../lib/gcc/nios2-elf/4.1.2/../../../../nios2-elf/lib\libc.a(lib_a-vprintf.o)
 .comment       0x00000000       0x24 c:/altera/12.1/nios2eds/bin/gnu/h-i686-mingw32/bin/../lib/gcc/nios2-elf/4.1.2/../../../../nios2-elf/lib\libc.a(lib_a-vsprintf.o)
 .comment       0x00000000       0x24 c:/altera/12.1/nios2eds/bin/gnu/h-i686-mingw32/bin/../lib/gcc/nios2-elf/4.1.2/../../../../nios2-elf/lib\libc.a(lib_a-__atexit.o)
 .comment       0x00000000       0x24 c:/altera/12.1/nios2eds/bin/gnu/h-i686-mingw32/bin/../lib/gcc/nios2-elf/4.1.2/../../../../nios2-elf/lib\libc.a(lib_a-__call_atexit.o)

.debug
 *(.debug)

.line
 *(.line)

.debug_srcinfo
 *(.debug_srcinfo)

.debug_sfnames
 *(.debug_sfnames)

.debug_aranges  0x00000000     0x1ef8
 *(.debug_aranges)
 .debug_aranges
                0x00000000       0x28 ../Car2X_communication_bsp//obj/HAL/src/crt0.o
 .debug_aranges
                0x00000028       0x20 obj/default/alt_error_handler.o
 .debug_aranges
                0x00000048       0x20 obj/default/main.o
 .debug_aranges
                0x00000068       0x20 obj/default/network_utilities.o
 .debug_aranges
                0x00000088       0x20 obj/default/COMM_CarProtocol/ADCInfoMessage.o
 .debug_aranges
                0x000000a8       0x20 obj/default/COMM_CarProtocol/ADCValuesMessage.o
 .debug_aranges
                0x000000c8       0x20 obj/default/COMM_CarProtocol/AccelerationValuesMessage.o
 .debug_aranges
                0x000000e8       0x20 obj/default/COMM_CarProtocol/CarMessage.o
 .debug_aranges
                0x00000108       0x20 obj/default/COMM_CarProtocol/CarProtocol.o
 .debug_aranges
                0x00000128       0x20 obj/default/COMM_CarProtocol/MotorMeasurementMessage.o
 .debug_aranges
                0x00000148       0x20 obj/default/COMM_CarProtocol/MotorVelocityMessage.o
 .debug_aranges
                0x00000168       0x20 obj/default/COMM_CarProtocol/UltrasoundDistanceMessage.o
 .debug_aranges
                0x00000188       0x20 obj/default/COMM_CarProtocol/WelcomeMessage.o
 .debug_aranges
                0x000001a8       0x20 obj/default/CarMessages/CControlMessage.o
 .debug_aranges
                0x000001c8       0x20 obj/default/CarMessages/CEmergencyBrakeMessage.o
 .debug_aranges
                0x000001e8       0x20 obj/default/etc/utility.o
 .debug_aranges
                0x00000208       0x20 obj/default/external_drivers/accelerometer_interface.o
 .debug_aranges
                0x00000228       0x20 obj/default/external_drivers/adc_interface.o
 .debug_aranges
                0x00000248       0x20 obj/default/external_drivers/ultrasound_interface.o
 .debug_aranges
                0x00000268       0x20 obj/default/sensors/ADCSensor.o
 .debug_aranges
                0x00000288       0x20 obj/default/sensors/AccelerationSensor.o
 .debug_aranges
                0x000002a8       0x20 obj/default/sensors/SensorState.o
 .debug_aranges
                0x000002c8       0x20 obj/default/sensors/UltrasoundSensor.o
 .debug_aranges
                0x000002e8       0x20 obj/default/socketserver.o
 .debug_aranges
                0x00000308       0x20 obj/default/terasic_lib/I2C.o
 .debug_aranges
                0x00000328       0x20 obj/default/terasic_lib/accelerometer_adxl345_spi.o
 .debug_aranges
                0x00000348       0x20 obj/default/terasic_lib/adc_spi_read.o
 .debug_aranges
                0x00000368       0x20 obj/default/terasic_lib/terasic_spi.o
 .debug_aranges
                0x00000388       0x20 c:/altera/12.1/nios2eds/bin/gnu/h-i686-mingw32/bin/../lib/gcc/nios2-elf/4.1.2/../../../../nios2-elf/lib\libstdc++.a(eh_personality.o)
 .debug_aranges
                0x000003a8       0x20 c:/altera/12.1/nios2eds/bin/gnu/h-i686-mingw32/bin/../lib/gcc/nios2-elf/4.1.2/../../../../nios2-elf/lib\libstdc++.a(eh_exception.o)
 .debug_aranges
                0x000003c8       0x20 c:/altera/12.1/nios2eds/bin/gnu/h-i686-mingw32/bin/../lib/gcc/nios2-elf/4.1.2/../../../../nios2-elf/lib\libstdc++.a(del_op.o)
 .debug_aranges
                0x000003e8       0x20 c:/altera/12.1/nios2eds/bin/gnu/h-i686-mingw32/bin/../lib/gcc/nios2-elf/4.1.2/../../../../nios2-elf/lib\libstdc++.a(eh_call.o)
 .debug_aranges
                0x00000408       0x20 c:/altera/12.1/nios2eds/bin/gnu/h-i686-mingw32/bin/../lib/gcc/nios2-elf/4.1.2/../../../../nios2-elf/lib\libstdc++.a(class_type_info.o)
 .debug_aranges
                0x00000428       0x20 c:/altera/12.1/nios2eds/bin/gnu/h-i686-mingw32/bin/../lib/gcc/nios2-elf/4.1.2/../../../../nios2-elf/lib\libstdc++.a(new_op.o)
 .debug_aranges
                0x00000448       0x20 c:/altera/12.1/nios2eds/bin/gnu/h-i686-mingw32/bin/../lib/gcc/nios2-elf/4.1.2/../../../../nios2-elf/lib\libstdc++.a(si_class_type_info.o)
 .debug_aranges
                0x00000468       0x20 c:/altera/12.1/nios2eds/bin/gnu/h-i686-mingw32/bin/../lib/gcc/nios2-elf/4.1.2/../../../../nios2-elf/lib\libstdc++.a(eh_alloc.o)
 .debug_aranges
                0x00000488       0x20 c:/altera/12.1/nios2eds/bin/gnu/h-i686-mingw32/bin/../lib/gcc/nios2-elf/4.1.2/../../../../nios2-elf/lib\libstdc++.a(tinfo.o)
 .debug_aranges
                0x000004a8       0x20 c:/altera/12.1/nios2eds/bin/gnu/h-i686-mingw32/bin/../lib/gcc/nios2-elf/4.1.2/../../../../nios2-elf/lib\libstdc++.a(eh_throw.o)
 .debug_aranges
                0x000004c8       0x20 c:/altera/12.1/nios2eds/bin/gnu/h-i686-mingw32/bin/../lib/gcc/nios2-elf/4.1.2/../../../../nios2-elf/lib\libstdc++.a(eh_terminate.o)
 .debug_aranges
                0x000004e8       0x20 c:/altera/12.1/nios2eds/bin/gnu/h-i686-mingw32/bin/../lib/gcc/nios2-elf/4.1.2/../../../../nios2-elf/lib\libstdc++.a(eh_globals.o)
 .debug_aranges
                0x00000508       0x20 c:/altera/12.1/nios2eds/bin/gnu/h-i686-mingw32/bin/../lib/gcc/nios2-elf/4.1.2/../../../../nios2-elf/lib\libstdc++.a(new_handler.o)
 .debug_aranges
                0x00000528       0x20 c:/altera/12.1/nios2eds/bin/gnu/h-i686-mingw32/bin/../lib/gcc/nios2-elf/4.1.2/../../../../nios2-elf/lib\libstdc++.a(eh_catch.o)
 .debug_aranges
                0x00000548       0x20 c:/altera/12.1/nios2eds/bin/gnu/h-i686-mingw32/bin/../lib/gcc/nios2-elf/4.1.2\libgcc.a(lib2-divmod.o)
 .debug_aranges
                0x00000568       0x20 c:/altera/12.1/nios2eds/bin/gnu/h-i686-mingw32/bin/../lib/gcc/nios2-elf/4.1.2\libgcc.a(unwind-sjlj.o)
 .debug_aranges
                0x00000588       0x20 c:/altera/12.1/nios2eds/bin/gnu/h-i686-mingw32/bin/../lib/gcc/nios2-elf/4.1.2/../../../../nios2-elf/lib\libc.a(lib_a-abort.o)
 .debug_aranges
                0x000005a8       0x20 c:/altera/12.1/nios2eds/bin/gnu/h-i686-mingw32/bin/../lib/gcc/nios2-elf/4.1.2/../../../../nios2-elf/lib\libc.a(lib_a-fprintf.o)
 .debug_aranges
                0x000005c8       0x20 c:/altera/12.1/nios2eds/bin/gnu/h-i686-mingw32/bin/../lib/gcc/nios2-elf/4.1.2/../../../../nios2-elf/lib\libc.a(lib_a-fwrite.o)
 .debug_aranges
                0x000005e8       0x20 c:/altera/12.1/nios2eds/bin/gnu/h-i686-mingw32/bin/../lib/gcc/nios2-elf/4.1.2/../../../../nios2-elf/lib\libc.a(lib_a-getc.o)
 .debug_aranges
                0x00000608       0x20 c:/altera/12.1/nios2eds/bin/gnu/h-i686-mingw32/bin/../lib/gcc/nios2-elf/4.1.2/../../../../nios2-elf/lib\libc.a(lib_a-malloc.o)
 .debug_aranges
                0x00000628       0x20 c:/altera/12.1/nios2eds/bin/gnu/h-i686-mingw32/bin/../lib/gcc/nios2-elf/4.1.2/../../../../nios2-elf/lib\libc.a(lib_a-mallocr.o)
 .debug_aranges
                0x00000648       0x20 c:/altera/12.1/nios2eds/bin/gnu/h-i686-mingw32/bin/../lib/gcc/nios2-elf/4.1.2/../../../../nios2-elf/lib\libc.a(lib_a-memmove.o)
 .debug_aranges
                0x00000668       0x20 c:/altera/12.1/nios2eds/bin/gnu/h-i686-mingw32/bin/../lib/gcc/nios2-elf/4.1.2/../../../../nios2-elf/lib\libc.a(lib_a-memset.o)
 .debug_aranges
                0x00000688       0x20 c:/altera/12.1/nios2eds/bin/gnu/h-i686-mingw32/bin/../lib/gcc/nios2-elf/4.1.2/../../../../nios2-elf/lib\libc.a(lib_a-perror.o)
 .debug_aranges
                0x000006a8       0x20 c:/altera/12.1/nios2eds/bin/gnu/h-i686-mingw32/bin/../lib/gcc/nios2-elf/4.1.2/../../../../nios2-elf/lib\libc.a(lib_a-printf.o)
 .debug_aranges
                0x000006c8       0x20 c:/altera/12.1/nios2eds/bin/gnu/h-i686-mingw32/bin/../lib/gcc/nios2-elf/4.1.2/../../../../nios2-elf/lib\libc.a(lib_a-putc.o)
 .debug_aranges
                0x000006e8       0x20 c:/altera/12.1/nios2eds/bin/gnu/h-i686-mingw32/bin/../lib/gcc/nios2-elf/4.1.2/../../../../nios2-elf/lib\libc.a(lib_a-putchar.o)
 .debug_aranges
                0x00000708       0x20 c:/altera/12.1/nios2eds/bin/gnu/h-i686-mingw32/bin/../lib/gcc/nios2-elf/4.1.2/../../../../nios2-elf/lib\libc.a(lib_a-puts.o)
 .debug_aranges
                0x00000728       0x20 c:/altera/12.1/nios2eds/bin/gnu/h-i686-mingw32/bin/../lib/gcc/nios2-elf/4.1.2/../../../../nios2-elf/lib\libc.a(lib_a-rget.o)
 .debug_aranges
                0x00000748       0x20 c:/altera/12.1/nios2eds/bin/gnu/h-i686-mingw32/bin/../lib/gcc/nios2-elf/4.1.2/../../../../nios2-elf/lib\libc.a(lib_a-sbrkr.o)
 .debug_aranges
                0x00000768       0x20 c:/altera/12.1/nios2eds/bin/gnu/h-i686-mingw32/bin/../lib/gcc/nios2-elf/4.1.2/../../../../nios2-elf/lib\libc.a(lib_a-signal.o)
 .debug_aranges
                0x00000788       0x20 c:/altera/12.1/nios2eds/bin/gnu/h-i686-mingw32/bin/../lib/gcc/nios2-elf/4.1.2/../../../../nios2-elf/lib\libc.a(lib_a-signalr.o)
 .debug_aranges
                0x000007a8       0x20 c:/altera/12.1/nios2eds/bin/gnu/h-i686-mingw32/bin/../lib/gcc/nios2-elf/4.1.2/../../../../nios2-elf/lib\libc.a(lib_a-strerror.o)
 .debug_aranges
                0x000007c8       0x20 c:/altera/12.1/nios2eds/bin/gnu/h-i686-mingw32/bin/../lib/gcc/nios2-elf/4.1.2/../../../../nios2-elf/lib\libc.a(lib_a-strlen.o)
 .debug_aranges
                0x000007e8       0x20 c:/altera/12.1/nios2eds/bin/gnu/h-i686-mingw32/bin/../lib/gcc/nios2-elf/4.1.2/../../../../nios2-elf/lib\libc.a(lib_a-u_strerr.o)
 .debug_aranges
                0x00000808       0x20 c:/altera/12.1/nios2eds/bin/gnu/h-i686-mingw32/bin/../lib/gcc/nios2-elf/4.1.2/../../../../nios2-elf/lib\libc.a(lib_a-vfprintf.o)
 .debug_aranges
                0x00000828       0x20 c:/altera/12.1/nios2eds/bin/gnu/h-i686-mingw32/bin/../lib/gcc/nios2-elf/4.1.2/../../../../nios2-elf/lib\libc.a(lib_a-wbuf.o)
 .debug_aranges
                0x00000848       0x20 c:/altera/12.1/nios2eds/bin/gnu/h-i686-mingw32/bin/../lib/gcc/nios2-elf/4.1.2/../../../../nios2-elf/lib\libc.a(lib_a-wsetup.o)
 .debug_aranges
                0x00000868       0x20 c:/altera/12.1/nios2eds/bin/gnu/h-i686-mingw32/bin/../lib/gcc/nios2-elf/4.1.2/../../../../nios2-elf/lib\libc.a(lib_a-dtoa.o)
 .debug_aranges
                0x00000888       0x20 c:/altera/12.1/nios2eds/bin/gnu/h-i686-mingw32/bin/../lib/gcc/nios2-elf/4.1.2/../../../../nios2-elf/lib\libc.a(lib_a-fflush.o)
 .debug_aranges
                0x000008a8       0x20 c:/altera/12.1/nios2eds/bin/gnu/h-i686-mingw32/bin/../lib/gcc/nios2-elf/4.1.2/../../../../nios2-elf/lib\libc.a(lib_a-findfp.o)
 .debug_aranges
                0x000008c8       0x20 c:/altera/12.1/nios2eds/bin/gnu/h-i686-mingw32/bin/../lib/gcc/nios2-elf/4.1.2/../../../../nios2-elf/lib\libc.a(lib_a-fputc.o)
 .debug_aranges
                0x000008e8       0x20 c:/altera/12.1/nios2eds/bin/gnu/h-i686-mingw32/bin/../lib/gcc/nios2-elf/4.1.2/../../../../nios2-elf/lib\libc.a(lib_a-fputs.o)
 .debug_aranges
                0x00000908       0x20 c:/altera/12.1/nios2eds/bin/gnu/h-i686-mingw32/bin/../lib/gcc/nios2-elf/4.1.2/../../../../nios2-elf/lib\libc.a(lib_a-freer.o)
 .debug_aranges
                0x00000928       0x20 c:/altera/12.1/nios2eds/bin/gnu/h-i686-mingw32/bin/../lib/gcc/nios2-elf/4.1.2/../../../../nios2-elf/lib\libc.a(lib_a-fvwrite.o)
 .debug_aranges
                0x00000948       0x20 c:/altera/12.1/nios2eds/bin/gnu/h-i686-mingw32/bin/../lib/gcc/nios2-elf/4.1.2/../../../../nios2-elf/lib\libc.a(lib_a-fwalk.o)
 .debug_aranges
                0x00000968       0x20 c:/altera/12.1/nios2eds/bin/gnu/h-i686-mingw32/bin/../lib/gcc/nios2-elf/4.1.2/../../../../nios2-elf/lib\libc.a(lib_a-locale.o)
 .debug_aranges
                0x00000988       0x20 c:/altera/12.1/nios2eds/bin/gnu/h-i686-mingw32/bin/../lib/gcc/nios2-elf/4.1.2/../../../../nios2-elf/lib\libc.a(lib_a-makebuf.o)
 .debug_aranges
                0x000009a8       0x20 c:/altera/12.1/nios2eds/bin/gnu/h-i686-mingw32/bin/../lib/gcc/nios2-elf/4.1.2/../../../../nios2-elf/lib\libc.a(lib_a-memchr.o)
 .debug_aranges
                0x000009c8       0x20 c:/altera/12.1/nios2eds/bin/gnu/h-i686-mingw32/bin/../lib/gcc/nios2-elf/4.1.2/../../../../nios2-elf/lib\libc.a(lib_a-memcpy.o)
 .debug_aranges
                0x000009e8       0x20 c:/altera/12.1/nios2eds/bin/gnu/h-i686-mingw32/bin/../lib/gcc/nios2-elf/4.1.2/../../../../nios2-elf/lib\libc.a(lib_a-mprec.o)
 .debug_aranges
                0x00000a08       0x20 c:/altera/12.1/nios2eds/bin/gnu/h-i686-mingw32/bin/../lib/gcc/nios2-elf/4.1.2/../../../../nios2-elf/lib\libc.a(lib_a-reallocr.o)
 .debug_aranges
                0x00000a28       0x20 c:/altera/12.1/nios2eds/bin/gnu/h-i686-mingw32/bin/../lib/gcc/nios2-elf/4.1.2/../../../../nios2-elf/lib\libc.a(lib_a-refill.o)
 .debug_aranges
                0x00000a48       0x20 c:/altera/12.1/nios2eds/bin/gnu/h-i686-mingw32/bin/../lib/gcc/nios2-elf/4.1.2/../../../../nios2-elf/lib\libc.a(lib_a-s_isinfd.o)
 .debug_aranges
                0x00000a68       0x20 c:/altera/12.1/nios2eds/bin/gnu/h-i686-mingw32/bin/../lib/gcc/nios2-elf/4.1.2/../../../../nios2-elf/lib\libc.a(lib_a-s_isnand.o)
 .debug_aranges
                0x00000a88       0x20 c:/altera/12.1/nios2eds/bin/gnu/h-i686-mingw32/bin/../lib/gcc/nios2-elf/4.1.2/../../../../nios2-elf/lib\libc.a(lib_a-stdio.o)
 .debug_aranges
                0x00000aa8       0x20 c:/altera/12.1/nios2eds/bin/gnu/h-i686-mingw32/bin/../lib/gcc/nios2-elf/4.1.2/../../../../nios2-elf/lib\libc.a(lib_a-strcmp.o)
 .debug_aranges
                0x00000ac8       0x20 c:/altera/12.1/nios2eds/bin/gnu/h-i686-mingw32/bin/../lib/gcc/nios2-elf/4.1.2/../../../../nios2-elf/lib\libc.a(lib_a-writer.o)
 .debug_aranges
                0x00000ae8       0x20 c:/altera/12.1/nios2eds/bin/gnu/h-i686-mingw32/bin/../lib/gcc/nios2-elf/4.1.2/../../../../nios2-elf/lib\libc.a(lib_a-callocr.o)
 .debug_aranges
                0x00000b08       0x20 c:/altera/12.1/nios2eds/bin/gnu/h-i686-mingw32/bin/../lib/gcc/nios2-elf/4.1.2/../../../../nios2-elf/lib\libc.a(lib_a-closer.o)
 .debug_aranges
                0x00000b28       0x20 c:/altera/12.1/nios2eds/bin/gnu/h-i686-mingw32/bin/../lib/gcc/nios2-elf/4.1.2/../../../../nios2-elf/lib\libc.a(lib_a-fclose.o)
 .debug_aranges
                0x00000b48       0x20 c:/altera/12.1/nios2eds/bin/gnu/h-i686-mingw32/bin/../lib/gcc/nios2-elf/4.1.2/../../../../nios2-elf/lib\libc.a(lib_a-fstatr.o)
 .debug_aranges
                0x00000b68       0x20 c:/altera/12.1/nios2eds/bin/gnu/h-i686-mingw32/bin/../lib/gcc/nios2-elf/4.1.2/../../../../nios2-elf/lib\libc.a(lib_a-isattyr.o)
 .debug_aranges
                0x00000b88       0x20 c:/altera/12.1/nios2eds/bin/gnu/h-i686-mingw32/bin/../lib/gcc/nios2-elf/4.1.2/../../../../nios2-elf/lib\libc.a(lib_a-lseekr.o)
 .debug_aranges
                0x00000ba8       0x20 c:/altera/12.1/nios2eds/bin/gnu/h-i686-mingw32/bin/../lib/gcc/nios2-elf/4.1.2/../../../../nios2-elf/lib\libc.a(lib_a-readr.o)
 .debug_aranges
                0x00000bc8       0x20 c:/altera/12.1/nios2eds/bin/gnu/h-i686-mingw32/bin/../lib/gcc/nios2-elf/4.1.2\libgcc.a(_udivdi3.o)
 .debug_aranges
                0x00000be8       0x20 c:/altera/12.1/nios2eds/bin/gnu/h-i686-mingw32/bin/../lib/gcc/nios2-elf/4.1.2\libgcc.a(_umoddi3.o)
 .debug_aranges
                0x00000c08       0x20 c:/altera/12.1/nios2eds/bin/gnu/h-i686-mingw32/bin/../lib/gcc/nios2-elf/4.1.2\libgcc.a(_addsub_df.o)
 .debug_aranges
                0x00000c28       0x20 c:/altera/12.1/nios2eds/bin/gnu/h-i686-mingw32/bin/../lib/gcc/nios2-elf/4.1.2\libgcc.a(_mul_df.o)
 .debug_aranges
                0x00000c48       0x20 c:/altera/12.1/nios2eds/bin/gnu/h-i686-mingw32/bin/../lib/gcc/nios2-elf/4.1.2\libgcc.a(_div_df.o)
 .debug_aranges
                0x00000c68       0x20 c:/altera/12.1/nios2eds/bin/gnu/h-i686-mingw32/bin/../lib/gcc/nios2-elf/4.1.2\libgcc.a(_eq_df.o)
 .debug_aranges
                0x00000c88       0x20 c:/altera/12.1/nios2eds/bin/gnu/h-i686-mingw32/bin/../lib/gcc/nios2-elf/4.1.2\libgcc.a(_ne_df.o)
 .debug_aranges
                0x00000ca8       0x20 c:/altera/12.1/nios2eds/bin/gnu/h-i686-mingw32/bin/../lib/gcc/nios2-elf/4.1.2\libgcc.a(_gt_df.o)
 .debug_aranges
                0x00000cc8       0x20 c:/altera/12.1/nios2eds/bin/gnu/h-i686-mingw32/bin/../lib/gcc/nios2-elf/4.1.2\libgcc.a(_ge_df.o)
 .debug_aranges
                0x00000ce8       0x20 c:/altera/12.1/nios2eds/bin/gnu/h-i686-mingw32/bin/../lib/gcc/nios2-elf/4.1.2\libgcc.a(_lt_df.o)
 .debug_aranges
                0x00000d08       0x20 c:/altera/12.1/nios2eds/bin/gnu/h-i686-mingw32/bin/../lib/gcc/nios2-elf/4.1.2\libgcc.a(_si_to_df.o)
 .debug_aranges
                0x00000d28       0x20 c:/altera/12.1/nios2eds/bin/gnu/h-i686-mingw32/bin/../lib/gcc/nios2-elf/4.1.2\libgcc.a(_df_to_si.o)
 .debug_aranges
                0x00000d48       0x20 c:/altera/12.1/nios2eds/bin/gnu/h-i686-mingw32/bin/../lib/gcc/nios2-elf/4.1.2\libgcc.a(_usi_to_df.o)
 .debug_aranges
                0x00000d68       0x20 c:/altera/12.1/nios2eds/bin/gnu/h-i686-mingw32/bin/../lib/gcc/nios2-elf/4.1.2\libgcc.a(_muldi3.o)
 .debug_aranges
                0x00000d88       0x20 c:/altera/12.1/nios2eds/bin/gnu/h-i686-mingw32/bin/../lib/gcc/nios2-elf/4.1.2\libgcc.a(_clzsi2.o)
 .debug_aranges
                0x00000da8       0x20 c:/altera/12.1/nios2eds/bin/gnu/h-i686-mingw32/bin/../lib/gcc/nios2-elf/4.1.2\libgcc.a(_pack_df.o)
 .debug_aranges
                0x00000dc8       0x20 c:/altera/12.1/nios2eds/bin/gnu/h-i686-mingw32/bin/../lib/gcc/nios2-elf/4.1.2\libgcc.a(_unpack_df.o)
 .debug_aranges
                0x00000de8       0x20 c:/altera/12.1/nios2eds/bin/gnu/h-i686-mingw32/bin/../lib/gcc/nios2-elf/4.1.2\libgcc.a(_fpcmp_parts_df.o)
 .debug_aranges
                0x00000e08       0x20 ../Car2X_communication_bsp/\libucosii_bsp.a(alt_exit.o)
 .debug_aranges
                0x00000e28       0x20 ../Car2X_communication_bsp/\libucosii_bsp.a(alt_fstat.o)
 .debug_aranges
                0x00000e48       0x20 ../Car2X_communication_bsp/\libucosii_bsp.a(alt_getpid.o)
 .debug_aranges
                0x00000e68       0x20 ../Car2X_communication_bsp/\libucosii_bsp.a(alt_isatty.o)
 .debug_aranges
                0x00000e88       0x20 ../Car2X_communication_bsp/\libucosii_bsp.a(alt_kill.o)
 .debug_aranges
                0x00000ea8       0x20 ../Car2X_communication_bsp/\libucosii_bsp.a(alt_load.o)
 .debug_aranges
                0x00000ec8       0x20 ../Car2X_communication_bsp/\libucosii_bsp.a(alt_lseek.o)
 .debug_aranges
                0x00000ee8       0x20 ../Car2X_communication_bsp/\libucosii_bsp.a(alt_main.o)
 .debug_aranges
                0x00000f08       0x20 ../Car2X_communication_bsp/\libucosii_bsp.a(alt_sbrk.o)
 .debug_aranges
                0x00000f28       0x20 ../Car2X_communication_bsp/\libucosii_bsp.a(alt_tick.o)
 .debug_aranges
                0x00000f48       0x20 ../Car2X_communication_bsp/\libucosii_bsp.a(alt_usleep.o)
 .debug_aranges
                0x00000f68       0x20 ../Car2X_communication_bsp/\libucosii_bsp.a(alt_env_lock.o)
 .debug_aranges
                0x00000f88       0x20 ../Car2X_communication_bsp/\libucosii_bsp.a(alt_malloc_lock.o)
 .debug_aranges
                0x00000fa8       0x20 ../Car2X_communication_bsp/\libucosii_bsp.a(os_core.o)
 .debug_aranges
                0x00000fc8       0x20 ../Car2X_communication_bsp/\libucosii_bsp.a(os_dbg.o)
 .debug_aranges
                0x00000fe8       0x20 ../Car2X_communication_bsp/\libucosii_bsp.a(os_flag.o)
 .debug_aranges
                0x00001008       0x20 ../Car2X_communication_bsp/\libucosii_bsp.a(os_mem.o)
 .debug_aranges
                0x00001028       0x20 ../Car2X_communication_bsp/\libucosii_bsp.a(os_q.o)
 .debug_aranges
                0x00001048       0x20 ../Car2X_communication_bsp/\libucosii_bsp.a(os_sem.o)
 .debug_aranges
                0x00001068       0x20 ../Car2X_communication_bsp/\libucosii_bsp.a(os_task.o)
 .debug_aranges
                0x00001088       0x20 ../Car2X_communication_bsp/\libucosii_bsp.a(os_time.o)
 .debug_aranges
                0x000010a8       0x20 ../Car2X_communication_bsp/\libucosii_bsp.a(alt_sys_init.o)
 .debug_aranges
                0x000010c8       0x20 ../Car2X_communication_bsp/\libucosii_bsp.a(altera_avalon_jtag_uart_fd.o)
 .debug_aranges
                0x000010e8       0x20 ../Car2X_communication_bsp/\libucosii_bsp.a(altera_avalon_jtag_uart_init.o)
 .debug_aranges
                0x00001108       0x20 ../Car2X_communication_bsp/\libucosii_bsp.a(altera_avalon_jtag_uart_ioctl.o)
 .debug_aranges
                0x00001128       0x20 ../Car2X_communication_bsp/\libucosii_bsp.a(altera_avalon_jtag_uart_read.o)
 .debug_aranges
                0x00001148       0x20 ../Car2X_communication_bsp/\libucosii_bsp.a(altera_avalon_jtag_uart_write.o)
 .debug_aranges
                0x00001168       0x20 ../Car2X_communication_bsp/\libucosii_bsp.a(altera_avalon_mutex.o)
 .debug_aranges
                0x00001188       0x20 ../Car2X_communication_bsp/\libucosii_bsp.a(altera_avalon_sgdma.o)
 .debug_aranges
                0x000011a8       0x20 ../Car2X_communication_bsp/\libucosii_bsp.a(altera_avalon_timer_sc.o)
 .debug_aranges
                0x000011c8       0x20 ../Car2X_communication_bsp/\libucosii_bsp.a(altera_avalon_tse.o)
 .debug_aranges
                0x000011e8       0x20 ../Car2X_communication_bsp/\libucosii_bsp.a(ins_tse_mac.o)
 .debug_aranges
                0x00001208       0x20 ../Car2X_communication_bsp/\libucosii_bsp.a(alt_iniche_close.o)
 .debug_aranges
                0x00001228       0x20 ../Car2X_communication_bsp/\libucosii_bsp.a(alt_iniche_dev.o)
 .debug_aranges
                0x00001248       0x20 ../Car2X_communication_bsp/\libucosii_bsp.a(alt_iniche_read.o)
 .debug_aranges
                0x00001268       0x20 ../Car2X_communication_bsp/\libucosii_bsp.a(alt_iniche_write.o)
 .debug_aranges
                0x00001288       0x20 ../Car2X_communication_bsp/\libucosii_bsp.a(ipnet.o)
 .debug_aranges
                0x000012a8       0x20 ../Car2X_communication_bsp/\libucosii_bsp.a(ipstart.o)
 .debug_aranges
                0x000012c8       0x20 ../Car2X_communication_bsp/\libucosii_bsp.a(igmp_cmn.o)
 .debug_aranges
                0x000012e8       0x20 ../Car2X_communication_bsp/\libucosii_bsp.a(bsdsock.o)
 .debug_aranges
                0x00001308       0x20 ../Car2X_communication_bsp/\libucosii_bsp.a(cksum.o)
 .debug_aranges
                0x00001328       0x20 ../Car2X_communication_bsp/\libucosii_bsp.a(in_utils.o)
 .debug_aranges
                0x00001348       0x20 ../Car2X_communication_bsp/\libucosii_bsp.a(netmain.o)
 .debug_aranges
                0x00001368       0x20 ../Car2X_communication_bsp/\libucosii_bsp.a(tk_crnos.o)
 .debug_aranges
                0x00001388       0x20 ../Car2X_communication_bsp/\libucosii_bsp.a(pktalloc.o)
 .debug_aranges
                0x000013a8       0x20 ../Car2X_communication_bsp/\libucosii_bsp.a(q.o)
 .debug_aranges
                0x000013c8       0x20 ../Car2X_communication_bsp/\libucosii_bsp.a(asm_cksum.o)
 .debug_aranges
                0x000013e8       0x20 ../Car2X_communication_bsp/\libucosii_bsp.a(brdutils.o)
 .debug_aranges
                0x00001408       0x20 ../Car2X_communication_bsp/\libucosii_bsp.a(osportco.o)
 .debug_aranges
                0x00001428       0x20 ../Car2X_communication_bsp/\libucosii_bsp.a(targnios.o)
 .debug_aranges
                0x00001448       0x20 ../Car2X_communication_bsp/\libucosii_bsp.a(nptcp.o)
 .debug_aranges
                0x00001468       0x20 ../Car2X_communication_bsp/\libucosii_bsp.a(rawsock.o)
 .debug_aranges
                0x00001488       0x20 ../Car2X_communication_bsp/\libucosii_bsp.a(sockcall.o)
 .debug_aranges
                0x000014a8       0x20 ../Car2X_communication_bsp/\libucosii_bsp.a(socket.o)
 .debug_aranges
                0x000014c8       0x20 ../Car2X_communication_bsp/\libucosii_bsp.a(socket2.o)
 .debug_aranges
                0x000014e8       0x20 ../Car2X_communication_bsp/\libucosii_bsp.a(soselect.o)
 .debug_aranges
                0x00001508       0x20 ../Car2X_communication_bsp/\libucosii_bsp.a(tcp_in.o)
 .debug_aranges
                0x00001528       0x20 ../Car2X_communication_bsp/\libucosii_bsp.a(tcp_out.o)
 .debug_aranges
                0x00001548       0x20 ../Car2X_communication_bsp/\libucosii_bsp.a(tcp_subr.o)
 .debug_aranges
                0x00001568       0x20 ../Car2X_communication_bsp/\libucosii_bsp.a(tcp_timr.o)
 .debug_aranges
                0x00001588       0x20 ../Car2X_communication_bsp/\libucosii_bsp.a(tcp_usr.o)
 .debug_aranges
                0x000015a8       0x20 ../Car2X_communication_bsp/\libucosii_bsp.a(tcpport.o)
 .debug_aranges
                0x000015c8       0x20 ../Car2X_communication_bsp/\libucosii_bsp.a(udpsock.o)
 .debug_aranges
                0x000015e8       0x20 ../Car2X_communication_bsp/\libucosii_bsp.a(alt_alarm_start.o)
 .debug_aranges
                0x00001608       0x20 ../Car2X_communication_bsp/\libucosii_bsp.a(alt_busy_sleep.o)
 .debug_aranges
                0x00001628       0x20 ../Car2X_communication_bsp/\libucosii_bsp.a(alt_close.o)
 .debug_aranges
                0x00001648       0x20 ../Car2X_communication_bsp/\libucosii_bsp.a(alt_dcache_flush_all.o)
 .debug_aranges
                0x00001668       0x20 ../Car2X_communication_bsp/\libucosii_bsp.a(alt_dev.o)
 .debug_aranges
                0x00001688       0x20 ../Car2X_communication_bsp/\libucosii_bsp.a(alt_dev_llist_insert.o)
 .debug_aranges
                0x000016a8       0x20 ../Car2X_communication_bsp/\libucosii_bsp.a(alt_do_ctors.o)
 .debug_aranges
                0x000016c8       0x20 ../Car2X_communication_bsp/\libucosii_bsp.a(alt_do_dtors.o)
 .debug_aranges
                0x000016e8       0x20 ../Car2X_communication_bsp/\libucosii_bsp.a(alt_find_dev.o)
 .debug_aranges
                0x00001708       0x20 ../Car2X_communication_bsp/\libucosii_bsp.a(alt_icache_flush_all.o)
 .debug_aranges
                0x00001728       0x20 ../Car2X_communication_bsp/\libucosii_bsp.a(alt_iic.o)
 .debug_aranges
                0x00001748       0x20 ../Car2X_communication_bsp/\libucosii_bsp.a(alt_iic_isr_register.o)
 .debug_aranges
                0x00001768       0x20 ../Car2X_communication_bsp/\libucosii_bsp.a(alt_io_redirect.o)
 .debug_aranges
                0x00001788       0x30 ../Car2X_communication_bsp/\libucosii_bsp.a(alt_irq_entry.o)
 .debug_aranges
                0x000017b8       0x28 ../Car2X_communication_bsp/\libucosii_bsp.a(alt_irq_handler.o)
 .debug_aranges
                0x000017e0       0x20 ../Car2X_communication_bsp/\libucosii_bsp.a(alt_open.o)
 .debug_aranges
                0x00001800       0x20 ../Car2X_communication_bsp/\libucosii_bsp.a(alt_read.o)
 .debug_aranges
                0x00001820       0x20 ../Car2X_communication_bsp/\libucosii_bsp.a(alt_release_fd.o)
 .debug_aranges
                0x00001840       0x20 ../Car2X_communication_bsp/\libucosii_bsp.a(alt_remap_cached.o)
 .debug_aranges
                0x00001860       0x20 ../Car2X_communication_bsp/\libucosii_bsp.a(alt_remap_uncached.o)
 .debug_aranges
                0x00001880       0x20 ../Car2X_communication_bsp/\libucosii_bsp.a(alt_uncached_malloc.o)
 .debug_aranges
                0x000018a0       0x20 ../Car2X_communication_bsp/\libucosii_bsp.a(alt_write.o)
 .debug_aranges
                0x000018c0       0x20 ../Car2X_communication_bsp/\libucosii_bsp.a(altera_nios2_qsys_irq.o)
 .debug_aranges
                0x000018e0       0x20 ../Car2X_communication_bsp/\libucosii_bsp.a(os_cpu_a.o)
 .debug_aranges
                0x00001900       0x20 ../Car2X_communication_bsp/\libucosii_bsp.a(os_cpu_c.o)
 .debug_aranges
                0x00001920       0x20 ../Car2X_communication_bsp/\libucosii_bsp.a(allports.o)
 .debug_aranges
                0x00001940       0x20 ../Car2X_communication_bsp/\libucosii_bsp.a(timeouts.o)
 .debug_aranges
                0x00001960       0x20 ../Car2X_communication_bsp/\libucosii_bsp.a(tk_misc.o)
 .debug_aranges
                0x00001980       0x20 ../Car2X_communication_bsp/\libucosii_bsp.a(alt_iniche_fcntl.o)
 .debug_aranges
                0x000019a0       0x20 ../Car2X_communication_bsp/\libucosii_bsp.a(et_arp.o)
 .debug_aranges
                0x000019c0       0x20 ../Car2X_communication_bsp/\libucosii_bsp.a(iface.o)
 .debug_aranges
                0x000019e0       0x20 ../Car2X_communication_bsp/\libucosii_bsp.a(ip.o)
 .debug_aranges
                0x00001a00       0x20 ../Car2X_communication_bsp/\libucosii_bsp.a(ip_reasm.o)
 .debug_aranges
                0x00001a20       0x20 ../Car2X_communication_bsp/\libucosii_bsp.a(ipdemux.o)
 .debug_aranges
                0x00001a40       0x20 ../Car2X_communication_bsp/\libucosii_bsp.a(ipmc.o)
 .debug_aranges
                0x00001a60       0x20 ../Car2X_communication_bsp/\libucosii_bsp.a(ipport.o)
 .debug_aranges
                0x00001a80       0x20 ../Car2X_communication_bsp/\libucosii_bsp.a(ipraw.o)
 .debug_aranges
                0x00001aa0       0x20 ../Car2X_communication_bsp/\libucosii_bsp.a(iproute.o)
 .debug_aranges
                0x00001ac0       0x20 ../Car2X_communication_bsp/\libucosii_bsp.a(udp.o)
 .debug_aranges
                0x00001ae0       0x20 ../Car2X_communication_bsp/\libucosii_bsp.a(igmp.o)
 .debug_aranges
                0x00001b00       0x20 ../Car2X_communication_bsp/\libucosii_bsp.a(igmp2.o)
 .debug_aranges
                0x00001b20       0x20 ../Car2X_communication_bsp/\libucosii_bsp.a(ipopt.o)
 .debug_aranges
                0x00001b40       0x20 ../Car2X_communication_bsp/\libucosii_bsp.a(u_mctest.o)
 .debug_aranges
                0x00001b60       0x20 ../Car2X_communication_bsp/\libucosii_bsp.a(memdev.o)
 .debug_aranges
                0x00001b80       0x20 ../Car2X_communication_bsp/\libucosii_bsp.a(parseip.o)
 .debug_aranges
                0x00001ba0       0x20 ../Car2X_communication_bsp/\libucosii_bsp.a(tcpcksum.o)
 .debug_aranges
                0x00001bc0       0x20 ../Car2X_communication_bsp/\libucosii_bsp.a(udp_open.o)
 .debug_aranges
                0x00001be0       0x20 ../Car2X_communication_bsp/\libucosii_bsp.a(in_pcb.o)
 .debug_aranges
                0x00001c00       0x20 ../Car2X_communication_bsp/\libucosii_bsp.a(vfsfiles.o)
 .debug_aranges
                0x00001c20       0x20 ../Car2X_communication_bsp/\libucosii_bsp.a(vfsport.o)
 .debug_aranges
                0x00001c40       0x20 ../Car2X_communication_bsp/\libucosii_bsp.a(alt_dcache_flush.o)
 .debug_aranges
                0x00001c60       0x38 ../Car2X_communication_bsp/\libucosii_bsp.a(alt_exception_entry.o)
 .debug_aranges
                0x00001c98       0x20 ../Car2X_communication_bsp/\libucosii_bsp.a(alt_fcntl.o)
 .debug_aranges
                0x00001cb8       0x20 ../Car2X_communication_bsp/\libucosii_bsp.a(alt_find_file.o)
 .debug_aranges
                0x00001cd8       0x20 ../Car2X_communication_bsp/\libucosii_bsp.a(alt_get_fd.o)
 .debug_aranges
                0x00001cf8       0x20 ../Car2X_communication_bsp/\libucosii_bsp.a(alt_icache_flush.o)
 .debug_aranges
                0x00001d18       0x20 ../Car2X_communication_bsp/\libucosii_bsp.a(icmp.o)
 .debug_aranges
                0x00001d38       0x20 c:/altera/12.1/nios2eds/bin/gnu/h-i686-mingw32/bin/../lib/gcc/nios2-elf/4.1.2/../../../../nios2-elf/lib\libc.a(lib_a-atexit.o)
 .debug_aranges
                0x00001d58       0x20 c:/altera/12.1/nios2eds/bin/gnu/h-i686-mingw32/bin/../lib/gcc/nios2-elf/4.1.2/../../../../nios2-elf/lib\libc.a(lib_a-atoi.o)
 .debug_aranges
                0x00001d78       0x20 c:/altera/12.1/nios2eds/bin/gnu/h-i686-mingw32/bin/../lib/gcc/nios2-elf/4.1.2/../../../../nios2-elf/lib\libc.a(lib_a-calloc.o)
 .debug_aranges
                0x00001d98       0x20 c:/altera/12.1/nios2eds/bin/gnu/h-i686-mingw32/bin/../lib/gcc/nios2-elf/4.1.2/../../../../nios2-elf/lib\libc.a(lib_a-exit.o)
 .debug_aranges
                0x00001db8       0x20 c:/altera/12.1/nios2eds/bin/gnu/h-i686-mingw32/bin/../lib/gcc/nios2-elf/4.1.2/../../../../nios2-elf/lib\libc.a(lib_a-memcmp.o)
 .debug_aranges
                0x00001dd8       0x20 c:/altera/12.1/nios2eds/bin/gnu/h-i686-mingw32/bin/../lib/gcc/nios2-elf/4.1.2/../../../../nios2-elf/lib\libc.a(lib_a-sprintf.o)
 .debug_aranges
                0x00001df8       0x20 c:/altera/12.1/nios2eds/bin/gnu/h-i686-mingw32/bin/../lib/gcc/nios2-elf/4.1.2/../../../../nios2-elf/lib\libc.a(lib_a-strchr.o)
 .debug_aranges
                0x00001e18       0x20 c:/altera/12.1/nios2eds/bin/gnu/h-i686-mingw32/bin/../lib/gcc/nios2-elf/4.1.2/../../../../nios2-elf/lib\libc.a(lib_a-strcpy.o)
 .debug_aranges
                0x00001e38       0x20 c:/altera/12.1/nios2eds/bin/gnu/h-i686-mingw32/bin/../lib/gcc/nios2-elf/4.1.2/../../../../nios2-elf/lib\libc.a(lib_a-strncmp.o)
 .debug_aranges
                0x00001e58       0x20 c:/altera/12.1/nios2eds/bin/gnu/h-i686-mingw32/bin/../lib/gcc/nios2-elf/4.1.2/../../../../nios2-elf/lib\libc.a(lib_a-strtol.o)
 .debug_aranges
                0x00001e78       0x20 c:/altera/12.1/nios2eds/bin/gnu/h-i686-mingw32/bin/../lib/gcc/nios2-elf/4.1.2/../../../../nios2-elf/lib\libc.a(lib_a-vprintf.o)
 .debug_aranges
                0x00001e98       0x20 c:/altera/12.1/nios2eds/bin/gnu/h-i686-mingw32/bin/../lib/gcc/nios2-elf/4.1.2/../../../../nios2-elf/lib\libc.a(lib_a-vsprintf.o)
 .debug_aranges
                0x00001eb8       0x20 c:/altera/12.1/nios2eds/bin/gnu/h-i686-mingw32/bin/../lib/gcc/nios2-elf/4.1.2/../../../../nios2-elf/lib\libc.a(lib_a-__atexit.o)
 .debug_aranges
                0x00001ed8       0x20 c:/altera/12.1/nios2eds/bin/gnu/h-i686-mingw32/bin/../lib/gcc/nios2-elf/4.1.2/../../../../nios2-elf/lib\libc.a(lib_a-__call_atexit.o)

.debug_pubnames
                0x00000000     0x7da9
 *(.debug_pubnames)
 .debug_pubnames
                0x00000000       0x61 obj/default/alt_error_handler.o
 .debug_pubnames
                0x00000061       0x5f obj/default/main.o
 .debug_pubnames
                0x000000c0       0xe7 obj/default/network_utilities.o
 .debug_pubnames
                0x000001a7       0x25 obj/default/tse_my_system.o
 .debug_pubnames
                0x000001cc      0x1b8 obj/default/COMM_CarProtocol/ADCInfoMessage.o
 .debug_pubnames
                0x00000384      0x1de obj/default/COMM_CarProtocol/ADCValuesMessage.o
 .debug_pubnames
                0x00000562      0x289 obj/default/COMM_CarProtocol/AccelerationValuesMessage.o
 .debug_pubnames
                0x000007eb      0x22f obj/default/COMM_CarProtocol/CarMessage.o
 .debug_pubnames
                0x00000a1a      0x19f obj/default/COMM_CarProtocol/CarProtocol.o
 .debug_pubnames
                0x00000bb9      0x263 obj/default/COMM_CarProtocol/MotorMeasurementMessage.o
 .debug_pubnames
                0x00000e1c      0x22a obj/default/COMM_CarProtocol/MotorVelocityMessage.o
 .debug_pubnames
                0x00001046      0x289 obj/default/COMM_CarProtocol/UltrasoundDistanceMessage.o
 .debug_pubnames
                0x000012cf      0x1b8 obj/default/COMM_CarProtocol/WelcomeMessage.o
 .debug_pubnames
                0x00001487      0x1b8 obj/default/CarMessages/CControlMessage.o
 .debug_pubnames
                0x0000163f      0x23d obj/default/CarMessages/CEmergencyBrakeMessage.o
 .debug_pubnames
                0x0000187c       0x2e obj/default/etc/utility.o
 .debug_pubnames
                0x000018aa       0x34 obj/default/external_drivers/accelerometer_interface.o
 .debug_pubnames
                0x000018de       0x26 obj/default/external_drivers/adc_interface.o
 .debug_pubnames
                0x00001904       0x26 obj/default/external_drivers/ultrasound_interface.o
 .debug_pubnames
                0x0000192a      0x125 obj/default/sensors/ADCSensor.o
 .debug_pubnames
                0x00001a4f      0x1f3 obj/default/sensors/AccelerationSensor.o
 .debug_pubnames
                0x00001c42      0x128 obj/default/sensors/SensorState.o
 .debug_pubnames
                0x00001d6a      0x17a obj/default/sensors/UltrasoundSensor.o
 .debug_pubnames
                0x00001ee4       0x9d obj/default/socketserver.o
 .debug_pubnames
                0x00001f81       0xb1 obj/default/terasic_lib/I2C.o
 .debug_pubnames
                0x00002032       0x91 obj/default/terasic_lib/accelerometer_adxl345_spi.o
 .debug_pubnames
                0x000020c3       0x1f obj/default/terasic_lib/adc_spi_read.o
 .debug_pubnames
                0x000020e2       0x65 obj/default/terasic_lib/terasic_spi.o
 .debug_pubnames
                0x00002147       0x46 c:/altera/12.1/nios2eds/bin/gnu/h-i686-mingw32/bin/../lib/gcc/nios2-elf/4.1.2/../../../../nios2-elf/lib\libstdc++.a(eh_personality.o)
 .debug_pubnames
                0x0000218d       0xfd c:/altera/12.1/nios2eds/bin/gnu/h-i686-mingw32/bin/../lib/gcc/nios2-elf/4.1.2/../../../../nios2-elf/lib\libstdc++.a(eh_exception.o)
 .debug_pubnames
                0x0000228a       0x26 c:/altera/12.1/nios2eds/bin/gnu/h-i686-mingw32/bin/../lib/gcc/nios2-elf/4.1.2/../../../../nios2-elf/lib\libstdc++.a(del_op.o)
 .debug_pubnames
                0x000022b0       0x2b c:/altera/12.1/nios2eds/bin/gnu/h-i686-mingw32/bin/../lib/gcc/nios2-elf/4.1.2/../../../../nios2-elf/lib\libstdc++.a(eh_call.o)
 .debug_pubnames
                0x000022db      0x1a8 c:/altera/12.1/nios2eds/bin/gnu/h-i686-mingw32/bin/../lib/gcc/nios2-elf/4.1.2/../../../../nios2-elf/lib\libstdc++.a(class_type_info.o)
 .debug_pubnames
                0x00002483       0x23 c:/altera/12.1/nios2eds/bin/gnu/h-i686-mingw32/bin/../lib/gcc/nios2-elf/4.1.2/../../../../nios2-elf/lib\libstdc++.a(new_op.o)
 .debug_pubnames
                0x000024a6      0x166 c:/altera/12.1/nios2eds/bin/gnu/h-i686-mingw32/bin/../lib/gcc/nios2-elf/4.1.2/../../../../nios2-elf/lib\libstdc++.a(si_class_type_info.o)
 .debug_pubnames
                0x0000260c       0x48 c:/altera/12.1/nios2eds/bin/gnu/h-i686-mingw32/bin/../lib/gcc/nios2-elf/4.1.2/../../../../nios2-elf/lib\libstdc++.a(eh_alloc.o)
 .debug_pubnames
                0x00002654       0xf5 c:/altera/12.1/nios2eds/bin/gnu/h-i686-mingw32/bin/../lib/gcc/nios2-elf/4.1.2/../../../../nios2-elf/lib\libstdc++.a(tinfo.o)
 .debug_pubnames
                0x00002749       0x34 c:/altera/12.1/nios2eds/bin/gnu/h-i686-mingw32/bin/../lib/gcc/nios2-elf/4.1.2/../../../../nios2-elf/lib\libstdc++.a(eh_throw.o)
 .debug_pubnames
                0x0000277d       0x75 c:/altera/12.1/nios2eds/bin/gnu/h-i686-mingw32/bin/../lib/gcc/nios2-elf/4.1.2/../../../../nios2-elf/lib\libstdc++.a(eh_terminate.o)
 .debug_pubnames
                0x000027f2       0x43 c:/altera/12.1/nios2eds/bin/gnu/h-i686-mingw32/bin/../lib/gcc/nios2-elf/4.1.2/../../../../nios2-elf/lib\libstdc++.a(eh_globals.o)
 .debug_pubnames
                0x00002835       0x2b c:/altera/12.1/nios2eds/bin/gnu/h-i686-mingw32/bin/../lib/gcc/nios2-elf/4.1.2/../../../../nios2-elf/lib\libstdc++.a(eh_unex_handler.o)
 .debug_pubnames
                0x00002860       0xa1 c:/altera/12.1/nios2eds/bin/gnu/h-i686-mingw32/bin/../lib/gcc/nios2-elf/4.1.2/../../../../nios2-elf/lib\libstdc++.a(new_handler.o)
 .debug_pubnames
                0x00002901       0x6f c:/altera/12.1/nios2eds/bin/gnu/h-i686-mingw32/bin/../lib/gcc/nios2-elf/4.1.2/../../../../nios2-elf/lib\libstdc++.a(eh_catch.o)
 .debug_pubnames
                0x00002970       0x2a c:/altera/12.1/nios2eds/bin/gnu/h-i686-mingw32/bin/../lib/gcc/nios2-elf/4.1.2/../../../../nios2-elf/lib\libstdc++.a(eh_term_handler.o)
 .debug_pubnames
                0x0000299a       0x48 c:/altera/12.1/nios2eds/bin/gnu/h-i686-mingw32/bin/../lib/gcc/nios2-elf/4.1.2\libgcc.a(lib2-divmod.o)
 .debug_pubnames
                0x000029e2      0x1fb c:/altera/12.1/nios2eds/bin/gnu/h-i686-mingw32/bin/../lib/gcc/nios2-elf/4.1.2\libgcc.a(unwind-sjlj.o)
 .debug_pubnames
                0x00002bdd       0x1c c:/altera/12.1/nios2eds/bin/gnu/h-i686-mingw32/bin/../lib/gcc/nios2-elf/4.1.2/../../../../nios2-elf/lib\libc.a(lib_a-abort.o)
 .debug_pubnames
                0x00002bf9       0x2e c:/altera/12.1/nios2eds/bin/gnu/h-i686-mingw32/bin/../lib/gcc/nios2-elf/4.1.2/../../../../nios2-elf/lib\libc.a(lib_a-ctype_.o)
 .debug_pubnames
                0x00002c27       0x2d c:/altera/12.1/nios2eds/bin/gnu/h-i686-mingw32/bin/../lib/gcc/nios2-elf/4.1.2/../../../../nios2-elf/lib\libc.a(lib_a-fprintf.o)
 .debug_pubnames
                0x00002c54       0x2b c:/altera/12.1/nios2eds/bin/gnu/h-i686-mingw32/bin/../lib/gcc/nios2-elf/4.1.2/../../../../nios2-elf/lib\libc.a(lib_a-fwrite.o)
 .debug_pubnames
                0x00002c7f       0x27 c:/altera/12.1/nios2eds/bin/gnu/h-i686-mingw32/bin/../lib/gcc/nios2-elf/4.1.2/../../../../nios2-elf/lib\libc.a(lib_a-getc.o)
 .debug_pubnames
                0x00002ca6       0x39 c:/altera/12.1/nios2eds/bin/gnu/h-i686-mingw32/bin/../lib/gcc/nios2-elf/4.1.2/../../../../nios2-elf/lib\libc.a(lib_a-impure.o)
 .debug_pubnames
                0x00002cdf       0x26 c:/altera/12.1/nios2eds/bin/gnu/h-i686-mingw32/bin/../lib/gcc/nios2-elf/4.1.2/../../../../nios2-elf/lib\libc.a(lib_a-malloc.o)
 .debug_pubnames
                0x00002d05       0xce c:/altera/12.1/nios2eds/bin/gnu/h-i686-mingw32/bin/../lib/gcc/nios2-elf/4.1.2/../../../../nios2-elf/lib\libc.a(lib_a-mallocr.o)
 .debug_pubnames
                0x00002dd3       0x1e c:/altera/12.1/nios2eds/bin/gnu/h-i686-mingw32/bin/../lib/gcc/nios2-elf/4.1.2/../../../../nios2-elf/lib\libc.a(lib_a-memmove.o)
 .debug_pubnames
                0x00002df1       0x1d c:/altera/12.1/nios2eds/bin/gnu/h-i686-mingw32/bin/../lib/gcc/nios2-elf/4.1.2/../../../../nios2-elf/lib\libc.a(lib_a-memset.o)
 .debug_pubnames
                0x00002e0e       0x2b c:/altera/12.1/nios2eds/bin/gnu/h-i686-mingw32/bin/../lib/gcc/nios2-elf/4.1.2/../../../../nios2-elf/lib\libc.a(lib_a-perror.o)
 .debug_pubnames
                0x00002e39       0x2b c:/altera/12.1/nios2eds/bin/gnu/h-i686-mingw32/bin/../lib/gcc/nios2-elf/4.1.2/../../../../nios2-elf/lib\libc.a(lib_a-printf.o)
 .debug_pubnames
                0x00002e64       0x27 c:/altera/12.1/nios2eds/bin/gnu/h-i686-mingw32/bin/../lib/gcc/nios2-elf/4.1.2/../../../../nios2-elf/lib\libc.a(lib_a-putc.o)
 .debug_pubnames
                0x00002e8b       0x2d c:/altera/12.1/nios2eds/bin/gnu/h-i686-mingw32/bin/../lib/gcc/nios2-elf/4.1.2/../../../../nios2-elf/lib\libc.a(lib_a-putchar.o)
 .debug_pubnames
                0x00002eb8       0x27 c:/altera/12.1/nios2eds/bin/gnu/h-i686-mingw32/bin/../lib/gcc/nios2-elf/4.1.2/../../../../nios2-elf/lib\libc.a(lib_a-puts.o)
 .debug_pubnames
                0x00002edf       0x2c c:/altera/12.1/nios2eds/bin/gnu/h-i686-mingw32/bin/../lib/gcc/nios2-elf/4.1.2/../../../../nios2-elf/lib\libc.a(lib_a-rget.o)
 .debug_pubnames
                0x00002f0b       0x1e c:/altera/12.1/nios2eds/bin/gnu/h-i686-mingw32/bin/../lib/gcc/nios2-elf/4.1.2/../../../../nios2-elf/lib\libc.a(lib_a-sbrkr.o)
 .debug_pubnames
                0x00002f29       0x86 c:/altera/12.1/nios2eds/bin/gnu/h-i686-mingw32/bin/../lib/gcc/nios2-elf/4.1.2/../../../../nios2-elf/lib\libc.a(lib_a-signal.o)
 .debug_pubnames
                0x00002faf       0x2c c:/altera/12.1/nios2eds/bin/gnu/h-i686-mingw32/bin/../lib/gcc/nios2-elf/4.1.2/../../../../nios2-elf/lib\libc.a(lib_a-signalr.o)
 .debug_pubnames
                0x00002fdb       0x1f c:/altera/12.1/nios2eds/bin/gnu/h-i686-mingw32/bin/../lib/gcc/nios2-elf/4.1.2/../../../../nios2-elf/lib\libc.a(lib_a-strerror.o)
 .debug_pubnames
                0x00002ffa       0x1d c:/altera/12.1/nios2eds/bin/gnu/h-i686-mingw32/bin/../lib/gcc/nios2-elf/4.1.2/../../../../nios2-elf/lib\libc.a(lib_a-strlen.o)
 .debug_pubnames
                0x00003017       0x25 c:/altera/12.1/nios2eds/bin/gnu/h-i686-mingw32/bin/../lib/gcc/nios2-elf/4.1.2/../../../../nios2-elf/lib\libc.a(lib_a-u_strerr.o)
 .debug_pubnames
                0x0000303c       0x45 c:/altera/12.1/nios2eds/bin/gnu/h-i686-mingw32/bin/../lib/gcc/nios2-elf/4.1.2/../../../../nios2-elf/lib\libc.a(lib_a-vfprintf.o)
 .debug_pubnames
                0x00003081       0x2c c:/altera/12.1/nios2eds/bin/gnu/h-i686-mingw32/bin/../lib/gcc/nios2-elf/4.1.2/../../../../nios2-elf/lib\libc.a(lib_a-wbuf.o)
 .debug_pubnames
                0x000030ad       0x22 c:/altera/12.1/nios2eds/bin/gnu/h-i686-mingw32/bin/../lib/gcc/nios2-elf/4.1.2/../../../../nios2-elf/lib\libc.a(lib_a-wsetup.o)
 .debug_pubnames
                0x000030cf       0x1e c:/altera/12.1/nios2eds/bin/gnu/h-i686-mingw32/bin/../lib/gcc/nios2-elf/4.1.2/../../../../nios2-elf/lib\libc.a(lib_a-dtoa.o)
 .debug_pubnames
                0x000030ed       0x2b c:/altera/12.1/nios2eds/bin/gnu/h-i686-mingw32/bin/../lib/gcc/nios2-elf/4.1.2/../../../../nios2-elf/lib\libc.a(lib_a-fflush.o)
 .debug_pubnames
                0x00003118       0xdb c:/altera/12.1/nios2eds/bin/gnu/h-i686-mingw32/bin/../lib/gcc/nios2-elf/4.1.2/../../../../nios2-elf/lib\libc.a(lib_a-findfp.o)
 .debug_pubnames
                0x000031f3       0x29 c:/altera/12.1/nios2eds/bin/gnu/h-i686-mingw32/bin/../lib/gcc/nios2-elf/4.1.2/../../../../nios2-elf/lib\libc.a(lib_a-fputc.o)
 .debug_pubnames
                0x0000321c       0x29 c:/altera/12.1/nios2eds/bin/gnu/h-i686-mingw32/bin/../lib/gcc/nios2-elf/4.1.2/../../../../nios2-elf/lib\libc.a(lib_a-fputs.o)
 .debug_pubnames
                0x00003245       0x31 c:/altera/12.1/nios2eds/bin/gnu/h-i686-mingw32/bin/../lib/gcc/nios2-elf/4.1.2/../../../../nios2-elf/lib\libc.a(lib_a-freer.o)
 .debug_pubnames
                0x00003276       0x23 c:/altera/12.1/nios2eds/bin/gnu/h-i686-mingw32/bin/../lib/gcc/nios2-elf/4.1.2/../../../../nios2-elf/lib\libc.a(lib_a-fvwrite.o)
 .debug_pubnames
                0x00003299       0x2e c:/altera/12.1/nios2eds/bin/gnu/h-i686-mingw32/bin/../lib/gcc/nios2-elf/4.1.2/../../../../nios2-elf/lib\libc.a(lib_a-fwalk.o)
 .debug_pubnames
                0x000032c7       0x1c c:/altera/12.1/nios2eds/bin/gnu/h-i686-mingw32/bin/../lib/gcc/nios2-elf/4.1.2/../../../../nios2-elf/lib\libc.a(lib_a-int_errno.o)
 .debug_pubnames
                0x000032e3       0xc3 c:/altera/12.1/nios2eds/bin/gnu/h-i686-mingw32/bin/../lib/gcc/nios2-elf/4.1.2/../../../../nios2-elf/lib\libc.a(lib_a-locale.o)
 .debug_pubnames
                0x000033a6       0x23 c:/altera/12.1/nios2eds/bin/gnu/h-i686-mingw32/bin/../lib/gcc/nios2-elf/4.1.2/../../../../nios2-elf/lib\libc.a(lib_a-makebuf.o)
 .debug_pubnames
                0x000033c9       0x1d c:/altera/12.1/nios2eds/bin/gnu/h-i686-mingw32/bin/../lib/gcc/nios2-elf/4.1.2/../../../../nios2-elf/lib\libc.a(lib_a-memchr.o)
 .debug_pubnames
                0x000033e6       0x1d c:/altera/12.1/nios2eds/bin/gnu/h-i686-mingw32/bin/../lib/gcc/nios2-elf/4.1.2/../../../../nios2-elf/lib\libc.a(lib_a-memcpy.o)
 .debug_pubnames
                0x00003403      0x13a c:/altera/12.1/nios2eds/bin/gnu/h-i686-mingw32/bin/../lib/gcc/nios2-elf/4.1.2/../../../../nios2-elf/lib\libc.a(lib_a-mprec.o)
 .debug_pubnames
                0x0000353d       0x21 c:/altera/12.1/nios2eds/bin/gnu/h-i686-mingw32/bin/../lib/gcc/nios2-elf/4.1.2/../../../../nios2-elf/lib\libc.a(lib_a-reallocr.o)
 .debug_pubnames
                0x0000355e       0x22 c:/altera/12.1/nios2eds/bin/gnu/h-i686-mingw32/bin/../lib/gcc/nios2-elf/4.1.2/../../../../nios2-elf/lib\libc.a(lib_a-refill.o)
 .debug_pubnames
                0x00003580       0x1f c:/altera/12.1/nios2eds/bin/gnu/h-i686-mingw32/bin/../lib/gcc/nios2-elf/4.1.2/../../../../nios2-elf/lib\libc.a(lib_a-s_isinfd.o)
 .debug_pubnames
                0x0000359f       0x1f c:/altera/12.1/nios2eds/bin/gnu/h-i686-mingw32/bin/../lib/gcc/nios2-elf/4.1.2/../../../../nios2-elf/lib\libc.a(lib_a-s_isnand.o)
 .debug_pubnames
                0x000035be       0x44 c:/altera/12.1/nios2eds/bin/gnu/h-i686-mingw32/bin/../lib/gcc/nios2-elf/4.1.2/../../../../nios2-elf/lib\libc.a(lib_a-stdio.o)
 .debug_pubnames
                0x00003602       0x1d c:/altera/12.1/nios2eds/bin/gnu/h-i686-mingw32/bin/../lib/gcc/nios2-elf/4.1.2/../../../../nios2-elf/lib\libc.a(lib_a-strcmp.o)
 .debug_pubnames
                0x0000361f       0x1f c:/altera/12.1/nios2eds/bin/gnu/h-i686-mingw32/bin/../lib/gcc/nios2-elf/4.1.2/../../../../nios2-elf/lib\libc.a(lib_a-writer.o)
 .debug_pubnames
                0x0000363e       0x20 c:/altera/12.1/nios2eds/bin/gnu/h-i686-mingw32/bin/../lib/gcc/nios2-elf/4.1.2/../../../../nios2-elf/lib\libc.a(lib_a-callocr.o)
 .debug_pubnames
                0x0000365e       0x1f c:/altera/12.1/nios2eds/bin/gnu/h-i686-mingw32/bin/../lib/gcc/nios2-elf/4.1.2/../../../../nios2-elf/lib\libc.a(lib_a-closer.o)
 .debug_pubnames
                0x0000367d       0x2b c:/altera/12.1/nios2eds/bin/gnu/h-i686-mingw32/bin/../lib/gcc/nios2-elf/4.1.2/../../../../nios2-elf/lib\libc.a(lib_a-fclose.o)
 .debug_pubnames
                0x000036a8       0x1f c:/altera/12.1/nios2eds/bin/gnu/h-i686-mingw32/bin/../lib/gcc/nios2-elf/4.1.2/../../../../nios2-elf/lib\libc.a(lib_a-fstatr.o)
 .debug_pubnames
                0x000036c7       0x20 c:/altera/12.1/nios2eds/bin/gnu/h-i686-mingw32/bin/../lib/gcc/nios2-elf/4.1.2/../../../../nios2-elf/lib\libc.a(lib_a-isattyr.o)
 .debug_pubnames
                0x000036e7       0x1f c:/altera/12.1/nios2eds/bin/gnu/h-i686-mingw32/bin/../lib/gcc/nios2-elf/4.1.2/../../../../nios2-elf/lib\libc.a(lib_a-lseekr.o)
 .debug_pubnames
                0x00003706       0x1e c:/altera/12.1/nios2eds/bin/gnu/h-i686-mingw32/bin/../lib/gcc/nios2-elf/4.1.2/../../../../nios2-elf/lib\libc.a(lib_a-readr.o)
 .debug_pubnames
                0x00003724       0x20 c:/altera/12.1/nios2eds/bin/gnu/h-i686-mingw32/bin/../lib/gcc/nios2-elf/4.1.2\libgcc.a(_udivdi3.o)
 .debug_pubnames
                0x00003744       0x20 c:/altera/12.1/nios2eds/bin/gnu/h-i686-mingw32/bin/../lib/gcc/nios2-elf/4.1.2\libgcc.a(_umoddi3.o)
 .debug_pubnames
                0x00003764       0x2c c:/altera/12.1/nios2eds/bin/gnu/h-i686-mingw32/bin/../lib/gcc/nios2-elf/4.1.2\libgcc.a(_addsub_df.o)
 .debug_pubnames
                0x00003790       0x1f c:/altera/12.1/nios2eds/bin/gnu/h-i686-mingw32/bin/../lib/gcc/nios2-elf/4.1.2\libgcc.a(_mul_df.o)
 .debug_pubnames
                0x000037af       0x1f c:/altera/12.1/nios2eds/bin/gnu/h-i686-mingw32/bin/../lib/gcc/nios2-elf/4.1.2\libgcc.a(_div_df.o)
 .debug_pubnames
                0x000037ce       0x1e c:/altera/12.1/nios2eds/bin/gnu/h-i686-mingw32/bin/../lib/gcc/nios2-elf/4.1.2\libgcc.a(_eq_df.o)
 .debug_pubnames
                0x000037ec       0x1e c:/altera/12.1/nios2eds/bin/gnu/h-i686-mingw32/bin/../lib/gcc/nios2-elf/4.1.2\libgcc.a(_ne_df.o)
 .debug_pubnames
                0x0000380a       0x1e c:/altera/12.1/nios2eds/bin/gnu/h-i686-mingw32/bin/../lib/gcc/nios2-elf/4.1.2\libgcc.a(_gt_df.o)
 .debug_pubnames
                0x00003828       0x1e c:/altera/12.1/nios2eds/bin/gnu/h-i686-mingw32/bin/../lib/gcc/nios2-elf/4.1.2\libgcc.a(_ge_df.o)
 .debug_pubnames
                0x00003846       0x1e c:/altera/12.1/nios2eds/bin/gnu/h-i686-mingw32/bin/../lib/gcc/nios2-elf/4.1.2\libgcc.a(_lt_df.o)
 .debug_pubnames
                0x00003864       0x22 c:/altera/12.1/nios2eds/bin/gnu/h-i686-mingw32/bin/../lib/gcc/nios2-elf/4.1.2\libgcc.a(_si_to_df.o)
 .debug_pubnames
                0x00003886       0x20 c:/altera/12.1/nios2eds/bin/gnu/h-i686-mingw32/bin/../lib/gcc/nios2-elf/4.1.2\libgcc.a(_df_to_si.o)
 .debug_pubnames
                0x000038a6       0x22 c:/altera/12.1/nios2eds/bin/gnu/h-i686-mingw32/bin/../lib/gcc/nios2-elf/4.1.2\libgcc.a(_thenan_df.o)
 .debug_pubnames
                0x000038c8       0x24 c:/altera/12.1/nios2eds/bin/gnu/h-i686-mingw32/bin/../lib/gcc/nios2-elf/4.1.2\libgcc.a(_usi_to_df.o)
 .debug_pubnames
                0x000038ec       0x1f c:/altera/12.1/nios2eds/bin/gnu/h-i686-mingw32/bin/../lib/gcc/nios2-elf/4.1.2\libgcc.a(_muldi3.o)
 .debug_pubnames
                0x0000390b       0x20 c:/altera/12.1/nios2eds/bin/gnu/h-i686-mingw32/bin/../lib/gcc/nios2-elf/4.1.2\libgcc.a(_clz.o)
 .debug_pubnames
                0x0000392b       0x1f c:/altera/12.1/nios2eds/bin/gnu/h-i686-mingw32/bin/../lib/gcc/nios2-elf/4.1.2\libgcc.a(_clzsi2.o)
 .debug_pubnames
                0x0000394a       0x1f c:/altera/12.1/nios2eds/bin/gnu/h-i686-mingw32/bin/../lib/gcc/nios2-elf/4.1.2\libgcc.a(_pack_df.o)
 .debug_pubnames
                0x00003969       0x21 c:/altera/12.1/nios2eds/bin/gnu/h-i686-mingw32/bin/../lib/gcc/nios2-elf/4.1.2\libgcc.a(_unpack_df.o)
 .debug_pubnames
                0x0000398a       0x26 c:/altera/12.1/nios2eds/bin/gnu/h-i686-mingw32/bin/../lib/gcc/nios2-elf/4.1.2\libgcc.a(_fpcmp_parts_df.o)
 .debug_pubnames
                0x000039b0       0x1c ../Car2X_communication_bsp/\libucosii_bsp.a(alt_exit.o)
 .debug_pubnames
                0x000039cc       0x1c ../Car2X_communication_bsp/\libucosii_bsp.a(alt_fstat.o)
 .debug_pubnames
                0x000039e8       0x1d ../Car2X_communication_bsp/\libucosii_bsp.a(alt_getpid.o)
 .debug_pubnames
                0x00003a05       0x1d ../Car2X_communication_bsp/\libucosii_bsp.a(alt_isatty.o)
 .debug_pubnames
                0x00003a22       0x1b ../Car2X_communication_bsp/\libucosii_bsp.a(alt_kill.o)
 .debug_pubnames
                0x00003a3d       0x1f ../Car2X_communication_bsp/\libucosii_bsp.a(alt_load.o)
 .debug_pubnames
                0x00003a5c       0x1c ../Car2X_communication_bsp/\libucosii_bsp.a(alt_lseek.o)
 .debug_pubnames
                0x00003a78       0x46 ../Car2X_communication_bsp/\libucosii_bsp.a(alt_main.o)
 .debug_pubnames
                0x00003abe       0x1b ../Car2X_communication_bsp/\libucosii_bsp.a(alt_sbrk.o)
 .debug_pubnames
                0x00003ad9       0x68 ../Car2X_communication_bsp/\libucosii_bsp.a(alt_tick.o)
 .debug_pubnames
                0x00003b41       0x1d ../Car2X_communication_bsp/\libucosii_bsp.a(alt_usleep.o)
 .debug_pubnames
                0x00003b5e       0x41 ../Car2X_communication_bsp/\libucosii_bsp.a(alt_env_lock.o)
 .debug_pubnames
                0x00003b9f       0x48 ../Car2X_communication_bsp/\libucosii_bsp.a(alt_malloc_lock.o)
 .debug_pubnames
                0x00003be7      0x3f8 ../Car2X_communication_bsp/\libucosii_bsp.a(os_core.o)
 .debug_pubnames
                0x00003fdf      0x3c5 ../Car2X_communication_bsp/\libucosii_bsp.a(os_dbg.o)
 .debug_pubnames
                0x000043a4       0xd0 ../Car2X_communication_bsp/\libucosii_bsp.a(os_flag.o)
 .debug_pubnames
                0x00004474       0x7c ../Car2X_communication_bsp/\libucosii_bsp.a(os_mem.o)
 .debug_pubnames
                0x000044f0       0xa9 ../Car2X_communication_bsp/\libucosii_bsp.a(os_q.o)
 .debug_pubnames
                0x00004599       0x8a ../Car2X_communication_bsp/\libucosii_bsp.a(os_sem.o)
 .debug_pubnames
                0x00004623       0xe5 ../Car2X_communication_bsp/\libucosii_bsp.a(os_task.o)
 .debug_pubnames
                0x00004708       0x62 ../Car2X_communication_bsp/\libucosii_bsp.a(os_time.o)
 .debug_pubnames
                0x0000476a       0x7a ../Car2X_communication_bsp/\libucosii_bsp.a(alt_sys_init.o)
 .debug_pubnames
                0x000047e4       0xa5 ../Car2X_communication_bsp/\libucosii_bsp.a(altera_avalon_jtag_uart_fd.o)
 .debug_pubnames
                0x00004889       0x55 ../Car2X_communication_bsp/\libucosii_bsp.a(altera_avalon_jtag_uart_init.o)
 .debug_pubnames
                0x000048de       0x34 ../Car2X_communication_bsp/\libucosii_bsp.a(altera_avalon_jtag_uart_ioctl.o)
 .debug_pubnames
                0x00004912       0x33 ../Car2X_communication_bsp/\libucosii_bsp.a(altera_avalon_jtag_uart_read.o)
 .debug_pubnames
                0x00004945       0x34 ../Car2X_communication_bsp/\libucosii_bsp.a(altera_avalon_jtag_uart_write.o)
 .debug_pubnames
                0x00004979       0xff ../Car2X_communication_bsp/\libucosii_bsp.a(altera_avalon_mutex.o)
 .debug_pubnames
                0x00004a78      0x30e ../Car2X_communication_bsp/\libucosii_bsp.a(altera_avalon_sgdma.o)
 .debug_pubnames
                0x00004d86       0x2f ../Car2X_communication_bsp/\libucosii_bsp.a(altera_avalon_timer_sc.o)
 .debug_pubnames
                0x00004db5      0x4e6 ../Car2X_communication_bsp/\libucosii_bsp.a(altera_avalon_tse.o)
 .debug_pubnames
                0x0000529b      0x105 ../Car2X_communication_bsp/\libucosii_bsp.a(ins_tse_mac.o)
 .debug_pubnames
                0x000053a0       0x1c ../Car2X_communication_bsp/\libucosii_bsp.a(alt_iniche_close.o)
 .debug_pubnames
                0x000053bc       0x42 ../Car2X_communication_bsp/\libucosii_bsp.a(alt_iniche_dev.o)
 .debug_pubnames
                0x000053fe       0x1b ../Car2X_communication_bsp/\libucosii_bsp.a(alt_iniche_read.o)
 .debug_pubnames
                0x00005419       0x1c ../Car2X_communication_bsp/\libucosii_bsp.a(alt_iniche_write.o)
 .debug_pubnames
                0x00005435       0x90 ../Car2X_communication_bsp/\libucosii_bsp.a(ipnet.o)
 .debug_pubnames
                0x000054c5       0x81 ../Car2X_communication_bsp/\libucosii_bsp.a(ipstart.o)
 .debug_pubnames
                0x00005546      0x108 ../Car2X_communication_bsp/\libucosii_bsp.a(igmp_cmn.o)
 .debug_pubnames
                0x0000564e       0xc4 ../Car2X_communication_bsp/\libucosii_bsp.a(bsdsock.o)
 .debug_pubnames
                0x00005712       0x27 ../Car2X_communication_bsp/\libucosii_bsp.a(cksum.o)
 .debug_pubnames
                0x00005739       0xcc ../Car2X_communication_bsp/\libucosii_bsp.a(in_utils.o)
 .debug_pubnames
                0x00005805       0xb2 ../Car2X_communication_bsp/\libucosii_bsp.a(netmain.o)
 .debug_pubnames
                0x000058b7       0x97 ../Car2X_communication_bsp/\libucosii_bsp.a(tk_crnos.o)
 .debug_pubnames
                0x0000594e       0xe2 ../Car2X_communication_bsp/\libucosii_bsp.a(pktalloc.o)
 .debug_pubnames
                0x00005a30       0x2d ../Car2X_communication_bsp/\libucosii_bsp.a(q.o)
 .debug_pubnames
                0x00005a5d       0xc5 ../Car2X_communication_bsp/\libucosii_bsp.a(brdutils.o)
 .debug_pubnames
                0x00005b22      0x10c ../Car2X_communication_bsp/\libucosii_bsp.a(osportco.o)
 .debug_pubnames
                0x00005c2e       0xf5 ../Car2X_communication_bsp/\libucosii_bsp.a(targnios.o)
 .debug_pubnames
                0x00005d23      0x190 ../Car2X_communication_bsp/\libucosii_bsp.a(nptcp.o)
 .debug_pubnames
                0x00005eb3       0x46 ../Car2X_communication_bsp/\libucosii_bsp.a(rawsock.o)
 .debug_pubnames
                0x00005ef9      0x108 ../Car2X_communication_bsp/\libucosii_bsp.a(sockcall.o)
 .debug_pubnames
                0x00006001       0xfc ../Car2X_communication_bsp/\libucosii_bsp.a(socket.o)
 .debug_pubnames
                0x000060fd      0x178 ../Car2X_communication_bsp/\libucosii_bsp.a(socket2.o)
 .debug_pubnames
                0x00006275       0x92 ../Car2X_communication_bsp/\libucosii_bsp.a(soselect.o)
 .debug_pubnames
                0x00006307       0xc2 ../Car2X_communication_bsp/\libucosii_bsp.a(tcp_in.o)
 .debug_pubnames
                0x000063c9       0x57 ../Car2X_communication_bsp/\libucosii_bsp.a(tcp_out.o)
 .debug_pubnames
                0x00006420       0xb9 ../Car2X_communication_bsp/\libucosii_bsp.a(tcp_subr.o)
 .debug_pubnames
                0x000064d9       0x96 ../Car2X_communication_bsp/\libucosii_bsp.a(tcp_timr.o)
 .debug_pubnames
                0x0000656f       0x79 ../Car2X_communication_bsp/\libucosii_bsp.a(tcp_usr.o)
 .debug_pubnames
                0x000065e8       0x1e ../Car2X_communication_bsp/\libucosii_bsp.a(tcpport.o)
 .debug_pubnames
                0x00006606       0x76 ../Car2X_communication_bsp/\libucosii_bsp.a(udpsock.o)
 .debug_pubnames
                0x0000667c       0x26 ../Car2X_communication_bsp/\libucosii_bsp.a(alt_alarm_start.o)
 .debug_pubnames
                0x000066a2       0x25 ../Car2X_communication_bsp/\libucosii_bsp.a(alt_busy_sleep.o)
 .debug_pubnames
                0x000066c7       0x20 ../Car2X_communication_bsp/\libucosii_bsp.a(alt_close.o)
 .debug_pubnames
                0x000066e7       0x2b ../Car2X_communication_bsp/\libucosii_bsp.a(alt_dcache_flush_all.o)
 .debug_pubnames
                0x00006712       0x78 ../Car2X_communication_bsp/\libucosii_bsp.a(alt_dev.o)
 .debug_pubnames
                0x0000678a       0x2b ../Car2X_communication_bsp/\libucosii_bsp.a(alt_dev_llist_insert.o)
 .debug_pubnames
                0x000067b5       0x20 ../Car2X_communication_bsp/\libucosii_bsp.a(alt_do_ctors.o)
 .debug_pubnames
                0x000067d5       0x20 ../Car2X_communication_bsp/\libucosii_bsp.a(alt_do_dtors.o)
 .debug_pubnames
                0x000067f5       0x20 ../Car2X_communication_bsp/\libucosii_bsp.a(alt_errno.o)
 .debug_pubnames
                0x00006815       0x23 ../Car2X_communication_bsp/\libucosii_bsp.a(alt_find_dev.o)
 .debug_pubnames
                0x00006838       0x2b ../Car2X_communication_bsp/\libucosii_bsp.a(alt_icache_flush_all.o)
 .debug_pubnames
                0x00006863       0x6e ../Car2X_communication_bsp/\libucosii_bsp.a(alt_iic.o)
 .debug_pubnames
                0x000068d1       0x2b ../Car2X_communication_bsp/\libucosii_bsp.a(alt_iic_isr_register.o)
 .debug_pubnames
                0x000068fc       0x26 ../Car2X_communication_bsp/\libucosii_bsp.a(alt_io_redirect.o)
 .debug_pubnames
                0x00006922       0x32 ../Car2X_communication_bsp/\libucosii_bsp.a(alt_irq_handler.o)
 .debug_pubnames
                0x00006954       0x3b ../Car2X_communication_bsp/\libucosii_bsp.a(alt_irq_vars.o)
 .debug_pubnames
                0x0000698f       0x1b ../Car2X_communication_bsp/\libucosii_bsp.a(alt_open.o)
 .debug_pubnames
                0x000069aa       0x1f ../Car2X_communication_bsp/\libucosii_bsp.a(alt_read.o)
 .debug_pubnames
                0x000069c9       0x25 ../Car2X_communication_bsp/\libucosii_bsp.a(alt_release_fd.o)
 .debug_pubnames
                0x000069ee       0x27 ../Car2X_communication_bsp/\libucosii_bsp.a(alt_remap_cached.o)
 .debug_pubnames
                0x00006a15       0x29 ../Car2X_communication_bsp/\libucosii_bsp.a(alt_remap_uncached.o)
 .debug_pubnames
                0x00006a3e       0x2a ../Car2X_communication_bsp/\libucosii_bsp.a(alt_uncached_malloc.o)
 .debug_pubnames
                0x00006a68       0x20 ../Car2X_communication_bsp/\libucosii_bsp.a(alt_write.o)
 .debug_pubnames
                0x00006a88       0x31 ../Car2X_communication_bsp/\libucosii_bsp.a(altera_nios2_qsys_irq.o)
 .debug_pubnames
                0x00006ab9       0xcd ../Car2X_communication_bsp/\libucosii_bsp.a(os_cpu_c.o)
 .debug_pubnames
                0x00006b86       0xd4 ../Car2X_communication_bsp/\libucosii_bsp.a(allports.o)
 .debug_pubnames
                0x00006c5a       0x6f ../Car2X_communication_bsp/\libucosii_bsp.a(timeouts.o)
 .debug_pubnames
                0x00006cc9       0x35 ../Car2X_communication_bsp/\libucosii_bsp.a(tk_misc.o)
 .debug_pubnames
                0x00006cfe       0x1c ../Car2X_communication_bsp/\libucosii_bsp.a(alt_iniche_fcntl.o)
 .debug_pubnames
                0x00006d1a      0x134 ../Car2X_communication_bsp/\libucosii_bsp.a(et_arp.o)
 .debug_pubnames
                0x00006e4e       0x58 ../Car2X_communication_bsp/\libucosii_bsp.a(iface.o)
 .debug_pubnames
                0x00006ea6       0xea ../Car2X_communication_bsp/\libucosii_bsp.a(ip.o)
 .debug_pubnames
                0x00006f90      0x22e ../Car2X_communication_bsp/\libucosii_bsp.a(ip_reasm.o)
 .debug_pubnames
                0x000071be       0x3c ../Car2X_communication_bsp/\libucosii_bsp.a(ipdemux.o)
 .debug_pubnames
                0x000071fa       0x43 ../Car2X_communication_bsp/\libucosii_bsp.a(ipmc.o)
 .debug_pubnames
                0x0000723d       0x99 ../Car2X_communication_bsp/\libucosii_bsp.a(ipport.o)
 .debug_pubnames
                0x000072d6       0x87 ../Car2X_communication_bsp/\libucosii_bsp.a(ipraw.o)
 .debug_pubnames
                0x0000735d       0x5d ../Car2X_communication_bsp/\libucosii_bsp.a(iproute.o)
 .debug_pubnames
                0x000073ba       0x7f ../Car2X_communication_bsp/\libucosii_bsp.a(udp.o)
 .debug_pubnames
                0x00007439       0x23 ../Car2X_communication_bsp/\libucosii_bsp.a(igmp.o)
 .debug_pubnames
                0x0000745c       0x8d ../Car2X_communication_bsp/\libucosii_bsp.a(igmp2.o)
 .debug_pubnames
                0x000074e9       0x5f ../Car2X_communication_bsp/\libucosii_bsp.a(ipopt.o)
 .debug_pubnames
                0x00007548       0x35 ../Car2X_communication_bsp/\libucosii_bsp.a(u_mctest.o)
 .debug_pubnames
                0x0000757d       0xb1 ../Car2X_communication_bsp/\libucosii_bsp.a(memdev.o)
 .debug_pubnames
                0x0000762e       0xa6 ../Car2X_communication_bsp/\libucosii_bsp.a(parseip.o)
 .debug_pubnames
                0x000076d4       0x20 ../Car2X_communication_bsp/\libucosii_bsp.a(tcpcksum.o)
 .debug_pubnames
                0x000076f4       0x3a ../Car2X_communication_bsp/\libucosii_bsp.a(udp_open.o)
 .debug_pubnames
                0x0000772e       0xc8 ../Car2X_communication_bsp/\libucosii_bsp.a(in_pcb.o)
 .debug_pubnames
                0x000077f6      0x278 ../Car2X_communication_bsp/\libucosii_bsp.a(vfsfiles.o)
 .debug_pubnames
                0x00007a6e       0x1f ../Car2X_communication_bsp/\libucosii_bsp.a(vfsport.o)
 .debug_pubnames
                0x00007a8d       0x27 ../Car2X_communication_bsp/\libucosii_bsp.a(alt_dcache_flush.o)
 .debug_pubnames
                0x00007ab4       0x20 ../Car2X_communication_bsp/\libucosii_bsp.a(alt_fcntl.o)
 .debug_pubnames
                0x00007ad4       0x24 ../Car2X_communication_bsp/\libucosii_bsp.a(alt_find_file.o)
 .debug_pubnames
                0x00007af8       0x21 ../Car2X_communication_bsp/\libucosii_bsp.a(alt_get_fd.o)
 .debug_pubnames
                0x00007b19       0x27 ../Car2X_communication_bsp/\libucosii_bsp.a(alt_icache_flush.o)
 .debug_pubnames
                0x00007b40       0x66 ../Car2X_communication_bsp/\libucosii_bsp.a(icmp.o)
 .debug_pubnames
                0x00007ba6       0x2a c:/altera/12.1/nios2eds/bin/gnu/h-i686-mingw32/bin/../lib/gcc/nios2-elf/4.1.2/../../../../nios2-elf/lib\libc.a(lib_a-atexit.o)
 .debug_pubnames
                0x00007bd0       0x27 c:/altera/12.1/nios2eds/bin/gnu/h-i686-mingw32/bin/../lib/gcc/nios2-elf/4.1.2/../../../../nios2-elf/lib\libc.a(lib_a-atoi.o)
 .debug_pubnames
                0x00007bf7       0x1d c:/altera/12.1/nios2eds/bin/gnu/h-i686-mingw32/bin/../lib/gcc/nios2-elf/4.1.2/../../../../nios2-elf/lib\libc.a(lib_a-calloc.o)
 .debug_pubnames
                0x00007c14       0x1b c:/altera/12.1/nios2eds/bin/gnu/h-i686-mingw32/bin/../lib/gcc/nios2-elf/4.1.2/../../../../nios2-elf/lib\libc.a(lib_a-exit.o)
 .debug_pubnames
                0x00007c2f       0x1d c:/altera/12.1/nios2eds/bin/gnu/h-i686-mingw32/bin/../lib/gcc/nios2-elf/4.1.2/../../../../nios2-elf/lib\libc.a(lib_a-memcmp.o)
 .debug_pubnames
                0x00007c4c       0x2d c:/altera/12.1/nios2eds/bin/gnu/h-i686-mingw32/bin/../lib/gcc/nios2-elf/4.1.2/../../../../nios2-elf/lib\libc.a(lib_a-sprintf.o)
 .debug_pubnames
                0x00007c79       0x1d c:/altera/12.1/nios2eds/bin/gnu/h-i686-mingw32/bin/../lib/gcc/nios2-elf/4.1.2/../../../../nios2-elf/lib\libc.a(lib_a-strchr.o)
 .debug_pubnames
                0x00007c96       0x1d c:/altera/12.1/nios2eds/bin/gnu/h-i686-mingw32/bin/../lib/gcc/nios2-elf/4.1.2/../../../../nios2-elf/lib\libc.a(lib_a-strcpy.o)
 .debug_pubnames
                0x00007cb3       0x1e c:/altera/12.1/nios2eds/bin/gnu/h-i686-mingw32/bin/../lib/gcc/nios2-elf/4.1.2/../../../../nios2-elf/lib\libc.a(lib_a-strncmp.o)
 .debug_pubnames
                0x00007cd1       0x2b c:/altera/12.1/nios2eds/bin/gnu/h-i686-mingw32/bin/../lib/gcc/nios2-elf/4.1.2/../../../../nios2-elf/lib\libc.a(lib_a-strtol.o)
 .debug_pubnames
                0x00007cfc       0x2d c:/altera/12.1/nios2eds/bin/gnu/h-i686-mingw32/bin/../lib/gcc/nios2-elf/4.1.2/../../../../nios2-elf/lib\libc.a(lib_a-vprintf.o)
 .debug_pubnames
                0x00007d29       0x2f c:/altera/12.1/nios2eds/bin/gnu/h-i686-mingw32/bin/../lib/gcc/nios2-elf/4.1.2/../../../../nios2-elf/lib\libc.a(lib_a-vsprintf.o)
 .debug_pubnames
                0x00007d58       0x2a c:/altera/12.1/nios2eds/bin/gnu/h-i686-mingw32/bin/../lib/gcc/nios2-elf/4.1.2/../../../../nios2-elf/lib\libc.a(lib_a-__atexit.o)
 .debug_pubnames
                0x00007d82       0x27 c:/altera/12.1/nios2eds/bin/gnu/h-i686-mingw32/bin/../lib/gcc/nios2-elf/4.1.2/../../../../nios2-elf/lib\libc.a(lib_a-__call_atexit.o)

.debug_info     0x00000000    0x9234c
 *(.debug_info .gnu.linkonce.wi.*)
 .debug_info    0x00000000       0x7a ../Car2X_communication_bsp//obj/HAL/src/crt0.o
 .debug_info    0x0000007a      0xd6f obj/default/alt_error_handler.o
 .debug_info    0x00000de9      0x34b obj/default/main.o
 .debug_info    0x00001134     0x17fa obj/default/network_utilities.o
 .debug_info    0x0000292e      0xfc9 obj/default/tse_my_system.o
 .debug_info    0x000038f7      0xb61 obj/default/COMM_CarProtocol/ADCInfoMessage.o
 .debug_info    0x00004458      0xae2 obj/default/COMM_CarProtocol/ADCValuesMessage.o
 .debug_info    0x00004f3a      0xc5b obj/default/COMM_CarProtocol/AccelerationValuesMessage.o
 .debug_info    0x00005b95      0x94d obj/default/COMM_CarProtocol/CarMessage.o
 .debug_info    0x000064e2      0xc78 obj/default/COMM_CarProtocol/CarProtocol.o
 .debug_info    0x0000715a      0xcb6 obj/default/COMM_CarProtocol/MotorMeasurementMessage.o
 .debug_info    0x00007e10      0xab3 obj/default/COMM_CarProtocol/MotorVelocityMessage.o
 .debug_info    0x000088c3      0xaae obj/default/COMM_CarProtocol/UltrasoundDistanceMessage.o
 .debug_info    0x00009371      0xc9f obj/default/COMM_CarProtocol/WelcomeMessage.o
 .debug_info    0x0000a010      0xa49 obj/default/CarMessages/CControlMessage.o
 .debug_info    0x0000aa59      0x99e obj/default/CarMessages/CEmergencyBrakeMessage.o
 .debug_info    0x0000b3f7      0x205 obj/default/etc/utility.o
 .debug_info    0x0000b5fc      0x22f obj/default/external_drivers/accelerometer_interface.o
 .debug_info    0x0000b82b      0x1f0 obj/default/external_drivers/adc_interface.o
 .debug_info    0x0000ba1b      0x1ea obj/default/external_drivers/ultrasound_interface.o
 .debug_info    0x0000bc05      0xb53 obj/default/sensors/ADCSensor.o
 .debug_info    0x0000c758      0xf5e obj/default/sensors/AccelerationSensor.o
 .debug_info    0x0000d6b6      0x86b obj/default/sensors/SensorState.o
 .debug_info    0x0000df21      0xd1c obj/default/sensors/UltrasoundSensor.o
 .debug_info    0x0000ec3d     0x282b obj/default/socketserver.o
 .debug_info    0x00011468      0x74b obj/default/terasic_lib/I2C.o
 .debug_info    0x00011bb3      0x495 obj/default/terasic_lib/accelerometer_adxl345_spi.o
 .debug_info    0x00012048      0x251 obj/default/terasic_lib/adc_spi_read.o
 .debug_info    0x00012299      0x42b obj/default/terasic_lib/terasic_spi.o
 .debug_info    0x000126c4     0x141a c:/altera/12.1/nios2eds/bin/gnu/h-i686-mingw32/bin/../lib/gcc/nios2-elf/4.1.2/../../../../nios2-elf/lib\libstdc++.a(eh_personality.o)
 .debug_info    0x00013ade      0x511 c:/altera/12.1/nios2eds/bin/gnu/h-i686-mingw32/bin/../lib/gcc/nios2-elf/4.1.2/../../../../nios2-elf/lib\libstdc++.a(eh_exception.o)
 .debug_info    0x00013fef      0x44c c:/altera/12.1/nios2eds/bin/gnu/h-i686-mingw32/bin/../lib/gcc/nios2-elf/4.1.2/../../../../nios2-elf/lib\libstdc++.a(del_op.o)
 .debug_info    0x0001443b      0x8cd c:/altera/12.1/nios2eds/bin/gnu/h-i686-mingw32/bin/../lib/gcc/nios2-elf/4.1.2/../../../../nios2-elf/lib\libstdc++.a(eh_call.o)
 .debug_info    0x00014d08      0x8df c:/altera/12.1/nios2eds/bin/gnu/h-i686-mingw32/bin/../lib/gcc/nios2-elf/4.1.2/../../../../nios2-elf/lib\libstdc++.a(class_type_info.o)
 .debug_info    0x000155e7      0x60c c:/altera/12.1/nios2eds/bin/gnu/h-i686-mingw32/bin/../lib/gcc/nios2-elf/4.1.2/../../../../nios2-elf/lib\libstdc++.a(new_op.o)
 .debug_info    0x00015bf3      0x9dd c:/altera/12.1/nios2eds/bin/gnu/h-i686-mingw32/bin/../lib/gcc/nios2-elf/4.1.2/../../../../nios2-elf/lib\libstdc++.a(si_class_type_info.o)
 .debug_info    0x000165d0      0xaaa c:/altera/12.1/nios2eds/bin/gnu/h-i686-mingw32/bin/../lib/gcc/nios2-elf/4.1.2/../../../../nios2-elf/lib\libstdc++.a(eh_alloc.o)
 .debug_info    0x0001707a      0x77c c:/altera/12.1/nios2eds/bin/gnu/h-i686-mingw32/bin/../lib/gcc/nios2-elf/4.1.2/../../../../nios2-elf/lib\libstdc++.a(tinfo.o)
 .debug_info    0x000177f6      0x6e7 c:/altera/12.1/nios2eds/bin/gnu/h-i686-mingw32/bin/../lib/gcc/nios2-elf/4.1.2/../../../../nios2-elf/lib\libstdc++.a(eh_throw.o)
 .debug_info    0x00017edd      0x9c9 c:/altera/12.1/nios2eds/bin/gnu/h-i686-mingw32/bin/../lib/gcc/nios2-elf/4.1.2/../../../../nios2-elf/lib\libstdc++.a(eh_terminate.o)
 .debug_info    0x000188a6      0xaf4 c:/altera/12.1/nios2eds/bin/gnu/h-i686-mingw32/bin/../lib/gcc/nios2-elf/4.1.2/../../../../nios2-elf/lib\libstdc++.a(eh_globals.o)
 .debug_info    0x0001939a      0x4cc c:/altera/12.1/nios2eds/bin/gnu/h-i686-mingw32/bin/../lib/gcc/nios2-elf/4.1.2/../../../../nios2-elf/lib\libstdc++.a(eh_unex_handler.o)
 .debug_info    0x00019866      0x2ab c:/altera/12.1/nios2eds/bin/gnu/h-i686-mingw32/bin/../lib/gcc/nios2-elf/4.1.2/../../../../nios2-elf/lib\libstdc++.a(new_handler.o)
 .debug_info    0x00019b11      0xa74 c:/altera/12.1/nios2eds/bin/gnu/h-i686-mingw32/bin/../lib/gcc/nios2-elf/4.1.2/../../../../nios2-elf/lib\libstdc++.a(eh_catch.o)
 .debug_info    0x0001a585      0x4e6 c:/altera/12.1/nios2eds/bin/gnu/h-i686-mingw32/bin/../lib/gcc/nios2-elf/4.1.2/../../../../nios2-elf/lib\libstdc++.a(eh_term_handler.o)
 .debug_info    0x0001aa6b      0x21c c:/altera/12.1/nios2eds/bin/gnu/h-i686-mingw32/bin/../lib/gcc/nios2-elf/4.1.2\libgcc.a(lib2-divmod.o)
 .debug_info    0x0001ac87      0xaac c:/altera/12.1/nios2eds/bin/gnu/h-i686-mingw32/bin/../lib/gcc/nios2-elf/4.1.2\libgcc.a(unwind-sjlj.o)
 .debug_info    0x0001b733       0x8f c:/altera/12.1/nios2eds/bin/gnu/h-i686-mingw32/bin/../lib/gcc/nios2-elf/4.1.2/../../../../nios2-elf/lib\libc.a(lib_a-abort.o)
 .debug_info    0x0001b7c2       0xa0 c:/altera/12.1/nios2eds/bin/gnu/h-i686-mingw32/bin/../lib/gcc/nios2-elf/4.1.2/../../../../nios2-elf/lib\libc.a(lib_a-ctype_.o)
 .debug_info    0x0001b862      0x9e1 c:/altera/12.1/nios2eds/bin/gnu/h-i686-mingw32/bin/../lib/gcc/nios2-elf/4.1.2/../../../../nios2-elf/lib\libc.a(lib_a-fprintf.o)
 .debug_info    0x0001c243      0xa83 c:/altera/12.1/nios2eds/bin/gnu/h-i686-mingw32/bin/../lib/gcc/nios2-elf/4.1.2/../../../../nios2-elf/lib\libc.a(lib_a-fwrite.o)
 .debug_info    0x0001ccc6      0x9a7 c:/altera/12.1/nios2eds/bin/gnu/h-i686-mingw32/bin/../lib/gcc/nios2-elf/4.1.2/../../../../nios2-elf/lib\libc.a(lib_a-getc.o)
 .debug_info    0x0001d66d      0x93d c:/altera/12.1/nios2eds/bin/gnu/h-i686-mingw32/bin/../lib/gcc/nios2-elf/4.1.2/../../../../nios2-elf/lib\libc.a(lib_a-impure.o)
 .debug_info    0x0001dfaa      0x96e c:/altera/12.1/nios2eds/bin/gnu/h-i686-mingw32/bin/../lib/gcc/nios2-elf/4.1.2/../../../../nios2-elf/lib\libc.a(lib_a-malloc.o)
 .debug_info    0x0001e918      0xcd0 c:/altera/12.1/nios2eds/bin/gnu/h-i686-mingw32/bin/../lib/gcc/nios2-elf/4.1.2/../../../../nios2-elf/lib\libc.a(lib_a-mallocr.o)
 .debug_info    0x0001f5e8      0x13e c:/altera/12.1/nios2eds/bin/gnu/h-i686-mingw32/bin/../lib/gcc/nios2-elf/4.1.2/../../../../nios2-elf/lib\libc.a(lib_a-memmove.o)
 .debug_info    0x0001f726      0x113 c:/altera/12.1/nios2eds/bin/gnu/h-i686-mingw32/bin/../lib/gcc/nios2-elf/4.1.2/../../../../nios2-elf/lib\libc.a(lib_a-memset.o)
 .debug_info    0x0001f839      0x97b c:/altera/12.1/nios2eds/bin/gnu/h-i686-mingw32/bin/../lib/gcc/nios2-elf/4.1.2/../../../../nios2-elf/lib\libc.a(lib_a-perror.o)
 .debug_info    0x000201b4      0x9d1 c:/altera/12.1/nios2eds/bin/gnu/h-i686-mingw32/bin/../lib/gcc/nios2-elf/4.1.2/../../../../nios2-elf/lib\libc.a(lib_a-printf.o)
 .debug_info    0x00020b85      0x9c1 c:/altera/12.1/nios2eds/bin/gnu/h-i686-mingw32/bin/../lib/gcc/nios2-elf/4.1.2/../../../../nios2-elf/lib\libc.a(lib_a-putc.o)
 .debug_info    0x00021546      0x972 c:/altera/12.1/nios2eds/bin/gnu/h-i686-mingw32/bin/../lib/gcc/nios2-elf/4.1.2/../../../../nios2-elf/lib\libc.a(lib_a-putchar.o)
 .debug_info    0x00021eb8      0xa25 c:/altera/12.1/nios2eds/bin/gnu/h-i686-mingw32/bin/../lib/gcc/nios2-elf/4.1.2/../../../../nios2-elf/lib\libc.a(lib_a-puts.o)
 .debug_info    0x000228dd      0x987 c:/altera/12.1/nios2eds/bin/gnu/h-i686-mingw32/bin/../lib/gcc/nios2-elf/4.1.2/../../../../nios2-elf/lib\libc.a(lib_a-rget.o)
 .debug_info    0x00023264      0x962 c:/altera/12.1/nios2eds/bin/gnu/h-i686-mingw32/bin/../lib/gcc/nios2-elf/4.1.2/../../../../nios2-elf/lib\libc.a(lib_a-sbrkr.o)
 .debug_info    0x00023bc6      0xae9 c:/altera/12.1/nios2eds/bin/gnu/h-i686-mingw32/bin/../lib/gcc/nios2-elf/4.1.2/../../../../nios2-elf/lib\libc.a(lib_a-signal.o)
 .debug_info    0x000246af      0x99e c:/altera/12.1/nios2eds/bin/gnu/h-i686-mingw32/bin/../lib/gcc/nios2-elf/4.1.2/../../../../nios2-elf/lib\libc.a(lib_a-signalr.o)
 .debug_info    0x0002504d       0xbb c:/altera/12.1/nios2eds/bin/gnu/h-i686-mingw32/bin/../lib/gcc/nios2-elf/4.1.2/../../../../nios2-elf/lib\libc.a(lib_a-strerror.o)
 .debug_info    0x00025108       0xdb c:/altera/12.1/nios2eds/bin/gnu/h-i686-mingw32/bin/../lib/gcc/nios2-elf/4.1.2/../../../../nios2-elf/lib\libc.a(lib_a-strlen.o)
 .debug_info    0x000251e3       0x63 c:/altera/12.1/nios2eds/bin/gnu/h-i686-mingw32/bin/../lib/gcc/nios2-elf/4.1.2/../../../../nios2-elf/lib\libc.a(lib_a-u_strerr.o)
 .debug_info    0x00025246     0x10d5 c:/altera/12.1/nios2eds/bin/gnu/h-i686-mingw32/bin/../lib/gcc/nios2-elf/4.1.2/../../../../nios2-elf/lib\libc.a(lib_a-vfprintf.o)
 .debug_info    0x0002631b      0x9ae c:/altera/12.1/nios2eds/bin/gnu/h-i686-mingw32/bin/../lib/gcc/nios2-elf/4.1.2/../../../../nios2-elf/lib\libc.a(lib_a-wbuf.o)
 .debug_info    0x00026cc9      0x95d c:/altera/12.1/nios2eds/bin/gnu/h-i686-mingw32/bin/../lib/gcc/nios2-elf/4.1.2/../../../../nios2-elf/lib\libc.a(lib_a-wsetup.o)
 .debug_info    0x00027626      0xd6f c:/altera/12.1/nios2eds/bin/gnu/h-i686-mingw32/bin/../lib/gcc/nios2-elf/4.1.2/../../../../nios2-elf/lib\libc.a(lib_a-dtoa.o)
 .debug_info    0x00028395      0x9fe c:/altera/12.1/nios2eds/bin/gnu/h-i686-mingw32/bin/../lib/gcc/nios2-elf/4.1.2/../../../../nios2-elf/lib\libc.a(lib_a-fflush.o)
 .debug_info    0x00028d93      0xb72 c:/altera/12.1/nios2eds/bin/gnu/h-i686-mingw32/bin/../lib/gcc/nios2-elf/4.1.2/../../../../nios2-elf/lib\libc.a(lib_a-findfp.o)
 .debug_info    0x00029905      0x9bd c:/altera/12.1/nios2eds/bin/gnu/h-i686-mingw32/bin/../lib/gcc/nios2-elf/4.1.2/../../../../nios2-elf/lib\libc.a(lib_a-fputc.o)
 .debug_info    0x0002a2c2      0xa40 c:/altera/12.1/nios2eds/bin/gnu/h-i686-mingw32/bin/../lib/gcc/nios2-elf/4.1.2/../../../../nios2-elf/lib\libc.a(lib_a-fputs.o)
 .debug_info    0x0002ad02      0xbc9 c:/altera/12.1/nios2eds/bin/gnu/h-i686-mingw32/bin/../lib/gcc/nios2-elf/4.1.2/../../../../nios2-elf/lib\libc.a(lib_a-freer.o)
 .debug_info    0x0002b8cb      0xa88 c:/altera/12.1/nios2eds/bin/gnu/h-i686-mingw32/bin/../lib/gcc/nios2-elf/4.1.2/../../../../nios2-elf/lib\libc.a(lib_a-fvwrite.o)
 .debug_info    0x0002c353      0xaed c:/altera/12.1/nios2eds/bin/gnu/h-i686-mingw32/bin/../lib/gcc/nios2-elf/4.1.2/../../../../nios2-elf/lib\libc.a(lib_a-fwalk.o)
 .debug_info    0x0002ce40       0x8c c:/altera/12.1/nios2eds/bin/gnu/h-i686-mingw32/bin/../lib/gcc/nios2-elf/4.1.2/../../../../nios2-elf/lib\libc.a(lib_a-int_errno.o)
 .debug_info    0x0002cecc      0xb97 c:/altera/12.1/nios2eds/bin/gnu/h-i686-mingw32/bin/../lib/gcc/nios2-elf/4.1.2/../../../../nios2-elf/lib\libc.a(lib_a-locale.o)
 .debug_info    0x0002da63      0xb1a c:/altera/12.1/nios2eds/bin/gnu/h-i686-mingw32/bin/../lib/gcc/nios2-elf/4.1.2/../../../../nios2-elf/lib\libc.a(lib_a-makebuf.o)
 .debug_info    0x0002e57d      0x138 c:/altera/12.1/nios2eds/bin/gnu/h-i686-mingw32/bin/../lib/gcc/nios2-elf/4.1.2/../../../../nios2-elf/lib\libc.a(lib_a-memchr.o)
 .debug_info    0x0002e6b5      0x106 c:/altera/12.1/nios2eds/bin/gnu/h-i686-mingw32/bin/../lib/gcc/nios2-elf/4.1.2/../../../../nios2-elf/lib\libc.a(lib_a-memcpy.o)
 .debug_info    0x0002e7bb     0x1437 c:/altera/12.1/nios2eds/bin/gnu/h-i686-mingw32/bin/../lib/gcc/nios2-elf/4.1.2/../../../../nios2-elf/lib\libc.a(lib_a-mprec.o)
 .debug_info    0x0002fbf2      0xbd7 c:/altera/12.1/nios2eds/bin/gnu/h-i686-mingw32/bin/../lib/gcc/nios2-elf/4.1.2/../../../../nios2-elf/lib\libc.a(lib_a-reallocr.o)
 .debug_info    0x000307c9      0x98b c:/altera/12.1/nios2eds/bin/gnu/h-i686-mingw32/bin/../lib/gcc/nios2-elf/4.1.2/../../../../nios2-elf/lib\libc.a(lib_a-refill.o)
 .debug_info    0x00031154       0xd7 c:/altera/12.1/nios2eds/bin/gnu/h-i686-mingw32/bin/../lib/gcc/nios2-elf/4.1.2/../../../../nios2-elf/lib\libc.a(lib_a-s_isinfd.o)
 .debug_info    0x0003122b       0xd5 c:/altera/12.1/nios2eds/bin/gnu/h-i686-mingw32/bin/../lib/gcc/nios2-elf/4.1.2/../../../../nios2-elf/lib\libc.a(lib_a-s_isnand.o)
 .debug_info    0x00031300      0xaac c:/altera/12.1/nios2eds/bin/gnu/h-i686-mingw32/bin/../lib/gcc/nios2-elf/4.1.2/../../../../nios2-elf/lib\libc.a(lib_a-stdio.o)
 .debug_info    0x00031dac       0xdd c:/altera/12.1/nios2eds/bin/gnu/h-i686-mingw32/bin/../lib/gcc/nios2-elf/4.1.2/../../../../nios2-elf/lib\libc.a(lib_a-strcmp.o)
 .debug_info    0x00031e89      0x993 c:/altera/12.1/nios2eds/bin/gnu/h-i686-mingw32/bin/../lib/gcc/nios2-elf/4.1.2/../../../../nios2-elf/lib\libc.a(lib_a-writer.o)
 .debug_info    0x0003281c      0xa1b c:/altera/12.1/nios2eds/bin/gnu/h-i686-mingw32/bin/../lib/gcc/nios2-elf/4.1.2/../../../../nios2-elf/lib\libc.a(lib_a-callocr.o)
 .debug_info    0x00033237      0x958 c:/altera/12.1/nios2eds/bin/gnu/h-i686-mingw32/bin/../lib/gcc/nios2-elf/4.1.2/../../../../nios2-elf/lib\libc.a(lib_a-closer.o)
 .debug_info    0x00033b8f      0x994 c:/altera/12.1/nios2eds/bin/gnu/h-i686-mingw32/bin/../lib/gcc/nios2-elf/4.1.2/../../../../nios2-elf/lib\libc.a(lib_a-fclose.o)
 .debug_info    0x00034523      0xafc c:/altera/12.1/nios2eds/bin/gnu/h-i686-mingw32/bin/../lib/gcc/nios2-elf/4.1.2/../../../../nios2-elf/lib\libc.a(lib_a-fstatr.o)
 .debug_info    0x0003501f      0x958 c:/altera/12.1/nios2eds/bin/gnu/h-i686-mingw32/bin/../lib/gcc/nios2-elf/4.1.2/../../../../nios2-elf/lib\libc.a(lib_a-isattyr.o)
 .debug_info    0x00035977      0x981 c:/altera/12.1/nios2eds/bin/gnu/h-i686-mingw32/bin/../lib/gcc/nios2-elf/4.1.2/../../../../nios2-elf/lib\libc.a(lib_a-lseekr.o)
 .debug_info    0x000362f8      0x98c c:/altera/12.1/nios2eds/bin/gnu/h-i686-mingw32/bin/../lib/gcc/nios2-elf/4.1.2/../../../../nios2-elf/lib\libc.a(lib_a-readr.o)
 .debug_info    0x00036c84      0x724 c:/altera/12.1/nios2eds/bin/gnu/h-i686-mingw32/bin/../lib/gcc/nios2-elf/4.1.2\libgcc.a(_udivdi3.o)
 .debug_info    0x000373a8      0x751 c:/altera/12.1/nios2eds/bin/gnu/h-i686-mingw32/bin/../lib/gcc/nios2-elf/4.1.2\libgcc.a(_umoddi3.o)
 .debug_info    0x00037af9      0x493 c:/altera/12.1/nios2eds/bin/gnu/h-i686-mingw32/bin/../lib/gcc/nios2-elf/4.1.2\libgcc.a(_addsub_df.o)
 .debug_info    0x00037f8c      0x488 c:/altera/12.1/nios2eds/bin/gnu/h-i686-mingw32/bin/../lib/gcc/nios2-elf/4.1.2\libgcc.a(_mul_df.o)
 .debug_info    0x00038414      0x39b c:/altera/12.1/nios2eds/bin/gnu/h-i686-mingw32/bin/../lib/gcc/nios2-elf/4.1.2\libgcc.a(_div_df.o)
 .debug_info    0x000387af      0x29d c:/altera/12.1/nios2eds/bin/gnu/h-i686-mingw32/bin/../lib/gcc/nios2-elf/4.1.2\libgcc.a(_eq_df.o)
 .debug_info    0x00038a4c      0x29d c:/altera/12.1/nios2eds/bin/gnu/h-i686-mingw32/bin/../lib/gcc/nios2-elf/4.1.2\libgcc.a(_ne_df.o)
 .debug_info    0x00038ce9      0x29d c:/altera/12.1/nios2eds/bin/gnu/h-i686-mingw32/bin/../lib/gcc/nios2-elf/4.1.2\libgcc.a(_gt_df.o)
 .debug_info    0x00038f86      0x29d c:/altera/12.1/nios2eds/bin/gnu/h-i686-mingw32/bin/../lib/gcc/nios2-elf/4.1.2\libgcc.a(_ge_df.o)
 .debug_info    0x00039223      0x29d c:/altera/12.1/nios2eds/bin/gnu/h-i686-mingw32/bin/../lib/gcc/nios2-elf/4.1.2\libgcc.a(_lt_df.o)
 .debug_info    0x000394c0      0x218 c:/altera/12.1/nios2eds/bin/gnu/h-i686-mingw32/bin/../lib/gcc/nios2-elf/4.1.2\libgcc.a(_si_to_df.o)
 .debug_info    0x000396d8      0x2cd c:/altera/12.1/nios2eds/bin/gnu/h-i686-mingw32/bin/../lib/gcc/nios2-elf/4.1.2\libgcc.a(_df_to_si.o)
 .debug_info    0x000399a5      0x164 c:/altera/12.1/nios2eds/bin/gnu/h-i686-mingw32/bin/../lib/gcc/nios2-elf/4.1.2\libgcc.a(_thenan_df.o)
 .debug_info    0x00039b09      0x213 c:/altera/12.1/nios2eds/bin/gnu/h-i686-mingw32/bin/../lib/gcc/nios2-elf/4.1.2\libgcc.a(_usi_to_df.o)
 .debug_info    0x00039d1c      0x215 c:/altera/12.1/nios2eds/bin/gnu/h-i686-mingw32/bin/../lib/gcc/nios2-elf/4.1.2\libgcc.a(_muldi3.o)
 .debug_info    0x00039f31       0xc9 c:/altera/12.1/nios2eds/bin/gnu/h-i686-mingw32/bin/../lib/gcc/nios2-elf/4.1.2\libgcc.a(_clz.o)
 .debug_info    0x00039ffa      0x130 c:/altera/12.1/nios2eds/bin/gnu/h-i686-mingw32/bin/../lib/gcc/nios2-elf/4.1.2\libgcc.a(_clzsi2.o)
 .debug_info    0x0003a12a      0x2fc c:/altera/12.1/nios2eds/bin/gnu/h-i686-mingw32/bin/../lib/gcc/nios2-elf/4.1.2\libgcc.a(_pack_df.o)
 .debug_info    0x0003a426      0x268 c:/altera/12.1/nios2eds/bin/gnu/h-i686-mingw32/bin/../lib/gcc/nios2-elf/4.1.2\libgcc.a(_unpack_df.o)
 .debug_info    0x0003a68e      0x21b c:/altera/12.1/nios2eds/bin/gnu/h-i686-mingw32/bin/../lib/gcc/nios2-elf/4.1.2\libgcc.a(_fpcmp_parts_df.o)
 .debug_info    0x0003a8a9      0x207 ../Car2X_communication_bsp/\libucosii_bsp.a(alt_exit.o)
 .debug_info    0x0003aab0      0x6b3 ../Car2X_communication_bsp/\libucosii_bsp.a(alt_fstat.o)
 .debug_info    0x0003b163       0xa7 ../Car2X_communication_bsp/\libucosii_bsp.a(alt_getpid.o)
 .debug_info    0x0003b20a      0x6b9 ../Car2X_communication_bsp/\libucosii_bsp.a(alt_isatty.o)
 .debug_info    0x0003b8c3      0x1cb ../Car2X_communication_bsp/\libucosii_bsp.a(alt_kill.o)
 .debug_info    0x0003ba8e      0x28c ../Car2X_communication_bsp/\libucosii_bsp.a(alt_load.o)
 .debug_info    0x0003bd1a      0x4ed ../Car2X_communication_bsp/\libucosii_bsp.a(alt_lseek.o)
 .debug_info    0x0003c207      0x3dc ../Car2X_communication_bsp/\libucosii_bsp.a(alt_main.o)
 .debug_info    0x0003c5e3      0x2b6 ../Car2X_communication_bsp/\libucosii_bsp.a(alt_sbrk.o)
 .debug_info    0x0003c899      0x410 ../Car2X_communication_bsp/\libucosii_bsp.a(alt_tick.o)
 .debug_info    0x0003cca9      0x233 ../Car2X_communication_bsp/\libucosii_bsp.a(alt_usleep.o)
 .debug_info    0x0003cedc     0x11d2 ../Car2X_communication_bsp/\libucosii_bsp.a(alt_env_lock.o)
 .debug_info    0x0003e0ae     0x132e ../Car2X_communication_bsp/\libucosii_bsp.a(alt_malloc_lock.o)
 .debug_info    0x0003f3dc     0x1be8 ../Car2X_communication_bsp/\libucosii_bsp.a(os_core.o)
 .debug_info    0x00040fc4     0x112d ../Car2X_communication_bsp/\libucosii_bsp.a(os_dbg.o)
 .debug_info    0x000420f1     0x1243 ../Car2X_communication_bsp/\libucosii_bsp.a(os_flag.o)
 .debug_info    0x00043334      0x80d ../Car2X_communication_bsp/\libucosii_bsp.a(os_mem.o)
 .debug_info    0x00043b41     0x107d ../Car2X_communication_bsp/\libucosii_bsp.a(os_q.o)
 .debug_info    0x00044bbe      0xce5 ../Car2X_communication_bsp/\libucosii_bsp.a(os_sem.o)
 .debug_info    0x000458a3     0x135b ../Car2X_communication_bsp/\libucosii_bsp.a(os_task.o)
 .debug_info    0x00046bfe      0x9df ../Car2X_communication_bsp/\libucosii_bsp.a(os_time.o)
 .debug_info    0x000475dd     0x1828 ../Car2X_communication_bsp/\libucosii_bsp.a(alt_sys_init.o)
 .debug_info    0x00048e05      0x9d1 ../Car2X_communication_bsp/\libucosii_bsp.a(altera_avalon_jtag_uart_fd.o)
 .debug_info    0x000497d6      0x94f ../Car2X_communication_bsp/\libucosii_bsp.a(altera_avalon_jtag_uart_init.o)
 .debug_info    0x0004a125      0x63b ../Car2X_communication_bsp/\libucosii_bsp.a(altera_avalon_jtag_uart_ioctl.o)
 .debug_info    0x0004a760      0x7f7 ../Car2X_communication_bsp/\libucosii_bsp.a(altera_avalon_jtag_uart_read.o)
 .debug_info    0x0004af57      0x7ee ../Car2X_communication_bsp/\libucosii_bsp.a(altera_avalon_jtag_uart_write.o)
 .debug_info    0x0004b745      0x736 ../Car2X_communication_bsp/\libucosii_bsp.a(altera_avalon_mutex.o)
 .debug_info    0x0004be7b      0xf1e ../Car2X_communication_bsp/\libucosii_bsp.a(altera_avalon_sgdma.o)
 .debug_info    0x0004cd99      0x38a ../Car2X_communication_bsp/\libucosii_bsp.a(altera_avalon_timer_sc.o)
 .debug_info    0x0004d123     0x310d ../Car2X_communication_bsp/\libucosii_bsp.a(altera_avalon_tse.o)
 .debug_info    0x00050230     0x2b3b ../Car2X_communication_bsp/\libucosii_bsp.a(ins_tse_mac.o)
 .debug_info    0x00052d6b      0x1b5 ../Car2X_communication_bsp/\libucosii_bsp.a(alt_iniche_close.o)
 .debug_info    0x00052f20      0xb5c ../Car2X_communication_bsp/\libucosii_bsp.a(alt_iniche_dev.o)
 .debug_info    0x00053a7c      0x1df ../Car2X_communication_bsp/\libucosii_bsp.a(alt_iniche_read.o)
 .debug_info    0x00053c5b      0x1e6 ../Car2X_communication_bsp/\libucosii_bsp.a(alt_iniche_write.o)
 .debug_info    0x00053e41      0xc48 ../Car2X_communication_bsp/\libucosii_bsp.a(ipnet.o)
 .debug_info    0x00054a89      0xb9b ../Car2X_communication_bsp/\libucosii_bsp.a(ipstart.o)
 .debug_info    0x00055624     0x152f ../Car2X_communication_bsp/\libucosii_bsp.a(igmp_cmn.o)
 .debug_info    0x00056b53     0x145f ../Car2X_communication_bsp/\libucosii_bsp.a(bsdsock.o)
 .debug_info    0x00057fb2      0x251 ../Car2X_communication_bsp/\libucosii_bsp.a(cksum.o)
 .debug_info    0x00058203      0x743 ../Car2X_communication_bsp/\libucosii_bsp.a(in_utils.o)
 .debug_info    0x00058946      0x55d ../Car2X_communication_bsp/\libucosii_bsp.a(netmain.o)
 .debug_info    0x00058ea3      0x96a ../Car2X_communication_bsp/\libucosii_bsp.a(tk_crnos.o)
 .debug_info    0x0005980d      0xca7 ../Car2X_communication_bsp/\libucosii_bsp.a(pktalloc.o)
 .debug_info    0x0005a4b4      0x2eb ../Car2X_communication_bsp/\libucosii_bsp.a(q.o)
 .debug_info    0x0005a79f       0x8c ../Car2X_communication_bsp/\libucosii_bsp.a(asm_cksum.o)
 .debug_info    0x0005a82b      0xeac ../Car2X_communication_bsp/\libucosii_bsp.a(brdutils.o)
 .debug_info    0x0005b6d7      0x6de ../Car2X_communication_bsp/\libucosii_bsp.a(osportco.o)
 .debug_info    0x0005bdb5      0x65b ../Car2X_communication_bsp/\libucosii_bsp.a(targnios.o)
 .debug_info    0x0005c410     0x2522 ../Car2X_communication_bsp/\libucosii_bsp.a(nptcp.o)
 .debug_info    0x0005e932     0x11da ../Car2X_communication_bsp/\libucosii_bsp.a(rawsock.o)
 .debug_info    0x0005fb0c     0x1c98 ../Car2X_communication_bsp/\libucosii_bsp.a(sockcall.o)
 .debug_info    0x000617a4     0x1a9e ../Car2X_communication_bsp/\libucosii_bsp.a(socket.o)
 .debug_info    0x00063242     0x1564 ../Car2X_communication_bsp/\libucosii_bsp.a(socket2.o)
 .debug_info    0x000647a6     0x127d ../Car2X_communication_bsp/\libucosii_bsp.a(soselect.o)
 .debug_info    0x00065a23     0x212f ../Car2X_communication_bsp/\libucosii_bsp.a(tcp_in.o)
 .debug_info    0x00067b52     0x1e1e ../Car2X_communication_bsp/\libucosii_bsp.a(tcp_out.o)
 .debug_info    0x00069970     0x1e86 ../Car2X_communication_bsp/\libucosii_bsp.a(tcp_subr.o)
 .debug_info    0x0006b7f6     0x1ca1 ../Car2X_communication_bsp/\libucosii_bsp.a(tcp_timr.o)
 .debug_info    0x0006d497     0x1c5e ../Car2X_communication_bsp/\libucosii_bsp.a(tcp_usr.o)
 .debug_info    0x0006f0f5      0x1b1 ../Car2X_communication_bsp/\libucosii_bsp.a(tcpport.o)
 .debug_info    0x0006f2a6     0x1334 ../Car2X_communication_bsp/\libucosii_bsp.a(udpsock.o)
 .debug_info    0x000705da      0x441 ../Car2X_communication_bsp/\libucosii_bsp.a(alt_alarm_start.o)
 .debug_info    0x00070a1b      0x1aa ../Car2X_communication_bsp/\libucosii_bsp.a(alt_busy_sleep.o)
 .debug_info    0x00070bc5      0x4be ../Car2X_communication_bsp/\libucosii_bsp.a(alt_close.o)
 .debug_info    0x00071083      0x16e ../Car2X_communication_bsp/\libucosii_bsp.a(alt_dcache_flush_all.o)
 .debug_info    0x000711f1      0x7dc ../Car2X_communication_bsp/\libucosii_bsp.a(alt_dev.o)
 .debug_info    0x000719cd      0x2b6 ../Car2X_communication_bsp/\libucosii_bsp.a(alt_dev_llist_insert.o)
 .debug_info    0x00071c83      0x10e ../Car2X_communication_bsp/\libucosii_bsp.a(alt_do_ctors.o)
 .debug_info    0x00071d91      0x10d ../Car2X_communication_bsp/\libucosii_bsp.a(alt_do_dtors.o)
 .debug_info    0x00071e9e      0x163 ../Car2X_communication_bsp/\libucosii_bsp.a(alt_errno.o)
 .debug_info    0x00072001      0x46b ../Car2X_communication_bsp/\libucosii_bsp.a(alt_find_dev.o)
 .debug_info    0x0007246c      0x15b ../Car2X_communication_bsp/\libucosii_bsp.a(alt_icache_flush_all.o)
 .debug_info    0x000725c7      0x492 ../Car2X_communication_bsp/\libucosii_bsp.a(alt_iic.o)
 .debug_info    0x00072a59      0x313 ../Car2X_communication_bsp/\libucosii_bsp.a(alt_iic_isr_register.o)
 .debug_info    0x00072d6c      0x6e8 ../Car2X_communication_bsp/\libucosii_bsp.a(alt_io_redirect.o)
 .debug_info    0x00073454       0x83 ../Car2X_communication_bsp/\libucosii_bsp.a(alt_irq_entry.o)
 .debug_info    0x000734d7      0x2b9 ../Car2X_communication_bsp/\libucosii_bsp.a(alt_irq_handler.o)
 .debug_info    0x00073790      0x166 ../Car2X_communication_bsp/\libucosii_bsp.a(alt_irq_vars.o)
 .debug_info    0x000738f6      0x569 ../Car2X_communication_bsp/\libucosii_bsp.a(alt_open.o)
 .debug_info    0x00073e5f      0x6e1 ../Car2X_communication_bsp/\libucosii_bsp.a(alt_read.o)
 .debug_info    0x00074540      0x44e ../Car2X_communication_bsp/\libucosii_bsp.a(alt_release_fd.o)
 .debug_info    0x0007498e      0x190 ../Car2X_communication_bsp/\libucosii_bsp.a(alt_remap_cached.o)
 .debug_info    0x00074b1e      0x194 ../Car2X_communication_bsp/\libucosii_bsp.a(alt_remap_uncached.o)
 .debug_info    0x00074cb2      0x196 ../Car2X_communication_bsp/\libucosii_bsp.a(alt_uncached_malloc.o)
 .debug_info    0x00074e48      0x6ea ../Car2X_communication_bsp/\libucosii_bsp.a(alt_write.o)
 .debug_info    0x00075532      0x162 ../Car2X_communication_bsp/\libucosii_bsp.a(altera_nios2_qsys_irq.o)
 .debug_info    0x00075694       0x82 ../Car2X_communication_bsp/\libucosii_bsp.a(os_cpu_a.o)
 .debug_info    0x00075716     0x12d2 ../Car2X_communication_bsp/\libucosii_bsp.a(os_cpu_c.o)
 .debug_info    0x000769e8      0xd9e ../Car2X_communication_bsp/\libucosii_bsp.a(allports.o)
 .debug_info    0x00077786      0x3c0 ../Car2X_communication_bsp/\libucosii_bsp.a(timeouts.o)
 .debug_info    0x00077b46      0x21f ../Car2X_communication_bsp/\libucosii_bsp.a(tk_misc.o)
 .debug_info    0x00077d65      0x20c ../Car2X_communication_bsp/\libucosii_bsp.a(alt_iniche_fcntl.o)
 .debug_info    0x00077f71     0x1278 ../Car2X_communication_bsp/\libucosii_bsp.a(et_arp.o)
 .debug_info    0x000791e9      0xf96 ../Car2X_communication_bsp/\libucosii_bsp.a(iface.o)
 .debug_info    0x0007a17f     0x1703 ../Car2X_communication_bsp/\libucosii_bsp.a(ip.o)
 .debug_info    0x0007b882     0x1867 ../Car2X_communication_bsp/\libucosii_bsp.a(ip_reasm.o)
 .debug_info    0x0007d0e9      0xde8 ../Car2X_communication_bsp/\libucosii_bsp.a(ipdemux.o)
 .debug_info    0x0007ded1      0xa44 ../Car2X_communication_bsp/\libucosii_bsp.a(ipmc.o)
 .debug_info    0x0007e915      0x2e2 ../Car2X_communication_bsp/\libucosii_bsp.a(ipport.o)
 .debug_info    0x0007ebf7      0xf55 ../Car2X_communication_bsp/\libucosii_bsp.a(ipraw.o)
 .debug_info    0x0007fb4c      0xf00 ../Car2X_communication_bsp/\libucosii_bsp.a(iproute.o)
 .debug_info    0x00080a4c     0x1297 ../Car2X_communication_bsp/\libucosii_bsp.a(udp.o)
 .debug_info    0x00081ce3     0x1131 ../Car2X_communication_bsp/\libucosii_bsp.a(igmp.o)
 .debug_info    0x00082e14     0x1365 ../Car2X_communication_bsp/\libucosii_bsp.a(igmp2.o)
 .debug_info    0x00084179     0x10e0 ../Car2X_communication_bsp/\libucosii_bsp.a(ipopt.o)
 .debug_info    0x00085259      0xbb8 ../Car2X_communication_bsp/\libucosii_bsp.a(u_mctest.o)
 .debug_info    0x00085e11      0x73e ../Car2X_communication_bsp/\libucosii_bsp.a(memdev.o)
 .debug_info    0x0008654f      0x6e9 ../Car2X_communication_bsp/\libucosii_bsp.a(parseip.o)
 .debug_info    0x00086c38      0x3e3 ../Car2X_communication_bsp/\libucosii_bsp.a(tcpcksum.o)
 .debug_info    0x0008701b      0xb26 ../Car2X_communication_bsp/\libucosii_bsp.a(udp_open.o)
 .debug_info    0x00087b41     0x12b2 ../Car2X_communication_bsp/\libucosii_bsp.a(in_pcb.o)
 .debug_info    0x00088df3      0xfe3 ../Car2X_communication_bsp/\libucosii_bsp.a(vfsfiles.o)
 .debug_info    0x00089dd6      0x1b2 ../Car2X_communication_bsp/\libucosii_bsp.a(vfsport.o)
 .debug_info    0x00089f88      0x1a3 ../Car2X_communication_bsp/\libucosii_bsp.a(alt_dcache_flush.o)
 .debug_info    0x0008a12b       0x89 ../Car2X_communication_bsp/\libucosii_bsp.a(alt_exception_entry.o)
 .debug_info    0x0008a1b4      0x6ff ../Car2X_communication_bsp/\libucosii_bsp.a(alt_fcntl.o)
 .debug_info    0x0008a8b3      0x472 ../Car2X_communication_bsp/\libucosii_bsp.a(alt_find_file.o)
 .debug_info    0x0008ad25      0x604 ../Car2X_communication_bsp/\libucosii_bsp.a(alt_get_fd.o)
 .debug_info    0x0008b329      0x1a3 ../Car2X_communication_bsp/\libucosii_bsp.a(alt_icache_flush.o)
 .debug_info    0x0008b4cc     0x1185 ../Car2X_communication_bsp/\libucosii_bsp.a(icmp.o)
 .debug_info    0x0008c651      0x181 c:/altera/12.1/nios2eds/bin/gnu/h-i686-mingw32/bin/../lib/gcc/nios2-elf/4.1.2/../../../../nios2-elf/lib\libc.a(lib_a-atexit.o)
 .debug_info    0x0008c7d2      0x960 c:/altera/12.1/nios2eds/bin/gnu/h-i686-mingw32/bin/../lib/gcc/nios2-elf/4.1.2/../../../../nios2-elf/lib\libc.a(lib_a-atoi.o)
 .debug_info    0x0008d132      0x954 c:/altera/12.1/nios2eds/bin/gnu/h-i686-mingw32/bin/../lib/gcc/nios2-elf/4.1.2/../../../../nios2-elf/lib\libc.a(lib_a-calloc.o)
 .debug_info    0x0008da86      0x93f c:/altera/12.1/nios2eds/bin/gnu/h-i686-mingw32/bin/../lib/gcc/nios2-elf/4.1.2/../../../../nios2-elf/lib\libc.a(lib_a-exit.o)
 .debug_info    0x0008e3c5      0x115 c:/altera/12.1/nios2eds/bin/gnu/h-i686-mingw32/bin/../lib/gcc/nios2-elf/4.1.2/../../../../nios2-elf/lib\libc.a(lib_a-memcmp.o)
 .debug_info    0x0008e4da      0xa16 c:/altera/12.1/nios2eds/bin/gnu/h-i686-mingw32/bin/../lib/gcc/nios2-elf/4.1.2/../../../../nios2-elf/lib\libc.a(lib_a-sprintf.o)
 .debug_info    0x0008eef0      0x118 c:/altera/12.1/nios2eds/bin/gnu/h-i686-mingw32/bin/../lib/gcc/nios2-elf/4.1.2/../../../../nios2-elf/lib\libc.a(lib_a-strchr.o)
 .debug_info    0x0008f008      0x110 c:/altera/12.1/nios2eds/bin/gnu/h-i686-mingw32/bin/../lib/gcc/nios2-elf/4.1.2/../../../../nios2-elf/lib\libc.a(lib_a-strcpy.o)
 .debug_info    0x0008f118       0xf5 c:/altera/12.1/nios2eds/bin/gnu/h-i686-mingw32/bin/../lib/gcc/nios2-elf/4.1.2/../../../../nios2-elf/lib\libc.a(lib_a-strncmp.o)
 .debug_info    0x0008f20d      0xa2a c:/altera/12.1/nios2eds/bin/gnu/h-i686-mingw32/bin/../lib/gcc/nios2-elf/4.1.2/../../../../nios2-elf/lib\libc.a(lib_a-strtol.o)
 .debug_info    0x0008fc37      0x9aa c:/altera/12.1/nios2eds/bin/gnu/h-i686-mingw32/bin/../lib/gcc/nios2-elf/4.1.2/../../../../nios2-elf/lib\libc.a(lib_a-vprintf.o)
 .debug_info    0x000905e1      0x9ed c:/altera/12.1/nios2eds/bin/gnu/h-i686-mingw32/bin/../lib/gcc/nios2-elf/4.1.2/../../../../nios2-elf/lib\libc.a(lib_a-vsprintf.o)
 .debug_info    0x00090fce      0x99c c:/altera/12.1/nios2eds/bin/gnu/h-i686-mingw32/bin/../lib/gcc/nios2-elf/4.1.2/../../../../nios2-elf/lib\libc.a(lib_a-__atexit.o)
 .debug_info    0x0009196a      0x9e2 c:/altera/12.1/nios2eds/bin/gnu/h-i686-mingw32/bin/../lib/gcc/nios2-elf/4.1.2/../../../../nios2-elf/lib\libc.a(lib_a-__call_atexit.o)

.debug_abbrev   0x00000000    0x16ceb
 *(.debug_abbrev)
 .debug_abbrev  0x00000000       0x12 ../Car2X_communication_bsp//obj/HAL/src/crt0.o
 .debug_abbrev  0x00000012      0x1f1 obj/default/alt_error_handler.o
 .debug_abbrev  0x00000203       0xfe obj/default/main.o
 .debug_abbrev  0x00000301      0x241 obj/default/network_utilities.o
 .debug_abbrev  0x00000542       0xe5 obj/default/tse_my_system.o
 .debug_abbrev  0x00000627      0x23e obj/default/COMM_CarProtocol/ADCInfoMessage.o
 .debug_abbrev  0x00000865      0x22f obj/default/COMM_CarProtocol/ADCValuesMessage.o
 .debug_abbrev  0x00000a94      0x23e obj/default/COMM_CarProtocol/AccelerationValuesMessage.o
 .debug_abbrev  0x00000cd2      0x1dd obj/default/COMM_CarProtocol/CarMessage.o
 .debug_abbrev  0x00000eaf      0x2a5 obj/default/COMM_CarProtocol/CarProtocol.o
 .debug_abbrev  0x00001154      0x212 obj/default/COMM_CarProtocol/MotorMeasurementMessage.o
 .debug_abbrev  0x00001366      0x212 obj/default/COMM_CarProtocol/MotorVelocityMessage.o
 .debug_abbrev  0x00001578      0x212 obj/default/COMM_CarProtocol/UltrasoundDistanceMessage.o
 .debug_abbrev  0x0000178a      0x25f obj/default/COMM_CarProtocol/WelcomeMessage.o
 .debug_abbrev  0x000019e9      0x223 obj/default/CarMessages/CControlMessage.o
 .debug_abbrev  0x00001c0c      0x212 obj/default/CarMessages/CEmergencyBrakeMessage.o
 .debug_abbrev  0x00001e1e       0x74 obj/default/etc/utility.o
 .debug_abbrev  0x00001e92       0xb7 obj/default/external_drivers/accelerometer_interface.o
 .debug_abbrev  0x00001f49       0x76 obj/default/external_drivers/adc_interface.o
 .debug_abbrev  0x00001fbf       0x6b obj/default/external_drivers/ultrasound_interface.o
 .debug_abbrev  0x0000202a      0x251 obj/default/sensors/ADCSensor.o
 .debug_abbrev  0x0000227b      0x228 obj/default/sensors/AccelerationSensor.o
 .debug_abbrev  0x000024a3      0x1e6 obj/default/sensors/SensorState.o
 .debug_abbrev  0x00002689      0x239 obj/default/sensors/UltrasoundSensor.o
 .debug_abbrev  0x000028c2      0x2c3 obj/default/socketserver.o
 .debug_abbrev  0x00002b85      0x166 obj/default/terasic_lib/I2C.o
 .debug_abbrev  0x00002ceb       0xdc obj/default/terasic_lib/accelerometer_adxl345_spi.o
 .debug_abbrev  0x00002dc7       0x9b obj/default/terasic_lib/adc_spi_read.o
 .debug_abbrev  0x00002e62       0xcb obj/default/terasic_lib/terasic_spi.o
 .debug_abbrev  0x00002f2d      0x52a c:/altera/12.1/nios2eds/bin/gnu/h-i686-mingw32/bin/../lib/gcc/nios2-elf/4.1.2/../../../../nios2-elf/lib\libstdc++.a(eh_personality.o)
 .debug_abbrev  0x00003457      0x21c c:/altera/12.1/nios2eds/bin/gnu/h-i686-mingw32/bin/../lib/gcc/nios2-elf/4.1.2/../../../../nios2-elf/lib\libstdc++.a(eh_exception.o)
 .debug_abbrev  0x00003673      0x13d c:/altera/12.1/nios2eds/bin/gnu/h-i686-mingw32/bin/../lib/gcc/nios2-elf/4.1.2/../../../../nios2-elf/lib\libstdc++.a(del_op.o)
 .debug_abbrev  0x000037b0      0x2ad c:/altera/12.1/nios2eds/bin/gnu/h-i686-mingw32/bin/../lib/gcc/nios2-elf/4.1.2/../../../../nios2-elf/lib\libstdc++.a(eh_call.o)
 .debug_abbrev  0x00003a5d      0x3cb c:/altera/12.1/nios2eds/bin/gnu/h-i686-mingw32/bin/../lib/gcc/nios2-elf/4.1.2/../../../../nios2-elf/lib\libstdc++.a(class_type_info.o)
 .debug_abbrev  0x00003e28      0x227 c:/altera/12.1/nios2eds/bin/gnu/h-i686-mingw32/bin/../lib/gcc/nios2-elf/4.1.2/../../../../nios2-elf/lib\libstdc++.a(new_op.o)
 .debug_abbrev  0x0000404f      0x3e2 c:/altera/12.1/nios2eds/bin/gnu/h-i686-mingw32/bin/../lib/gcc/nios2-elf/4.1.2/../../../../nios2-elf/lib\libstdc++.a(si_class_type_info.o)
 .debug_abbrev  0x00004431      0x2f8 c:/altera/12.1/nios2eds/bin/gnu/h-i686-mingw32/bin/../lib/gcc/nios2-elf/4.1.2/../../../../nios2-elf/lib\libstdc++.a(eh_alloc.o)
 .debug_abbrev  0x00004729      0x34f c:/altera/12.1/nios2eds/bin/gnu/h-i686-mingw32/bin/../lib/gcc/nios2-elf/4.1.2/../../../../nios2-elf/lib\libstdc++.a(tinfo.o)
 .debug_abbrev  0x00004a78      0x2a1 c:/altera/12.1/nios2eds/bin/gnu/h-i686-mingw32/bin/../lib/gcc/nios2-elf/4.1.2/../../../../nios2-elf/lib\libstdc++.a(eh_throw.o)
 .debug_abbrev  0x00004d19      0x2dc c:/altera/12.1/nios2eds/bin/gnu/h-i686-mingw32/bin/../lib/gcc/nios2-elf/4.1.2/../../../../nios2-elf/lib\libstdc++.a(eh_terminate.o)
 .debug_abbrev  0x00004ff5      0x340 c:/altera/12.1/nios2eds/bin/gnu/h-i686-mingw32/bin/../lib/gcc/nios2-elf/4.1.2/../../../../nios2-elf/lib\libstdc++.a(eh_globals.o)
 .debug_abbrev  0x00005335      0x1e6 c:/altera/12.1/nios2eds/bin/gnu/h-i686-mingw32/bin/../lib/gcc/nios2-elf/4.1.2/../../../../nios2-elf/lib\libstdc++.a(eh_unex_handler.o)
 .debug_abbrev  0x0000551b      0x1c6 c:/altera/12.1/nios2eds/bin/gnu/h-i686-mingw32/bin/../lib/gcc/nios2-elf/4.1.2/../../../../nios2-elf/lib\libstdc++.a(new_handler.o)
 .debug_abbrev  0x000056e1      0x31f c:/altera/12.1/nios2eds/bin/gnu/h-i686-mingw32/bin/../lib/gcc/nios2-elf/4.1.2/../../../../nios2-elf/lib\libstdc++.a(eh_catch.o)
 .debug_abbrev  0x00005a00      0x1fc c:/altera/12.1/nios2eds/bin/gnu/h-i686-mingw32/bin/../lib/gcc/nios2-elf/4.1.2/../../../../nios2-elf/lib\libstdc++.a(eh_term_handler.o)
 .debug_abbrev  0x00005bfc       0xe0 c:/altera/12.1/nios2eds/bin/gnu/h-i686-mingw32/bin/../lib/gcc/nios2-elf/4.1.2\libgcc.a(lib2-divmod.o)
 .debug_abbrev  0x00005cdc      0x363 c:/altera/12.1/nios2eds/bin/gnu/h-i686-mingw32/bin/../lib/gcc/nios2-elf/4.1.2\libgcc.a(unwind-sjlj.o)
 .debug_abbrev  0x0000603f       0x3f c:/altera/12.1/nios2eds/bin/gnu/h-i686-mingw32/bin/../lib/gcc/nios2-elf/4.1.2/../../../../nios2-elf/lib\libc.a(lib_a-abort.o)
 .debug_abbrev  0x0000607e       0x61 c:/altera/12.1/nios2eds/bin/gnu/h-i686-mingw32/bin/../lib/gcc/nios2-elf/4.1.2/../../../../nios2-elf/lib\libc.a(lib_a-ctype_.o)
 .debug_abbrev  0x000060df      0x197 c:/altera/12.1/nios2eds/bin/gnu/h-i686-mingw32/bin/../lib/gcc/nios2-elf/4.1.2/../../../../nios2-elf/lib\libc.a(lib_a-fprintf.o)
 .debug_abbrev  0x00006276      0x1b1 c:/altera/12.1/nios2eds/bin/gnu/h-i686-mingw32/bin/../lib/gcc/nios2-elf/4.1.2/../../../../nios2-elf/lib\libc.a(lib_a-fwrite.o)
 .debug_abbrev  0x00006427      0x17f c:/altera/12.1/nios2eds/bin/gnu/h-i686-mingw32/bin/../lib/gcc/nios2-elf/4.1.2/../../../../nios2-elf/lib\libc.a(lib_a-getc.o)
 .debug_abbrev  0x000065a6      0x157 c:/altera/12.1/nios2eds/bin/gnu/h-i686-mingw32/bin/../lib/gcc/nios2-elf/4.1.2/../../../../nios2-elf/lib\libc.a(lib_a-impure.o)
 .debug_abbrev  0x000066fd      0x187 c:/altera/12.1/nios2eds/bin/gnu/h-i686-mingw32/bin/../lib/gcc/nios2-elf/4.1.2/../../../../nios2-elf/lib\libc.a(lib_a-malloc.o)
 .debug_abbrev  0x00006884      0x216 c:/altera/12.1/nios2eds/bin/gnu/h-i686-mingw32/bin/../lib/gcc/nios2-elf/4.1.2/../../../../nios2-elf/lib\libc.a(lib_a-mallocr.o)
 .debug_abbrev  0x00006a9a       0xb5 c:/altera/12.1/nios2eds/bin/gnu/h-i686-mingw32/bin/../lib/gcc/nios2-elf/4.1.2/../../../../nios2-elf/lib\libc.a(lib_a-memmove.o)
 .debug_abbrev  0x00006b4f       0xb8 c:/altera/12.1/nios2eds/bin/gnu/h-i686-mingw32/bin/../lib/gcc/nios2-elf/4.1.2/../../../../nios2-elf/lib\libc.a(lib_a-memset.o)
 .debug_abbrev  0x00006c07      0x194 c:/altera/12.1/nios2eds/bin/gnu/h-i686-mingw32/bin/../lib/gcc/nios2-elf/4.1.2/../../../../nios2-elf/lib\libc.a(lib_a-perror.o)
 .debug_abbrev  0x00006d9b      0x191 c:/altera/12.1/nios2eds/bin/gnu/h-i686-mingw32/bin/../lib/gcc/nios2-elf/4.1.2/../../../../nios2-elf/lib\libc.a(lib_a-printf.o)
 .debug_abbrev  0x00006f2c      0x17f c:/altera/12.1/nios2eds/bin/gnu/h-i686-mingw32/bin/../lib/gcc/nios2-elf/4.1.2/../../../../nios2-elf/lib\libc.a(lib_a-putc.o)
 .debug_abbrev  0x000070ab      0x170 c:/altera/12.1/nios2eds/bin/gnu/h-i686-mingw32/bin/../lib/gcc/nios2-elf/4.1.2/../../../../nios2-elf/lib\libc.a(lib_a-putchar.o)
 .debug_abbrev  0x0000721b      0x1ac c:/altera/12.1/nios2eds/bin/gnu/h-i686-mingw32/bin/../lib/gcc/nios2-elf/4.1.2/../../../../nios2-elf/lib\libc.a(lib_a-puts.o)
 .debug_abbrev  0x000073c7      0x189 c:/altera/12.1/nios2eds/bin/gnu/h-i686-mingw32/bin/../lib/gcc/nios2-elf/4.1.2/../../../../nios2-elf/lib\libc.a(lib_a-rget.o)
 .debug_abbrev  0x00007550      0x18c c:/altera/12.1/nios2eds/bin/gnu/h-i686-mingw32/bin/../lib/gcc/nios2-elf/4.1.2/../../../../nios2-elf/lib\libc.a(lib_a-sbrkr.o)
 .debug_abbrev  0x000076dc      0x1cb c:/altera/12.1/nios2eds/bin/gnu/h-i686-mingw32/bin/../lib/gcc/nios2-elf/4.1.2/../../../../nios2-elf/lib\libc.a(lib_a-signal.o)
 .debug_abbrev  0x000078a7      0x1a5 c:/altera/12.1/nios2eds/bin/gnu/h-i686-mingw32/bin/../lib/gcc/nios2-elf/4.1.2/../../../../nios2-elf/lib\libc.a(lib_a-signalr.o)
 .debug_abbrev  0x00007a4c       0x68 c:/altera/12.1/nios2eds/bin/gnu/h-i686-mingw32/bin/../lib/gcc/nios2-elf/4.1.2/../../../../nios2-elf/lib\libc.a(lib_a-strerror.o)
 .debug_abbrev  0x00007ab4       0x8b c:/altera/12.1/nios2eds/bin/gnu/h-i686-mingw32/bin/../lib/gcc/nios2-elf/4.1.2/../../../../nios2-elf/lib\libc.a(lib_a-strlen.o)
 .debug_abbrev  0x00007b3f       0x5b c:/altera/12.1/nios2eds/bin/gnu/h-i686-mingw32/bin/../lib/gcc/nios2-elf/4.1.2/../../../../nios2-elf/lib\libc.a(lib_a-u_strerr.o)
 .debug_abbrev  0x00007b9a      0x30a c:/altera/12.1/nios2eds/bin/gnu/h-i686-mingw32/bin/../lib/gcc/nios2-elf/4.1.2/../../../../nios2-elf/lib\libc.a(lib_a-vfprintf.o)
 .debug_abbrev  0x00007ea4      0x198 c:/altera/12.1/nios2eds/bin/gnu/h-i686-mingw32/bin/../lib/gcc/nios2-elf/4.1.2/../../../../nios2-elf/lib\libc.a(lib_a-wbuf.o)
 .debug_abbrev  0x0000803c      0x170 c:/altera/12.1/nios2eds/bin/gnu/h-i686-mingw32/bin/../lib/gcc/nios2-elf/4.1.2/../../../../nios2-elf/lib\libc.a(lib_a-wsetup.o)
 .debug_abbrev  0x000081ac      0x232 c:/altera/12.1/nios2eds/bin/gnu/h-i686-mingw32/bin/../lib/gcc/nios2-elf/4.1.2/../../../../nios2-elf/lib\libc.a(lib_a-dtoa.o)
 .debug_abbrev  0x000083de      0x1c6 c:/altera/12.1/nios2eds/bin/gnu/h-i686-mingw32/bin/../lib/gcc/nios2-elf/4.1.2/../../../../nios2-elf/lib\libc.a(lib_a-fflush.o)
 .debug_abbrev  0x000085a4      0x24c c:/altera/12.1/nios2eds/bin/gnu/h-i686-mingw32/bin/../lib/gcc/nios2-elf/4.1.2/../../../../nios2-elf/lib\libc.a(lib_a-findfp.o)
 .debug_abbrev  0x000087f0      0x18c c:/altera/12.1/nios2eds/bin/gnu/h-i686-mingw32/bin/../lib/gcc/nios2-elf/4.1.2/../../../../nios2-elf/lib\libc.a(lib_a-fputc.o)
 .debug_abbrev  0x0000897c      0x1aa c:/altera/12.1/nios2eds/bin/gnu/h-i686-mingw32/bin/../lib/gcc/nios2-elf/4.1.2/../../../../nios2-elf/lib\libc.a(lib_a-fputs.o)
 .debug_abbrev  0x00008b26      0x1d9 c:/altera/12.1/nios2eds/bin/gnu/h-i686-mingw32/bin/../lib/gcc/nios2-elf/4.1.2/../../../../nios2-elf/lib\libc.a(lib_a-freer.o)
 .debug_abbrev  0x00008cff      0x1a3 c:/altera/12.1/nios2eds/bin/gnu/h-i686-mingw32/bin/../lib/gcc/nios2-elf/4.1.2/../../../../nios2-elf/lib\libc.a(lib_a-fvwrite.o)
 .debug_abbrev  0x00008ea2      0x1e3 c:/altera/12.1/nios2eds/bin/gnu/h-i686-mingw32/bin/../lib/gcc/nios2-elf/4.1.2/../../../../nios2-elf/lib\libc.a(lib_a-fwalk.o)
 .debug_abbrev  0x00009085       0x3b c:/altera/12.1/nios2eds/bin/gnu/h-i686-mingw32/bin/../lib/gcc/nios2-elf/4.1.2/../../../../nios2-elf/lib\libc.a(lib_a-int_errno.o)
 .debug_abbrev  0x000090c0      0x1ed c:/altera/12.1/nios2eds/bin/gnu/h-i686-mingw32/bin/../lib/gcc/nios2-elf/4.1.2/../../../../nios2-elf/lib\libc.a(lib_a-locale.o)
 .debug_abbrev  0x000092ad      0x197 c:/altera/12.1/nios2eds/bin/gnu/h-i686-mingw32/bin/../lib/gcc/nios2-elf/4.1.2/../../../../nios2-elf/lib\libc.a(lib_a-makebuf.o)
 .debug_abbrev  0x00009444       0xb5 c:/altera/12.1/nios2eds/bin/gnu/h-i686-mingw32/bin/../lib/gcc/nios2-elf/4.1.2/../../../../nios2-elf/lib\libc.a(lib_a-memchr.o)
 .debug_abbrev  0x000094f9       0xb5 c:/altera/12.1/nios2eds/bin/gnu/h-i686-mingw32/bin/../lib/gcc/nios2-elf/4.1.2/../../../../nios2-elf/lib\libc.a(lib_a-memcpy.o)
 .debug_abbrev  0x000095ae      0x297 c:/altera/12.1/nios2eds/bin/gnu/h-i686-mingw32/bin/../lib/gcc/nios2-elf/4.1.2/../../../../nios2-elf/lib\libc.a(lib_a-mprec.o)
 .debug_abbrev  0x00009845      0x1c3 c:/altera/12.1/nios2eds/bin/gnu/h-i686-mingw32/bin/../lib/gcc/nios2-elf/4.1.2/../../../../nios2-elf/lib\libc.a(lib_a-reallocr.o)
 .debug_abbrev  0x00009a08      0x187 c:/altera/12.1/nios2eds/bin/gnu/h-i686-mingw32/bin/../lib/gcc/nios2-elf/4.1.2/../../../../nios2-elf/lib\libc.a(lib_a-refill.o)
 .debug_abbrev  0x00009b8f       0x79 c:/altera/12.1/nios2eds/bin/gnu/h-i686-mingw32/bin/../lib/gcc/nios2-elf/4.1.2/../../../../nios2-elf/lib\libc.a(lib_a-s_isinfd.o)
 .debug_abbrev  0x00009c08       0x79 c:/altera/12.1/nios2eds/bin/gnu/h-i686-mingw32/bin/../lib/gcc/nios2-elf/4.1.2/../../../../nios2-elf/lib\libc.a(lib_a-s_isnand.o)
 .debug_abbrev  0x00009c81      0x1c9 c:/altera/12.1/nios2eds/bin/gnu/h-i686-mingw32/bin/../lib/gcc/nios2-elf/4.1.2/../../../../nios2-elf/lib\libc.a(lib_a-stdio.o)
 .debug_abbrev  0x00009e4a       0x80 c:/altera/12.1/nios2eds/bin/gnu/h-i686-mingw32/bin/../lib/gcc/nios2-elf/4.1.2/../../../../nios2-elf/lib\libc.a(lib_a-strcmp.o)
 .debug_abbrev  0x00009eca      0x184 c:/altera/12.1/nios2eds/bin/gnu/h-i686-mingw32/bin/../lib/gcc/nios2-elf/4.1.2/../../../../nios2-elf/lib\libc.a(lib_a-writer.o)
 .debug_abbrev  0x0000a04e      0x1b8 c:/altera/12.1/nios2eds/bin/gnu/h-i686-mingw32/bin/../lib/gcc/nios2-elf/4.1.2/../../../../nios2-elf/lib\libc.a(lib_a-callocr.o)
 .debug_abbrev  0x0000a206      0x17f c:/altera/12.1/nios2eds/bin/gnu/h-i686-mingw32/bin/../lib/gcc/nios2-elf/4.1.2/../../../../nios2-elf/lib\libc.a(lib_a-closer.o)
 .debug_abbrev  0x0000a385      0x1a7 c:/altera/12.1/nios2eds/bin/gnu/h-i686-mingw32/bin/../lib/gcc/nios2-elf/4.1.2/../../../../nios2-elf/lib\libc.a(lib_a-fclose.o)
 .debug_abbrev  0x0000a52c      0x18e c:/altera/12.1/nios2eds/bin/gnu/h-i686-mingw32/bin/../lib/gcc/nios2-elf/4.1.2/../../../../nios2-elf/lib\libc.a(lib_a-fstatr.o)
 .debug_abbrev  0x0000a6ba      0x17f c:/altera/12.1/nios2eds/bin/gnu/h-i686-mingw32/bin/../lib/gcc/nios2-elf/4.1.2/../../../../nios2-elf/lib\libc.a(lib_a-isattyr.o)
 .debug_abbrev  0x0000a839      0x18e c:/altera/12.1/nios2eds/bin/gnu/h-i686-mingw32/bin/../lib/gcc/nios2-elf/4.1.2/../../../../nios2-elf/lib\libc.a(lib_a-lseekr.o)
 .debug_abbrev  0x0000a9c7      0x17f c:/altera/12.1/nios2eds/bin/gnu/h-i686-mingw32/bin/../lib/gcc/nios2-elf/4.1.2/../../../../nios2-elf/lib\libc.a(lib_a-readr.o)
 .debug_abbrev  0x0000ab46      0x16b c:/altera/12.1/nios2eds/bin/gnu/h-i686-mingw32/bin/../lib/gcc/nios2-elf/4.1.2\libgcc.a(_udivdi3.o)
 .debug_abbrev  0x0000acb1      0x18e c:/altera/12.1/nios2eds/bin/gnu/h-i686-mingw32/bin/../lib/gcc/nios2-elf/4.1.2\libgcc.a(_umoddi3.o)
 .debug_abbrev  0x0000ae3f      0x1d2 c:/altera/12.1/nios2eds/bin/gnu/h-i686-mingw32/bin/../lib/gcc/nios2-elf/4.1.2\libgcc.a(_addsub_df.o)
 .debug_abbrev  0x0000b011      0x204 c:/altera/12.1/nios2eds/bin/gnu/h-i686-mingw32/bin/../lib/gcc/nios2-elf/4.1.2\libgcc.a(_mul_df.o)
 .debug_abbrev  0x0000b215      0x1e3 c:/altera/12.1/nios2eds/bin/gnu/h-i686-mingw32/bin/../lib/gcc/nios2-elf/4.1.2\libgcc.a(_div_df.o)
 .debug_abbrev  0x0000b3f8      0x151 c:/altera/12.1/nios2eds/bin/gnu/h-i686-mingw32/bin/../lib/gcc/nios2-elf/4.1.2\libgcc.a(_eq_df.o)
 .debug_abbrev  0x0000b549      0x151 c:/altera/12.1/nios2eds/bin/gnu/h-i686-mingw32/bin/../lib/gcc/nios2-elf/4.1.2\libgcc.a(_ne_df.o)
 .debug_abbrev  0x0000b69a      0x151 c:/altera/12.1/nios2eds/bin/gnu/h-i686-mingw32/bin/../lib/gcc/nios2-elf/4.1.2\libgcc.a(_gt_df.o)
 .debug_abbrev  0x0000b7eb      0x151 c:/altera/12.1/nios2eds/bin/gnu/h-i686-mingw32/bin/../lib/gcc/nios2-elf/4.1.2\libgcc.a(_ge_df.o)
 .debug_abbrev  0x0000b93c      0x151 c:/altera/12.1/nios2eds/bin/gnu/h-i686-mingw32/bin/../lib/gcc/nios2-elf/4.1.2\libgcc.a(_lt_df.o)
 .debug_abbrev  0x0000ba8d      0x13f c:/altera/12.1/nios2eds/bin/gnu/h-i686-mingw32/bin/../lib/gcc/nios2-elf/4.1.2\libgcc.a(_si_to_df.o)
 .debug_abbrev  0x0000bbcc      0x176 c:/altera/12.1/nios2eds/bin/gnu/h-i686-mingw32/bin/../lib/gcc/nios2-elf/4.1.2\libgcc.a(_df_to_si.o)
 .debug_abbrev  0x0000bd42       0xba c:/altera/12.1/nios2eds/bin/gnu/h-i686-mingw32/bin/../lib/gcc/nios2-elf/4.1.2\libgcc.a(_thenan_df.o)
 .debug_abbrev  0x0000bdfc      0x155 c:/altera/12.1/nios2eds/bin/gnu/h-i686-mingw32/bin/../lib/gcc/nios2-elf/4.1.2\libgcc.a(_usi_to_df.o)
 .debug_abbrev  0x0000bf51       0xee c:/altera/12.1/nios2eds/bin/gnu/h-i686-mingw32/bin/../lib/gcc/nios2-elf/4.1.2\libgcc.a(_muldi3.o)
 .debug_abbrev  0x0000c03f       0x61 c:/altera/12.1/nios2eds/bin/gnu/h-i686-mingw32/bin/../lib/gcc/nios2-elf/4.1.2\libgcc.a(_clz.o)
 .debug_abbrev  0x0000c0a0       0xb9 c:/altera/12.1/nios2eds/bin/gnu/h-i686-mingw32/bin/../lib/gcc/nios2-elf/4.1.2\libgcc.a(_clzsi2.o)
 .debug_abbrev  0x0000c159      0x1b1 c:/altera/12.1/nios2eds/bin/gnu/h-i686-mingw32/bin/../lib/gcc/nios2-elf/4.1.2\libgcc.a(_pack_df.o)
 .debug_abbrev  0x0000c30a      0x149 c:/altera/12.1/nios2eds/bin/gnu/h-i686-mingw32/bin/../lib/gcc/nios2-elf/4.1.2\libgcc.a(_unpack_df.o)
 .debug_abbrev  0x0000c453      0x132 c:/altera/12.1/nios2eds/bin/gnu/h-i686-mingw32/bin/../lib/gcc/nios2-elf/4.1.2\libgcc.a(_fpcmp_parts_df.o)
 .debug_abbrev  0x0000c585       0xaa ../Car2X_communication_bsp/\libucosii_bsp.a(alt_exit.o)
 .debug_abbrev  0x0000c62f      0x102 ../Car2X_communication_bsp/\libucosii_bsp.a(alt_fstat.o)
 .debug_abbrev  0x0000c731       0x36 ../Car2X_communication_bsp/\libucosii_bsp.a(alt_getpid.o)
 .debug_abbrev  0x0000c767      0x102 ../Car2X_communication_bsp/\libucosii_bsp.a(alt_isatty.o)
 .debug_abbrev  0x0000c869       0x99 ../Car2X_communication_bsp/\libucosii_bsp.a(alt_kill.o)
 .debug_abbrev  0x0000c902       0x88 ../Car2X_communication_bsp/\libucosii_bsp.a(alt_load.o)
 .debug_abbrev  0x0000c98a      0x102 ../Car2X_communication_bsp/\libucosii_bsp.a(alt_lseek.o)
 .debug_abbrev  0x0000ca8c      0x120 ../Car2X_communication_bsp/\libucosii_bsp.a(alt_main.o)
 .debug_abbrev  0x0000cbac      0x115 ../Car2X_communication_bsp/\libucosii_bsp.a(alt_sbrk.o)
 .debug_abbrev  0x0000ccc1      0x150 ../Car2X_communication_bsp/\libucosii_bsp.a(alt_tick.o)
 .debug_abbrev  0x0000ce11       0xb7 ../Car2X_communication_bsp/\libucosii_bsp.a(alt_usleep.o)
 .debug_abbrev  0x0000cec8      0x1b3 ../Car2X_communication_bsp/\libucosii_bsp.a(alt_env_lock.o)
 .debug_abbrev  0x0000d07b      0x234 ../Car2X_communication_bsp/\libucosii_bsp.a(alt_malloc_lock.o)
 .debug_abbrev  0x0000d2af      0x2aa ../Car2X_communication_bsp/\libucosii_bsp.a(os_core.o)
 .debug_abbrev  0x0000d559      0x114 ../Car2X_communication_bsp/\libucosii_bsp.a(os_dbg.o)
 .debug_abbrev  0x0000d66d      0x21b ../Car2X_communication_bsp/\libucosii_bsp.a(os_flag.o)
 .debug_abbrev  0x0000d888      0x235 ../Car2X_communication_bsp/\libucosii_bsp.a(os_mem.o)
 .debug_abbrev  0x0000dabd      0x20d ../Car2X_communication_bsp/\libucosii_bsp.a(os_q.o)
 .debug_abbrev  0x0000dcca      0x20d ../Car2X_communication_bsp/\libucosii_bsp.a(os_sem.o)
 .debug_abbrev  0x0000ded7      0x20e ../Car2X_communication_bsp/\libucosii_bsp.a(os_task.o)
 .debug_abbrev  0x0000e0e5      0x1de ../Car2X_communication_bsp/\libucosii_bsp.a(os_time.o)
 .debug_abbrev  0x0000e2c3      0x21c ../Car2X_communication_bsp/\libucosii_bsp.a(alt_sys_init.o)
 .debug_abbrev  0x0000e4df      0x13c ../Car2X_communication_bsp/\libucosii_bsp.a(altera_avalon_jtag_uart_fd.o)
 .debug_abbrev  0x0000e61b      0x21e ../Car2X_communication_bsp/\libucosii_bsp.a(altera_avalon_jtag_uart_init.o)
 .debug_abbrev  0x0000e839      0x135 ../Car2X_communication_bsp/\libucosii_bsp.a(altera_avalon_jtag_uart_ioctl.o)
 .debug_abbrev  0x0000e96e      0x1ee ../Car2X_communication_bsp/\libucosii_bsp.a(altera_avalon_jtag_uart_read.o)
 .debug_abbrev  0x0000eb5c      0x1ea ../Car2X_communication_bsp/\libucosii_bsp.a(altera_avalon_jtag_uart_write.o)
 .debug_abbrev  0x0000ed46      0x1dd ../Car2X_communication_bsp/\libucosii_bsp.a(altera_avalon_mutex.o)
 .debug_abbrev  0x0000ef23      0x23a ../Car2X_communication_bsp/\libucosii_bsp.a(altera_avalon_sgdma.o)
 .debug_abbrev  0x0000f15d      0x137 ../Car2X_communication_bsp/\libucosii_bsp.a(altera_avalon_timer_sc.o)
 .debug_abbrev  0x0000f294      0x229 ../Car2X_communication_bsp/\libucosii_bsp.a(altera_avalon_tse.o)
 .debug_abbrev  0x0000f4bd      0x299 ../Car2X_communication_bsp/\libucosii_bsp.a(ins_tse_mac.o)
 .debug_abbrev  0x0000f756       0x77 ../Car2X_communication_bsp/\libucosii_bsp.a(alt_iniche_close.o)
 .debug_abbrev  0x0000f7cd      0x11f ../Car2X_communication_bsp/\libucosii_bsp.a(alt_iniche_dev.o)
 .debug_abbrev  0x0000f8ec       0x7e ../Car2X_communication_bsp/\libucosii_bsp.a(alt_iniche_read.o)
 .debug_abbrev  0x0000f96a       0x85 ../Car2X_communication_bsp/\libucosii_bsp.a(alt_iniche_write.o)
 .debug_abbrev  0x0000f9ef      0x184 ../Car2X_communication_bsp/\libucosii_bsp.a(ipnet.o)
 .debug_abbrev  0x0000fb73      0x18b ../Car2X_communication_bsp/\libucosii_bsp.a(ipstart.o)
 .debug_abbrev  0x0000fcfe      0x191 ../Car2X_communication_bsp/\libucosii_bsp.a(igmp_cmn.o)
 .debug_abbrev  0x0000fe8f      0x1a3 ../Car2X_communication_bsp/\libucosii_bsp.a(bsdsock.o)
 .debug_abbrev  0x00010032       0x96 ../Car2X_communication_bsp/\libucosii_bsp.a(cksum.o)
 .debug_abbrev  0x000100c8      0x18b ../Car2X_communication_bsp/\libucosii_bsp.a(in_utils.o)
 .debug_abbrev  0x00010253      0x152 ../Car2X_communication_bsp/\libucosii_bsp.a(netmain.o)
 .debug_abbrev  0x000103a5      0x144 ../Car2X_communication_bsp/\libucosii_bsp.a(tk_crnos.o)
 .debug_abbrev  0x000104e9      0x196 ../Car2X_communication_bsp/\libucosii_bsp.a(pktalloc.o)
 .debug_abbrev  0x0001067f       0xcb ../Car2X_communication_bsp/\libucosii_bsp.a(q.o)
 .debug_abbrev  0x0001074a       0x14 ../Car2X_communication_bsp/\libucosii_bsp.a(asm_cksum.o)
 .debug_abbrev  0x0001075e      0x242 ../Car2X_communication_bsp/\libucosii_bsp.a(brdutils.o)
 .debug_abbrev  0x000109a0      0x194 ../Car2X_communication_bsp/\libucosii_bsp.a(osportco.o)
 .debug_abbrev  0x00010b34      0x199 ../Car2X_communication_bsp/\libucosii_bsp.a(targnios.o)
 .debug_abbrev  0x00010ccd      0x1dc ../Car2X_communication_bsp/\libucosii_bsp.a(nptcp.o)
 .debug_abbrev  0x00010ea9      0x136 ../Car2X_communication_bsp/\libucosii_bsp.a(rawsock.o)
 .debug_abbrev  0x00010fdf      0x1de ../Car2X_communication_bsp/\libucosii_bsp.a(sockcall.o)
 .debug_abbrev  0x000111bd      0x1ef ../Car2X_communication_bsp/\libucosii_bsp.a(socket.o)
 .debug_abbrev  0x000113ac      0x1ac ../Car2X_communication_bsp/\libucosii_bsp.a(socket2.o)
 .debug_abbrev  0x00011558      0x17f ../Car2X_communication_bsp/\libucosii_bsp.a(soselect.o)
 .debug_abbrev  0x000116d7      0x1ca ../Car2X_communication_bsp/\libucosii_bsp.a(tcp_in.o)
 .debug_abbrev  0x000118a1      0x1a4 ../Car2X_communication_bsp/\libucosii_bsp.a(tcp_out.o)
 .debug_abbrev  0x00011a45      0x1c3 ../Car2X_communication_bsp/\libucosii_bsp.a(tcp_subr.o)
 .debug_abbrev  0x00011c08      0x19e ../Car2X_communication_bsp/\libucosii_bsp.a(tcp_timr.o)
 .debug_abbrev  0x00011da6      0x175 ../Car2X_communication_bsp/\libucosii_bsp.a(tcp_usr.o)
 .debug_abbrev  0x00011f1b       0x77 ../Car2X_communication_bsp/\libucosii_bsp.a(tcpport.o)
 .debug_abbrev  0x00011f92      0x190 ../Car2X_communication_bsp/\libucosii_bsp.a(udpsock.o)
 .debug_abbrev  0x00012122      0x172 ../Car2X_communication_bsp/\libucosii_bsp.a(alt_alarm_start.o)
 .debug_abbrev  0x00012294       0x6c ../Car2X_communication_bsp/\libucosii_bsp.a(alt_busy_sleep.o)
 .debug_abbrev  0x00012300      0x102 ../Car2X_communication_bsp/\libucosii_bsp.a(alt_close.o)
 .debug_abbrev  0x00012402       0x57 ../Car2X_communication_bsp/\libucosii_bsp.a(alt_dcache_flush_all.o)
 .debug_abbrev  0x00012459      0x10a ../Car2X_communication_bsp/\libucosii_bsp.a(alt_dev.o)
 .debug_abbrev  0x00012563       0xf6 ../Car2X_communication_bsp/\libucosii_bsp.a(alt_dev_llist_insert.o)
 .debug_abbrev  0x00012659       0x76 ../Car2X_communication_bsp/\libucosii_bsp.a(alt_do_ctors.o)
 .debug_abbrev  0x000126cf       0x76 ../Car2X_communication_bsp/\libucosii_bsp.a(alt_do_dtors.o)
 .debug_abbrev  0x00012745       0x5e ../Car2X_communication_bsp/\libucosii_bsp.a(alt_errno.o)
 .debug_abbrev  0x000127a3       0xd6 ../Car2X_communication_bsp/\libucosii_bsp.a(alt_find_dev.o)
 .debug_abbrev  0x00012879       0x3f ../Car2X_communication_bsp/\libucosii_bsp.a(alt_icache_flush_all.o)
 .debug_abbrev  0x000128b8      0x134 ../Car2X_communication_bsp/\libucosii_bsp.a(alt_iic.o)
 .debug_abbrev  0x000129ec      0x14e ../Car2X_communication_bsp/\libucosii_bsp.a(alt_iic_isr_register.o)
 .debug_abbrev  0x00012b3a       0xf7 ../Car2X_communication_bsp/\libucosii_bsp.a(alt_io_redirect.o)
 .debug_abbrev  0x00012c31       0x12 ../Car2X_communication_bsp/\libucosii_bsp.a(alt_irq_entry.o)
 .debug_abbrev  0x00012c43      0x124 ../Car2X_communication_bsp/\libucosii_bsp.a(alt_irq_handler.o)
 .debug_abbrev  0x00012d67       0x44 ../Car2X_communication_bsp/\libucosii_bsp.a(alt_irq_vars.o)
 .debug_abbrev  0x00012dab      0x119 ../Car2X_communication_bsp/\libucosii_bsp.a(alt_open.o)
 .debug_abbrev  0x00012ec4      0x102 ../Car2X_communication_bsp/\libucosii_bsp.a(alt_read.o)
 .debug_abbrev  0x00012fc6       0xd3 ../Car2X_communication_bsp/\libucosii_bsp.a(alt_release_fd.o)
 .debug_abbrev  0x00013099       0x74 ../Car2X_communication_bsp/\libucosii_bsp.a(alt_remap_cached.o)
 .debug_abbrev  0x0001310d       0x74 ../Car2X_communication_bsp/\libucosii_bsp.a(alt_remap_uncached.o)
 .debug_abbrev  0x00013181       0x83 ../Car2X_communication_bsp/\libucosii_bsp.a(alt_uncached_malloc.o)
 .debug_abbrev  0x00013204      0x107 ../Car2X_communication_bsp/\libucosii_bsp.a(alt_write.o)
 .debug_abbrev  0x0001330b       0x3f ../Car2X_communication_bsp/\libucosii_bsp.a(altera_nios2_qsys_irq.o)
 .debug_abbrev  0x0001334a       0x14 ../Car2X_communication_bsp/\libucosii_bsp.a(os_cpu_a.o)
 .debug_abbrev  0x0001335e      0x1d0 ../Car2X_communication_bsp/\libucosii_bsp.a(os_cpu_c.o)
 .debug_abbrev  0x0001352e      0x173 ../Car2X_communication_bsp/\libucosii_bsp.a(allports.o)
 .debug_abbrev  0x000136a1      0x151 ../Car2X_communication_bsp/\libucosii_bsp.a(timeouts.o)
 .debug_abbrev  0x000137f2       0xa4 ../Car2X_communication_bsp/\libucosii_bsp.a(tk_misc.o)
 .debug_abbrev  0x00013896       0x92 ../Car2X_communication_bsp/\libucosii_bsp.a(alt_iniche_fcntl.o)
 .debug_abbrev  0x00013928      0x1eb ../Car2X_communication_bsp/\libucosii_bsp.a(et_arp.o)
 .debug_abbrev  0x00013b13      0x13d ../Car2X_communication_bsp/\libucosii_bsp.a(iface.o)
 .debug_abbrev  0x00013c50      0x1ed ../Car2X_communication_bsp/\libucosii_bsp.a(ip.o)
 .debug_abbrev  0x00013e3d      0x1ca ../Car2X_communication_bsp/\libucosii_bsp.a(ip_reasm.o)
 .debug_abbrev  0x00014007      0x166 ../Car2X_communication_bsp/\libucosii_bsp.a(ipdemux.o)
 .debug_abbrev  0x0001416d      0x114 ../Car2X_communication_bsp/\libucosii_bsp.a(ipmc.o)
 .debug_abbrev  0x00014281       0xe9 ../Car2X_communication_bsp/\libucosii_bsp.a(ipport.o)
 .debug_abbrev  0x0001436a      0x19c ../Car2X_communication_bsp/\libucosii_bsp.a(ipraw.o)
 .debug_abbrev  0x00014506      0x156 ../Car2X_communication_bsp/\libucosii_bsp.a(iproute.o)
 .debug_abbrev  0x0001465c      0x1c0 ../Car2X_communication_bsp/\libucosii_bsp.a(udp.o)
 .debug_abbrev  0x0001481c      0x10e ../Car2X_communication_bsp/\libucosii_bsp.a(igmp.o)
 .debug_abbrev  0x0001492a      0x17a ../Car2X_communication_bsp/\libucosii_bsp.a(igmp2.o)
 .debug_abbrev  0x00014aa4      0x189 ../Car2X_communication_bsp/\libucosii_bsp.a(ipopt.o)
 .debug_abbrev  0x00014c2d      0x15a ../Car2X_communication_bsp/\libucosii_bsp.a(u_mctest.o)
 .debug_abbrev  0x00014d87      0x175 ../Car2X_communication_bsp/\libucosii_bsp.a(memdev.o)
 .debug_abbrev  0x00014efc      0x154 ../Car2X_communication_bsp/\libucosii_bsp.a(parseip.o)
 .debug_abbrev  0x00015050       0xad ../Car2X_communication_bsp/\libucosii_bsp.a(tcpcksum.o)
 .debug_abbrev  0x000150fd      0x144 ../Car2X_communication_bsp/\libucosii_bsp.a(udp_open.o)
 .debug_abbrev  0x00015241      0x19f ../Car2X_communication_bsp/\libucosii_bsp.a(in_pcb.o)
 .debug_abbrev  0x000153e0      0x1b6 ../Car2X_communication_bsp/\libucosii_bsp.a(vfsfiles.o)
 .debug_abbrev  0x00015596       0x77 ../Car2X_communication_bsp/\libucosii_bsp.a(vfsport.o)
 .debug_abbrev  0x0001560d       0x7a ../Car2X_communication_bsp/\libucosii_bsp.a(alt_dcache_flush.o)
 .debug_abbrev  0x00015687       0x12 ../Car2X_communication_bsp/\libucosii_bsp.a(alt_exception_entry.o)
 .debug_abbrev  0x00015699      0x107 ../Car2X_communication_bsp/\libucosii_bsp.a(alt_fcntl.o)
 .debug_abbrev  0x000157a0       0xd6 ../Car2X_communication_bsp/\libucosii_bsp.a(alt_find_file.o)
 .debug_abbrev  0x00015876      0x173 ../Car2X_communication_bsp/\libucosii_bsp.a(alt_get_fd.o)
 .debug_abbrev  0x000159e9       0x7a ../Car2X_communication_bsp/\libucosii_bsp.a(alt_icache_flush.o)
 .debug_abbrev  0x00015a63      0x15d ../Car2X_communication_bsp/\libucosii_bsp.a(icmp.o)
 .debug_abbrev  0x00015bc0       0xb7 c:/altera/12.1/nios2eds/bin/gnu/h-i686-mingw32/bin/../lib/gcc/nios2-elf/4.1.2/../../../../nios2-elf/lib\libc.a(lib_a-atexit.o)
 .debug_abbrev  0x00015c77      0x176 c:/altera/12.1/nios2eds/bin/gnu/h-i686-mingw32/bin/../lib/gcc/nios2-elf/4.1.2/../../../../nios2-elf/lib\libc.a(lib_a-atoi.o)
 .debug_abbrev  0x00015ded      0x17f c:/altera/12.1/nios2eds/bin/gnu/h-i686-mingw32/bin/../lib/gcc/nios2-elf/4.1.2/../../../../nios2-elf/lib\libc.a(lib_a-calloc.o)
 .debug_abbrev  0x00015f6c      0x16e c:/altera/12.1/nios2eds/bin/gnu/h-i686-mingw32/bin/../lib/gcc/nios2-elf/4.1.2/../../../../nios2-elf/lib\libc.a(lib_a-exit.o)
 .debug_abbrev  0x000160da       0x7c c:/altera/12.1/nios2eds/bin/gnu/h-i686-mingw32/bin/../lib/gcc/nios2-elf/4.1.2/../../../../nios2-elf/lib\libc.a(lib_a-memcmp.o)
 .debug_abbrev  0x00016156      0x191 c:/altera/12.1/nios2eds/bin/gnu/h-i686-mingw32/bin/../lib/gcc/nios2-elf/4.1.2/../../../../nios2-elf/lib\libc.a(lib_a-sprintf.o)
 .debug_abbrev  0x000162e7       0x80 c:/altera/12.1/nios2eds/bin/gnu/h-i686-mingw32/bin/../lib/gcc/nios2-elf/4.1.2/../../../../nios2-elf/lib\libc.a(lib_a-strchr.o)
 .debug_abbrev  0x00016367       0x8f c:/altera/12.1/nios2eds/bin/gnu/h-i686-mingw32/bin/../lib/gcc/nios2-elf/4.1.2/../../../../nios2-elf/lib\libc.a(lib_a-strcpy.o)
 .debug_abbrev  0x000163f6       0x8d c:/altera/12.1/nios2eds/bin/gnu/h-i686-mingw32/bin/../lib/gcc/nios2-elf/4.1.2/../../../../nios2-elf/lib\libc.a(lib_a-strncmp.o)
 .debug_abbrev  0x00016483      0x1c7 c:/altera/12.1/nios2eds/bin/gnu/h-i686-mingw32/bin/../lib/gcc/nios2-elf/4.1.2/../../../../nios2-elf/lib\libc.a(lib_a-strtol.o)
 .debug_abbrev  0x0001664a      0x170 c:/altera/12.1/nios2eds/bin/gnu/h-i686-mingw32/bin/../lib/gcc/nios2-elf/4.1.2/../../../../nios2-elf/lib\libc.a(lib_a-vprintf.o)
 .debug_abbrev  0x000167ba      0x1a5 c:/altera/12.1/nios2eds/bin/gnu/h-i686-mingw32/bin/../lib/gcc/nios2-elf/4.1.2/../../../../nios2-elf/lib\libc.a(lib_a-vsprintf.o)
 .debug_abbrev  0x0001695f      0x1ae c:/altera/12.1/nios2eds/bin/gnu/h-i686-mingw32/bin/../lib/gcc/nios2-elf/4.1.2/../../../../nios2-elf/lib\libc.a(lib_a-__atexit.o)
 .debug_abbrev  0x00016b0d      0x1de c:/altera/12.1/nios2eds/bin/gnu/h-i686-mingw32/bin/../lib/gcc/nios2-elf/4.1.2/../../../../nios2-elf/lib\libc.a(lib_a-__call_atexit.o)

.debug_line     0x00000000    0x4880e
 *(.debug_line)
 .debug_line    0x00000000       0x72 ../Car2X_communication_bsp//obj/HAL/src/crt0.o
 .debug_line    0x00000072      0x720 obj/default/alt_error_handler.o
 .debug_line    0x00000792      0x42c obj/default/main.o
 .debug_line    0x00000bbe      0x660 obj/default/network_utilities.o
 .debug_line    0x0000121e      0x390 obj/default/tse_my_system.o
 .debug_line    0x000015ae      0x3f9 obj/default/COMM_CarProtocol/ADCInfoMessage.o
 .debug_line    0x000019a7      0x2f5 obj/default/COMM_CarProtocol/ADCValuesMessage.o
 .debug_line    0x00001c9c      0x369 obj/default/COMM_CarProtocol/AccelerationValuesMessage.o
 .debug_line    0x00002005      0x38a obj/default/COMM_CarProtocol/CarMessage.o
 .debug_line    0x0000238f      0x8bb obj/default/COMM_CarProtocol/CarProtocol.o
 .debug_line    0x00002c4a      0x3bf obj/default/COMM_CarProtocol/MotorMeasurementMessage.o
 .debug_line    0x00003009      0x2d7 obj/default/COMM_CarProtocol/MotorVelocityMessage.o
 .debug_line    0x000032e0      0x2ef obj/default/COMM_CarProtocol/UltrasoundDistanceMessage.o
 .debug_line    0x000035cf      0x37b obj/default/COMM_CarProtocol/WelcomeMessage.o
 .debug_line    0x0000394a      0x1e1 obj/default/CarMessages/CControlMessage.o
 .debug_line    0x00003b2b      0x1ef obj/default/CarMessages/CEmergencyBrakeMessage.o
 .debug_line    0x00003d1a      0x111 obj/default/etc/utility.o
 .debug_line    0x00003e2b      0x347 obj/default/external_drivers/accelerometer_interface.o
 .debug_line    0x00004172      0x10c obj/default/external_drivers/adc_interface.o
 .debug_line    0x0000427e      0x153 obj/default/external_drivers/ultrasound_interface.o
 .debug_line    0x000043d1      0x281 obj/default/sensors/ADCSensor.o
 .debug_line    0x00004652      0x396 obj/default/sensors/AccelerationSensor.o
 .debug_line    0x000049e8      0x301 obj/default/sensors/SensorState.o
 .debug_line    0x00004ce9      0x351 obj/default/sensors/UltrasoundSensor.o
 .debug_line    0x0000503a      0x861 obj/default/socketserver.o
 .debug_line    0x0000589b      0x7f6 obj/default/terasic_lib/I2C.o
 .debug_line    0x00006091      0x473 obj/default/terasic_lib/accelerometer_adxl345_spi.o
 .debug_line    0x00006504      0x36f obj/default/terasic_lib/adc_spi_read.o
 .debug_line    0x00006873      0x459 obj/default/terasic_lib/terasic_spi.o
 .debug_line    0x00006ccc      0xd66 c:/altera/12.1/nios2eds/bin/gnu/h-i686-mingw32/bin/../lib/gcc/nios2-elf/4.1.2/../../../../nios2-elf/lib\libstdc++.a(eh_personality.o)
 .debug_line    0x00007a32      0x2c2 c:/altera/12.1/nios2eds/bin/gnu/h-i686-mingw32/bin/../lib/gcc/nios2-elf/4.1.2/../../../../nios2-elf/lib\libstdc++.a(eh_exception.o)
 .debug_line    0x00007cf4      0x351 c:/altera/12.1/nios2eds/bin/gnu/h-i686-mingw32/bin/../lib/gcc/nios2-elf/4.1.2/../../../../nios2-elf/lib\libstdc++.a(del_op.o)
 .debug_line    0x00008045      0x393 c:/altera/12.1/nios2eds/bin/gnu/h-i686-mingw32/bin/../lib/gcc/nios2-elf/4.1.2/../../../../nios2-elf/lib\libstdc++.a(eh_call.o)
 .debug_line    0x000083d8      0x424 c:/altera/12.1/nios2eds/bin/gnu/h-i686-mingw32/bin/../lib/gcc/nios2-elf/4.1.2/../../../../nios2-elf/lib\libstdc++.a(class_type_info.o)
 .debug_line    0x000087fc      0x397 c:/altera/12.1/nios2eds/bin/gnu/h-i686-mingw32/bin/../lib/gcc/nios2-elf/4.1.2/../../../../nios2-elf/lib\libstdc++.a(new_op.o)
 .debug_line    0x00008b93      0x3b4 c:/altera/12.1/nios2eds/bin/gnu/h-i686-mingw32/bin/../lib/gcc/nios2-elf/4.1.2/../../../../nios2-elf/lib\libstdc++.a(si_class_type_info.o)
 .debug_line    0x00008f47      0x4ce c:/altera/12.1/nios2eds/bin/gnu/h-i686-mingw32/bin/../lib/gcc/nios2-elf/4.1.2/../../../../nios2-elf/lib\libstdc++.a(eh_alloc.o)
 .debug_line    0x00009415      0x2ee c:/altera/12.1/nios2eds/bin/gnu/h-i686-mingw32/bin/../lib/gcc/nios2-elf/4.1.2/../../../../nios2-elf/lib\libstdc++.a(tinfo.o)
 .debug_line    0x00009703      0x3f8 c:/altera/12.1/nios2eds/bin/gnu/h-i686-mingw32/bin/../lib/gcc/nios2-elf/4.1.2/../../../../nios2-elf/lib\libstdc++.a(eh_throw.o)
 .debug_line    0x00009afb      0x41a c:/altera/12.1/nios2eds/bin/gnu/h-i686-mingw32/bin/../lib/gcc/nios2-elf/4.1.2/../../../../nios2-elf/lib\libstdc++.a(eh_terminate.o)
 .debug_line    0x00009f15      0x3a2 c:/altera/12.1/nios2eds/bin/gnu/h-i686-mingw32/bin/../lib/gcc/nios2-elf/4.1.2/../../../../nios2-elf/lib\libstdc++.a(eh_globals.o)
 .debug_line    0x0000a2b7      0x24b c:/altera/12.1/nios2eds/bin/gnu/h-i686-mingw32/bin/../lib/gcc/nios2-elf/4.1.2/../../../../nios2-elf/lib\libstdc++.a(eh_unex_handler.o)
 .debug_line    0x0000a502      0x278 c:/altera/12.1/nios2eds/bin/gnu/h-i686-mingw32/bin/../lib/gcc/nios2-elf/4.1.2/../../../../nios2-elf/lib\libstdc++.a(new_handler.o)
 .debug_line    0x0000a77a      0x52a c:/altera/12.1/nios2eds/bin/gnu/h-i686-mingw32/bin/../lib/gcc/nios2-elf/4.1.2/../../../../nios2-elf/lib\libstdc++.a(eh_catch.o)
 .debug_line    0x0000aca4      0x269 c:/altera/12.1/nios2eds/bin/gnu/h-i686-mingw32/bin/../lib/gcc/nios2-elf/4.1.2/../../../../nios2-elf/lib\libstdc++.a(eh_term_handler.o)
 .debug_line    0x0000af0d      0x24f c:/altera/12.1/nios2eds/bin/gnu/h-i686-mingw32/bin/../lib/gcc/nios2-elf/4.1.2\libgcc.a(lib2-divmod.o)
 .debug_line    0x0000b15c      0x6ca c:/altera/12.1/nios2eds/bin/gnu/h-i686-mingw32/bin/../lib/gcc/nios2-elf/4.1.2\libgcc.a(unwind-sjlj.o)
 .debug_line    0x0000b826      0x22b c:/altera/12.1/nios2eds/bin/gnu/h-i686-mingw32/bin/../lib/gcc/nios2-elf/4.1.2/../../../../nios2-elf/lib\libc.a(lib_a-abort.o)
 .debug_line    0x0000ba51       0x7e c:/altera/12.1/nios2eds/bin/gnu/h-i686-mingw32/bin/../lib/gcc/nios2-elf/4.1.2/../../../../nios2-elf/lib\libc.a(lib_a-ctype_.o)
 .debug_line    0x0000bacf      0x27e c:/altera/12.1/nios2eds/bin/gnu/h-i686-mingw32/bin/../lib/gcc/nios2-elf/4.1.2/../../../../nios2-elf/lib\libc.a(lib_a-fprintf.o)
 .debug_line    0x0000bd4d      0x2d3 c:/altera/12.1/nios2eds/bin/gnu/h-i686-mingw32/bin/../lib/gcc/nios2-elf/4.1.2/../../../../nios2-elf/lib\libc.a(lib_a-fwrite.o)
 .debug_line    0x0000c020      0x29e c:/altera/12.1/nios2eds/bin/gnu/h-i686-mingw32/bin/../lib/gcc/nios2-elf/4.1.2/../../../../nios2-elf/lib\libc.a(lib_a-getc.o)
 .debug_line    0x0000c2be      0x224 c:/altera/12.1/nios2eds/bin/gnu/h-i686-mingw32/bin/../lib/gcc/nios2-elf/4.1.2/../../../../nios2-elf/lib\libc.a(lib_a-impure.o)
 .debug_line    0x0000c4e2      0x245 c:/altera/12.1/nios2eds/bin/gnu/h-i686-mingw32/bin/../lib/gcc/nios2-elf/4.1.2/../../../../nios2-elf/lib\libc.a(lib_a-malloc.o)
 .debug_line    0x0000c727      0x804 c:/altera/12.1/nios2eds/bin/gnu/h-i686-mingw32/bin/../lib/gcc/nios2-elf/4.1.2/../../../../nios2-elf/lib\libc.a(lib_a-mallocr.o)
 .debug_line    0x0000cf2b      0x301 c:/altera/12.1/nios2eds/bin/gnu/h-i686-mingw32/bin/../lib/gcc/nios2-elf/4.1.2/../../../../nios2-elf/lib\libc.a(lib_a-memmove.o)
 .debug_line    0x0000d22c      0x2f8 c:/altera/12.1/nios2eds/bin/gnu/h-i686-mingw32/bin/../lib/gcc/nios2-elf/4.1.2/../../../../nios2-elf/lib\libc.a(lib_a-memset.o)
 .debug_line    0x0000d524      0x29e c:/altera/12.1/nios2eds/bin/gnu/h-i686-mingw32/bin/../lib/gcc/nios2-elf/4.1.2/../../../../nios2-elf/lib\libc.a(lib_a-perror.o)
 .debug_line    0x0000d7c2      0x295 c:/altera/12.1/nios2eds/bin/gnu/h-i686-mingw32/bin/../lib/gcc/nios2-elf/4.1.2/../../../../nios2-elf/lib\libc.a(lib_a-printf.o)
 .debug_line    0x0000da57      0x2be c:/altera/12.1/nios2eds/bin/gnu/h-i686-mingw32/bin/../lib/gcc/nios2-elf/4.1.2/../../../../nios2-elf/lib\libc.a(lib_a-putc.o)
 .debug_line    0x0000dd15      0x25e c:/altera/12.1/nios2eds/bin/gnu/h-i686-mingw32/bin/../lib/gcc/nios2-elf/4.1.2/../../../../nios2-elf/lib\libc.a(lib_a-putchar.o)
 .debug_line    0x0000df73      0x2f1 c:/altera/12.1/nios2eds/bin/gnu/h-i686-mingw32/bin/../lib/gcc/nios2-elf/4.1.2/../../../../nios2-elf/lib\libc.a(lib_a-puts.o)
 .debug_line    0x0000e264      0x287 c:/altera/12.1/nios2eds/bin/gnu/h-i686-mingw32/bin/../lib/gcc/nios2-elf/4.1.2/../../../../nios2-elf/lib\libc.a(lib_a-rget.o)
 .debug_line    0x0000e4eb      0x290 c:/altera/12.1/nios2eds/bin/gnu/h-i686-mingw32/bin/../lib/gcc/nios2-elf/4.1.2/../../../../nios2-elf/lib\libc.a(lib_a-sbrkr.o)
 .debug_line    0x0000e77b      0x4d8 c:/altera/12.1/nios2eds/bin/gnu/h-i686-mingw32/bin/../lib/gcc/nios2-elf/4.1.2/../../../../nios2-elf/lib\libc.a(lib_a-signal.o)
 .debug_line    0x0000ec53      0x272 c:/altera/12.1/nios2eds/bin/gnu/h-i686-mingw32/bin/../lib/gcc/nios2-elf/4.1.2/../../../../nios2-elf/lib\libc.a(lib_a-signalr.o)
 .debug_line    0x0000eec5      0x4db c:/altera/12.1/nios2eds/bin/gnu/h-i686-mingw32/bin/../lib/gcc/nios2-elf/4.1.2/../../../../nios2-elf/lib\libc.a(lib_a-strerror.o)
 .debug_line    0x0000f3a0      0x264 c:/altera/12.1/nios2eds/bin/gnu/h-i686-mingw32/bin/../lib/gcc/nios2-elf/4.1.2/../../../../nios2-elf/lib\libc.a(lib_a-strlen.o)
 .debug_line    0x0000f604       0x91 c:/altera/12.1/nios2eds/bin/gnu/h-i686-mingw32/bin/../lib/gcc/nios2-elf/4.1.2/../../../../nios2-elf/lib\libc.a(lib_a-u_strerr.o)
 .debug_line    0x0000f695     0x1106 c:/altera/12.1/nios2eds/bin/gnu/h-i686-mingw32/bin/../lib/gcc/nios2-elf/4.1.2/../../../../nios2-elf/lib\libc.a(lib_a-vfprintf.o)
 .debug_line    0x0001079b      0x34a c:/altera/12.1/nios2eds/bin/gnu/h-i686-mingw32/bin/../lib/gcc/nios2-elf/4.1.2/../../../../nios2-elf/lib\libc.a(lib_a-wbuf.o)
 .debug_line    0x00010ae5      0x2ea c:/altera/12.1/nios2eds/bin/gnu/h-i686-mingw32/bin/../lib/gcc/nios2-elf/4.1.2/../../../../nios2-elf/lib\libc.a(lib_a-wsetup.o)
 .debug_line    0x00010dcf     0x12c0 c:/altera/12.1/nios2eds/bin/gnu/h-i686-mingw32/bin/../lib/gcc/nios2-elf/4.1.2/../../../../nios2-elf/lib\libc.a(lib_a-dtoa.o)
 .debug_line    0x0001208f      0x407 c:/altera/12.1/nios2eds/bin/gnu/h-i686-mingw32/bin/../lib/gcc/nios2-elf/4.1.2/../../../../nios2-elf/lib\libc.a(lib_a-fflush.o)
 .debug_line    0x00012496      0x5fb c:/altera/12.1/nios2eds/bin/gnu/h-i686-mingw32/bin/../lib/gcc/nios2-elf/4.1.2/../../../../nios2-elf/lib\libc.a(lib_a-findfp.o)
 .debug_line    0x00012a91      0x27f c:/altera/12.1/nios2eds/bin/gnu/h-i686-mingw32/bin/../lib/gcc/nios2-elf/4.1.2/../../../../nios2-elf/lib\libc.a(lib_a-fputc.o)
 .debug_line    0x00012d10      0x2c2 c:/altera/12.1/nios2eds/bin/gnu/h-i686-mingw32/bin/../lib/gcc/nios2-elf/4.1.2/../../../../nios2-elf/lib\libc.a(lib_a-fputs.o)
 .debug_line    0x00012fd2      0x5e5 c:/altera/12.1/nios2eds/bin/gnu/h-i686-mingw32/bin/../lib/gcc/nios2-elf/4.1.2/../../../../nios2-elf/lib\libc.a(lib_a-freer.o)
 .debug_line    0x000135b7      0x63b c:/altera/12.1/nios2eds/bin/gnu/h-i686-mingw32/bin/../lib/gcc/nios2-elf/4.1.2/../../../../nios2-elf/lib\libc.a(lib_a-fvwrite.o)
 .debug_line    0x00013bf2      0x344 c:/altera/12.1/nios2eds/bin/gnu/h-i686-mingw32/bin/../lib/gcc/nios2-elf/4.1.2/../../../../nios2-elf/lib\libc.a(lib_a-fwalk.o)
 .debug_line    0x00013f36      0x1d9 c:/altera/12.1/nios2eds/bin/gnu/h-i686-mingw32/bin/../lib/gcc/nios2-elf/4.1.2/../../../../nios2-elf/lib\libc.a(lib_a-int_errno.o)
 .debug_line    0x0001410f      0x2c2 c:/altera/12.1/nios2eds/bin/gnu/h-i686-mingw32/bin/../lib/gcc/nios2-elf/4.1.2/../../../../nios2-elf/lib\libc.a(lib_a-locale.o)
 .debug_line    0x000143d1      0x3bd c:/altera/12.1/nios2eds/bin/gnu/h-i686-mingw32/bin/../lib/gcc/nios2-elf/4.1.2/../../../../nios2-elf/lib\libc.a(lib_a-makebuf.o)
 .debug_line    0x0001478e      0x2fa c:/altera/12.1/nios2eds/bin/gnu/h-i686-mingw32/bin/../lib/gcc/nios2-elf/4.1.2/../../../../nios2-elf/lib\libc.a(lib_a-memchr.o)
 .debug_line    0x00014a88      0x1a9 c:/altera/12.1/nios2eds/bin/gnu/h-i686-mingw32/bin/../lib/gcc/nios2-elf/4.1.2/../../../../nios2-elf/lib\libc.a(lib_a-memcpy.o)
 .debug_line    0x00014c31     0x123d c:/altera/12.1/nios2eds/bin/gnu/h-i686-mingw32/bin/../lib/gcc/nios2-elf/4.1.2/../../../../nios2-elf/lib\libc.a(lib_a-mprec.o)
 .debug_line    0x00015e6e      0x584 c:/altera/12.1/nios2eds/bin/gnu/h-i686-mingw32/bin/../lib/gcc/nios2-elf/4.1.2/../../../../nios2-elf/lib\libc.a(lib_a-reallocr.o)
 .debug_line    0x000163f2      0x3be c:/altera/12.1/nios2eds/bin/gnu/h-i686-mingw32/bin/../lib/gcc/nios2-elf/4.1.2/../../../../nios2-elf/lib\libc.a(lib_a-refill.o)
 .debug_line    0x000167b0      0x21c c:/altera/12.1/nios2eds/bin/gnu/h-i686-mingw32/bin/../lib/gcc/nios2-elf/4.1.2/../../../../nios2-elf/lib\libc.a(lib_a-s_isinfd.o)
 .debug_line    0x000169cc      0x214 c:/altera/12.1/nios2eds/bin/gnu/h-i686-mingw32/bin/../lib/gcc/nios2-elf/4.1.2/../../../../nios2-elf/lib\libc.a(lib_a-s_isnand.o)
 .debug_line    0x00016be0      0x386 c:/altera/12.1/nios2eds/bin/gnu/h-i686-mingw32/bin/../lib/gcc/nios2-elf/4.1.2/../../../../nios2-elf/lib\libc.a(lib_a-stdio.o)
 .debug_line    0x00016f66      0x2cc c:/altera/12.1/nios2eds/bin/gnu/h-i686-mingw32/bin/../lib/gcc/nios2-elf/4.1.2/../../../../nios2-elf/lib\libc.a(lib_a-strcmp.o)
 .debug_line    0x00017232      0x291 c:/altera/12.1/nios2eds/bin/gnu/h-i686-mingw32/bin/../lib/gcc/nios2-elf/4.1.2/../../../../nios2-elf/lib\libc.a(lib_a-writer.o)
 .debug_line    0x000174c3      0x256 c:/altera/12.1/nios2eds/bin/gnu/h-i686-mingw32/bin/../lib/gcc/nios2-elf/4.1.2/../../../../nios2-elf/lib\libc.a(lib_a-callocr.o)
 .debug_line    0x00017719      0x291 c:/altera/12.1/nios2eds/bin/gnu/h-i686-mingw32/bin/../lib/gcc/nios2-elf/4.1.2/../../../../nios2-elf/lib\libc.a(lib_a-closer.o)
 .debug_line    0x000179aa      0x2e2 c:/altera/12.1/nios2eds/bin/gnu/h-i686-mingw32/bin/../lib/gcc/nios2-elf/4.1.2/../../../../nios2-elf/lib\libc.a(lib_a-fclose.o)
 .debug_line    0x00017c8c      0x25e c:/altera/12.1/nios2eds/bin/gnu/h-i686-mingw32/bin/../lib/gcc/nios2-elf/4.1.2/../../../../nios2-elf/lib\libc.a(lib_a-fstatr.o)
 .debug_line    0x00017eea      0x292 c:/altera/12.1/nios2eds/bin/gnu/h-i686-mingw32/bin/../lib/gcc/nios2-elf/4.1.2/../../../../nios2-elf/lib\libc.a(lib_a-isattyr.o)
 .debug_line    0x0001817c      0x291 c:/altera/12.1/nios2eds/bin/gnu/h-i686-mingw32/bin/../lib/gcc/nios2-elf/4.1.2/../../../../nios2-elf/lib\libc.a(lib_a-lseekr.o)
 .debug_line    0x0001840d      0x290 c:/altera/12.1/nios2eds/bin/gnu/h-i686-mingw32/bin/../lib/gcc/nios2-elf/4.1.2/../../../../nios2-elf/lib\libc.a(lib_a-readr.o)
 .debug_line    0x0001869d      0x2f2 c:/altera/12.1/nios2eds/bin/gnu/h-i686-mingw32/bin/../lib/gcc/nios2-elf/4.1.2\libgcc.a(_udivdi3.o)
 .debug_line    0x0001898f      0x37d c:/altera/12.1/nios2eds/bin/gnu/h-i686-mingw32/bin/../lib/gcc/nios2-elf/4.1.2\libgcc.a(_umoddi3.o)
 .debug_line    0x00018d0c      0x430 c:/altera/12.1/nios2eds/bin/gnu/h-i686-mingw32/bin/../lib/gcc/nios2-elf/4.1.2\libgcc.a(_addsub_df.o)
 .debug_line    0x0001913c      0x3e5 c:/altera/12.1/nios2eds/bin/gnu/h-i686-mingw32/bin/../lib/gcc/nios2-elf/4.1.2\libgcc.a(_mul_df.o)
 .debug_line    0x00019521      0x301 c:/altera/12.1/nios2eds/bin/gnu/h-i686-mingw32/bin/../lib/gcc/nios2-elf/4.1.2\libgcc.a(_div_df.o)
 .debug_line    0x00019822      0x129 c:/altera/12.1/nios2eds/bin/gnu/h-i686-mingw32/bin/../lib/gcc/nios2-elf/4.1.2\libgcc.a(_eq_df.o)
 .debug_line    0x0001994b      0x129 c:/altera/12.1/nios2eds/bin/gnu/h-i686-mingw32/bin/../lib/gcc/nios2-elf/4.1.2\libgcc.a(_ne_df.o)
 .debug_line    0x00019a74      0x129 c:/altera/12.1/nios2eds/bin/gnu/h-i686-mingw32/bin/../lib/gcc/nios2-elf/4.1.2\libgcc.a(_gt_df.o)
 .debug_line    0x00019b9d      0x129 c:/altera/12.1/nios2eds/bin/gnu/h-i686-mingw32/bin/../lib/gcc/nios2-elf/4.1.2\libgcc.a(_ge_df.o)
 .debug_line    0x00019cc6      0x129 c:/altera/12.1/nios2eds/bin/gnu/h-i686-mingw32/bin/../lib/gcc/nios2-elf/4.1.2\libgcc.a(_lt_df.o)
 .debug_line    0x00019def      0x175 c:/altera/12.1/nios2eds/bin/gnu/h-i686-mingw32/bin/../lib/gcc/nios2-elf/4.1.2\libgcc.a(_si_to_df.o)
 .debug_line    0x00019f64      0x149 c:/altera/12.1/nios2eds/bin/gnu/h-i686-mingw32/bin/../lib/gcc/nios2-elf/4.1.2\libgcc.a(_df_to_si.o)
 .debug_line    0x0001a0ad       0x94 c:/altera/12.1/nios2eds/bin/gnu/h-i686-mingw32/bin/../lib/gcc/nios2-elf/4.1.2\libgcc.a(_thenan_df.o)
 .debug_line    0x0001a141      0x189 c:/altera/12.1/nios2eds/bin/gnu/h-i686-mingw32/bin/../lib/gcc/nios2-elf/4.1.2\libgcc.a(_usi_to_df.o)
 .debug_line    0x0001a2ca      0x11f c:/altera/12.1/nios2eds/bin/gnu/h-i686-mingw32/bin/../lib/gcc/nios2-elf/4.1.2\libgcc.a(_muldi3.o)
 .debug_line    0x0001a3e9       0xaa c:/altera/12.1/nios2eds/bin/gnu/h-i686-mingw32/bin/../lib/gcc/nios2-elf/4.1.2\libgcc.a(_clz.o)
 .debug_line    0x0001a493      0x105 c:/altera/12.1/nios2eds/bin/gnu/h-i686-mingw32/bin/../lib/gcc/nios2-elf/4.1.2\libgcc.a(_clzsi2.o)
 .debug_line    0x0001a598      0x222 c:/altera/12.1/nios2eds/bin/gnu/h-i686-mingw32/bin/../lib/gcc/nios2-elf/4.1.2\libgcc.a(_pack_df.o)
 .debug_line    0x0001a7ba      0x1e4 c:/altera/12.1/nios2eds/bin/gnu/h-i686-mingw32/bin/../lib/gcc/nios2-elf/4.1.2\libgcc.a(_unpack_df.o)
 .debug_line    0x0001a99e      0x187 c:/altera/12.1/nios2eds/bin/gnu/h-i686-mingw32/bin/../lib/gcc/nios2-elf/4.1.2\libgcc.a(_fpcmp_parts_df.o)
 .debug_line    0x0001ab25      0x270 ../Car2X_communication_bsp/\libucosii_bsp.a(alt_exit.o)
 .debug_line    0x0001ad95      0x2fb ../Car2X_communication_bsp/\libucosii_bsp.a(alt_fstat.o)
 .debug_line    0x0001b090       0x71 ../Car2X_communication_bsp/\libucosii_bsp.a(alt_getpid.o)
 .debug_line    0x0001b101      0x2fc ../Car2X_communication_bsp/\libucosii_bsp.a(alt_isatty.o)
 .debug_line    0x0001b3fd      0x267 ../Car2X_communication_bsp/\libucosii_bsp.a(alt_kill.o)
 .debug_line    0x0001b664      0x211 ../Car2X_communication_bsp/\libucosii_bsp.a(alt_load.o)
 .debug_line    0x0001b875      0x2fb ../Car2X_communication_bsp/\libucosii_bsp.a(alt_lseek.o)
 .debug_line    0x0001bb70      0x343 ../Car2X_communication_bsp/\libucosii_bsp.a(alt_main.o)
 .debug_line    0x0001beb3      0x25b ../Car2X_communication_bsp/\libucosii_bsp.a(alt_sbrk.o)
 .debug_line    0x0001c10e      0x310 ../Car2X_communication_bsp/\libucosii_bsp.a(alt_tick.o)
 .debug_line    0x0001c41e      0x2a7 ../Car2X_communication_bsp/\libucosii_bsp.a(alt_usleep.o)
 .debug_line    0x0001c6c5      0x2b9 ../Car2X_communication_bsp/\libucosii_bsp.a(alt_env_lock.o)
 .debug_line    0x0001c97e      0x375 ../Car2X_communication_bsp/\libucosii_bsp.a(alt_malloc_lock.o)
 .debug_line    0x0001ccf3     0x165d ../Car2X_communication_bsp/\libucosii_bsp.a(os_core.o)
 .debug_line    0x0001e350      0x382 ../Car2X_communication_bsp/\libucosii_bsp.a(os_dbg.o)
 .debug_line    0x0001e6d2     0x11e1 ../Car2X_communication_bsp/\libucosii_bsp.a(os_flag.o)
 .debug_line    0x0001f8b3      0x784 ../Car2X_communication_bsp/\libucosii_bsp.a(os_mem.o)
 .debug_line    0x00020037      0xe65 ../Car2X_communication_bsp/\libucosii_bsp.a(os_q.o)
 .debug_line    0x00020e9c      0xa1d ../Car2X_communication_bsp/\libucosii_bsp.a(os_sem.o)
 .debug_line    0x000218b9     0x1126 ../Car2X_communication_bsp/\libucosii_bsp.a(os_task.o)
 .debug_line    0x000229df      0x529 ../Car2X_communication_bsp/\libucosii_bsp.a(os_time.o)
 .debug_line    0x00022f08      0x5bc ../Car2X_communication_bsp/\libucosii_bsp.a(alt_sys_init.o)
 .debug_line    0x000234c4      0x313 ../Car2X_communication_bsp/\libucosii_bsp.a(altera_avalon_jtag_uart_fd.o)
 .debug_line    0x000237d7      0x592 ../Car2X_communication_bsp/\libucosii_bsp.a(altera_avalon_jtag_uart_init.o)
 .debug_line    0x00023d69      0x350 ../Car2X_communication_bsp/\libucosii_bsp.a(altera_avalon_jtag_uart_ioctl.o)
 .debug_line    0x000240b9      0x48e ../Car2X_communication_bsp/\libucosii_bsp.a(altera_avalon_jtag_uart_read.o)
 .debug_line    0x00024547      0x49c ../Car2X_communication_bsp/\libucosii_bsp.a(altera_avalon_jtag_uart_write.o)
 .debug_line    0x000249e3      0x483 ../Car2X_communication_bsp/\libucosii_bsp.a(altera_avalon_mutex.o)
 .debug_line    0x00024e66      0x668 ../Car2X_communication_bsp/\libucosii_bsp.a(altera_avalon_sgdma.o)
 .debug_line    0x000254ce      0x2ad ../Car2X_communication_bsp/\libucosii_bsp.a(altera_avalon_timer_sc.o)
 .debug_line    0x0002577b     0x2091 ../Car2X_communication_bsp/\libucosii_bsp.a(altera_avalon_tse.o)
 .debug_line    0x0002780c      0xc29 ../Car2X_communication_bsp/\libucosii_bsp.a(ins_tse_mac.o)
 .debug_line    0x00028435      0x341 ../Car2X_communication_bsp/\libucosii_bsp.a(alt_iniche_close.o)
 .debug_line    0x00028776      0x3d4 ../Car2X_communication_bsp/\libucosii_bsp.a(alt_iniche_dev.o)
 .debug_line    0x00028b4a      0x340 ../Car2X_communication_bsp/\libucosii_bsp.a(alt_iniche_read.o)
 .debug_line    0x00028e8a      0x351 ../Car2X_communication_bsp/\libucosii_bsp.a(alt_iniche_write.o)
 .debug_line    0x000291db      0x7a0 ../Car2X_communication_bsp/\libucosii_bsp.a(ipnet.o)
 .debug_line    0x0002997b      0x4e1 ../Car2X_communication_bsp/\libucosii_bsp.a(ipstart.o)
 .debug_line    0x00029e5c      0x916 ../Car2X_communication_bsp/\libucosii_bsp.a(igmp_cmn.o)
 .debug_line    0x0002a772      0x6c1 ../Car2X_communication_bsp/\libucosii_bsp.a(bsdsock.o)
 .debug_line    0x0002ae33      0x304 ../Car2X_communication_bsp/\libucosii_bsp.a(cksum.o)
 .debug_line    0x0002b137      0x7a3 ../Car2X_communication_bsp/\libucosii_bsp.a(in_utils.o)
 .debug_line    0x0002b8da      0x431 ../Car2X_communication_bsp/\libucosii_bsp.a(netmain.o)
 .debug_line    0x0002bd0b      0x5a2 ../Car2X_communication_bsp/\libucosii_bsp.a(tk_crnos.o)
 .debug_line    0x0002c2ad      0x643 ../Car2X_communication_bsp/\libucosii_bsp.a(pktalloc.o)
 .debug_line    0x0002c8f0      0x3d5 ../Car2X_communication_bsp/\libucosii_bsp.a(q.o)
 .debug_line    0x0002ccc5       0xaf ../Car2X_communication_bsp/\libucosii_bsp.a(asm_cksum.o)
 .debug_line    0x0002cd74      0x46c ../Car2X_communication_bsp/\libucosii_bsp.a(brdutils.o)
 .debug_line    0x0002d1e0      0x4f9 ../Car2X_communication_bsp/\libucosii_bsp.a(osportco.o)
 .debug_line    0x0002d6d9      0x638 ../Car2X_communication_bsp/\libucosii_bsp.a(targnios.o)
 .debug_line    0x0002dd11      0xf1d ../Car2X_communication_bsp/\libucosii_bsp.a(nptcp.o)
 .debug_line    0x0002ec2e      0x842 ../Car2X_communication_bsp/\libucosii_bsp.a(rawsock.o)
 .debug_line    0x0002f470      0xe30 ../Car2X_communication_bsp/\libucosii_bsp.a(sockcall.o)
 .debug_line    0x000302a0     0x12b2 ../Car2X_communication_bsp/\libucosii_bsp.a(socket.o)
 .debug_line    0x00031552      0xbe6 ../Car2X_communication_bsp/\libucosii_bsp.a(socket2.o)
 .debug_line    0x00032138      0x727 ../Car2X_communication_bsp/\libucosii_bsp.a(soselect.o)
 .debug_line    0x0003285f     0x15e8 ../Car2X_communication_bsp/\libucosii_bsp.a(tcp_in.o)
 .debug_line    0x00033e47      0xa53 ../Car2X_communication_bsp/\libucosii_bsp.a(tcp_out.o)
 .debug_line    0x0003489a      0x7bd ../Car2X_communication_bsp/\libucosii_bsp.a(tcp_subr.o)
 .debug_line    0x00035057      0x60d ../Car2X_communication_bsp/\libucosii_bsp.a(tcp_timr.o)
 .debug_line    0x00035664      0x89c ../Car2X_communication_bsp/\libucosii_bsp.a(tcp_usr.o)
 .debug_line    0x00035f00      0x339 ../Car2X_communication_bsp/\libucosii_bsp.a(tcpport.o)
 .debug_line    0x00036239      0x953 ../Car2X_communication_bsp/\libucosii_bsp.a(udpsock.o)
 .debug_line    0x00036b8c      0x2d6 ../Car2X_communication_bsp/\libucosii_bsp.a(alt_alarm_start.o)
 .debug_line    0x00036e62      0x253 ../Car2X_communication_bsp/\libucosii_bsp.a(alt_busy_sleep.o)
 .debug_line    0x000370b5      0x2f3 ../Car2X_communication_bsp/\libucosii_bsp.a(alt_close.o)
 .debug_line    0x000373a8      0x1c7 ../Car2X_communication_bsp/\libucosii_bsp.a(alt_dcache_flush_all.o)
 .debug_line    0x0003756f      0x2b4 ../Car2X_communication_bsp/\libucosii_bsp.a(alt_dev.o)
 .debug_line    0x00037823      0x254 ../Car2X_communication_bsp/\libucosii_bsp.a(alt_dev_llist_insert.o)
 .debug_line    0x00037a77       0x83 ../Car2X_communication_bsp/\libucosii_bsp.a(alt_do_ctors.o)
 .debug_line    0x00037afa       0x83 ../Car2X_communication_bsp/\libucosii_bsp.a(alt_do_dtors.o)
 .debug_line    0x00037b7d      0x1a4 ../Car2X_communication_bsp/\libucosii_bsp.a(alt_errno.o)
 .debug_line    0x00037d21      0x2d4 ../Car2X_communication_bsp/\libucosii_bsp.a(alt_find_dev.o)
 .debug_line    0x00037ff5      0x1b7 ../Car2X_communication_bsp/\libucosii_bsp.a(alt_icache_flush_all.o)
 .debug_line    0x000381ac      0x2c2 ../Car2X_communication_bsp/\libucosii_bsp.a(alt_iic.o)
 .debug_line    0x0003846e      0x243 ../Car2X_communication_bsp/\libucosii_bsp.a(alt_iic_isr_register.o)
 .debug_line    0x000386b1      0x31d ../Car2X_communication_bsp/\libucosii_bsp.a(alt_io_redirect.o)
 .debug_line    0x000389ce       0x6b ../Car2X_communication_bsp/\libucosii_bsp.a(alt_irq_entry.o)
 .debug_line    0x00038a39      0x2be ../Car2X_communication_bsp/\libucosii_bsp.a(alt_irq_handler.o)
 .debug_line    0x00038cf7       0x72 ../Car2X_communication_bsp/\libucosii_bsp.a(alt_irq_vars.o)
 .debug_line    0x00038d69      0x359 ../Car2X_communication_bsp/\libucosii_bsp.a(alt_open.o)
 .debug_line    0x000390c2      0x322 ../Car2X_communication_bsp/\libucosii_bsp.a(alt_read.o)
 .debug_line    0x000393e4      0x273 ../Car2X_communication_bsp/\libucosii_bsp.a(alt_release_fd.o)
 .debug_line    0x00039657      0x1b3 ../Car2X_communication_bsp/\libucosii_bsp.a(alt_remap_cached.o)
 .debug_line    0x0003980a      0x1bd ../Car2X_communication_bsp/\libucosii_bsp.a(alt_remap_uncached.o)
 .debug_line    0x000399c7      0x1c6 ../Car2X_communication_bsp/\libucosii_bsp.a(alt_uncached_malloc.o)
 .debug_line    0x00039b8d      0x323 ../Car2X_communication_bsp/\libucosii_bsp.a(alt_write.o)
 .debug_line    0x00039eb0      0x1c8 ../Car2X_communication_bsp/\libucosii_bsp.a(altera_nios2_qsys_irq.o)
 .debug_line    0x0003a078       0x86 ../Car2X_communication_bsp/\libucosii_bsp.a(os_cpu_a.o)
 .debug_line    0x0003a0fe      0x32a ../Car2X_communication_bsp/\libucosii_bsp.a(os_cpu_c.o)
 .debug_line    0x0003a428      0x511 ../Car2X_communication_bsp/\libucosii_bsp.a(allports.o)
 .debug_line    0x0003a939      0x475 ../Car2X_communication_bsp/\libucosii_bsp.a(timeouts.o)
 .debug_line    0x0003adae      0x36a ../Car2X_communication_bsp/\libucosii_bsp.a(tk_misc.o)
 .debug_line    0x0003b118      0x389 ../Car2X_communication_bsp/\libucosii_bsp.a(alt_iniche_fcntl.o)
 .debug_line    0x0003b4a1      0xc9c ../Car2X_communication_bsp/\libucosii_bsp.a(et_arp.o)
 .debug_line    0x0003c13d      0x473 ../Car2X_communication_bsp/\libucosii_bsp.a(iface.o)
 .debug_line    0x0003c5b0      0xf8f ../Car2X_communication_bsp/\libucosii_bsp.a(ip.o)
 .debug_line    0x0003d53f      0xf76 ../Car2X_communication_bsp/\libucosii_bsp.a(ip_reasm.o)
 .debug_line    0x0003e4b5      0x780 ../Car2X_communication_bsp/\libucosii_bsp.a(ipdemux.o)
 .debug_line    0x0003ec35      0x462 ../Car2X_communication_bsp/\libucosii_bsp.a(ipmc.o)
 .debug_line    0x0003f097      0x332 ../Car2X_communication_bsp/\libucosii_bsp.a(ipport.o)
 .debug_line    0x0003f3c9      0x5b3 ../Car2X_communication_bsp/\libucosii_bsp.a(ipraw.o)
 .debug_line    0x0003f97c      0x5b5 ../Car2X_communication_bsp/\libucosii_bsp.a(iproute.o)
 .debug_line    0x0003ff31      0x7f0 ../Car2X_communication_bsp/\libucosii_bsp.a(udp.o)
 .debug_line    0x00040721      0x434 ../Car2X_communication_bsp/\libucosii_bsp.a(igmp.o)
 .debug_line    0x00040b55      0x627 ../Car2X_communication_bsp/\libucosii_bsp.a(igmp2.o)
 .debug_line    0x0004117c      0x70b ../Car2X_communication_bsp/\libucosii_bsp.a(ipopt.o)
 .debug_line    0x00041887      0x5f5 ../Car2X_communication_bsp/\libucosii_bsp.a(u_mctest.o)
 .debug_line    0x00041e7c      0x443 ../Car2X_communication_bsp/\libucosii_bsp.a(memdev.o)
 .debug_line    0x000422bf      0x647 ../Car2X_communication_bsp/\libucosii_bsp.a(parseip.o)
 .debug_line    0x00042906      0x3b3 ../Car2X_communication_bsp/\libucosii_bsp.a(tcpcksum.o)
 .debug_line    0x00042cb9      0x468 ../Car2X_communication_bsp/\libucosii_bsp.a(udp_open.o)
 .debug_line    0x00043121      0x767 ../Car2X_communication_bsp/\libucosii_bsp.a(in_pcb.o)
 .debug_line    0x00043888      0xff1 ../Car2X_communication_bsp/\libucosii_bsp.a(vfsfiles.o)
 .debug_line    0x00044879      0x2be ../Car2X_communication_bsp/\libucosii_bsp.a(vfsport.o)
 .debug_line    0x00044b37      0x1db ../Car2X_communication_bsp/\libucosii_bsp.a(alt_dcache_flush.o)
 .debug_line    0x00044d12       0xab ../Car2X_communication_bsp/\libucosii_bsp.a(alt_exception_entry.o)
 .debug_line    0x00044dbd      0x352 ../Car2X_communication_bsp/\libucosii_bsp.a(alt_fcntl.o)
 .debug_line    0x0004510f      0x2e5 ../Car2X_communication_bsp/\libucosii_bsp.a(alt_find_file.o)
 .debug_line    0x000453f4      0x315 ../Car2X_communication_bsp/\libucosii_bsp.a(alt_get_fd.o)
 .debug_line    0x00045709      0x1f3 ../Car2X_communication_bsp/\libucosii_bsp.a(alt_icache_flush.o)
 .debug_line    0x000458fc      0x952 ../Car2X_communication_bsp/\libucosii_bsp.a(icmp.o)
 .debug_line    0x0004624e      0x1fa c:/altera/12.1/nios2eds/bin/gnu/h-i686-mingw32/bin/../lib/gcc/nios2-elf/4.1.2/../../../../nios2-elf/lib\libc.a(lib_a-atexit.o)
 .debug_line    0x00046448      0x204 c:/altera/12.1/nios2eds/bin/gnu/h-i686-mingw32/bin/../lib/gcc/nios2-elf/4.1.2/../../../../nios2-elf/lib\libc.a(lib_a-atoi.o)
 .debug_line    0x0004664c      0x206 c:/altera/12.1/nios2eds/bin/gnu/h-i686-mingw32/bin/../lib/gcc/nios2-elf/4.1.2/../../../../nios2-elf/lib\libc.a(lib_a-calloc.o)
 .debug_line    0x00046852      0x232 c:/altera/12.1/nios2eds/bin/gnu/h-i686-mingw32/bin/../lib/gcc/nios2-elf/4.1.2/../../../../nios2-elf/lib\libc.a(lib_a-exit.o)
 .debug_line    0x00046a84      0x296 c:/altera/12.1/nios2eds/bin/gnu/h-i686-mingw32/bin/../lib/gcc/nios2-elf/4.1.2/../../../../nios2-elf/lib\libc.a(lib_a-memcmp.o)
 .debug_line    0x00046d1a      0x31c c:/altera/12.1/nios2eds/bin/gnu/h-i686-mingw32/bin/../lib/gcc/nios2-elf/4.1.2/../../../../nios2-elf/lib\libc.a(lib_a-sprintf.o)
 .debug_line    0x00047036      0x2be c:/altera/12.1/nios2eds/bin/gnu/h-i686-mingw32/bin/../lib/gcc/nios2-elf/4.1.2/../../../../nios2-elf/lib\libc.a(lib_a-strchr.o)
 .debug_line    0x000472f4      0x27e c:/altera/12.1/nios2eds/bin/gnu/h-i686-mingw32/bin/../lib/gcc/nios2-elf/4.1.2/../../../../nios2-elf/lib\libc.a(lib_a-strcpy.o)
 .debug_line    0x00047572      0x2f5 c:/altera/12.1/nios2eds/bin/gnu/h-i686-mingw32/bin/../lib/gcc/nios2-elf/4.1.2/../../../../nios2-elf/lib\libc.a(lib_a-strncmp.o)
 .debug_line    0x00047867      0x3fd c:/altera/12.1/nios2eds/bin/gnu/h-i686-mingw32/bin/../lib/gcc/nios2-elf/4.1.2/../../../../nios2-elf/lib\libc.a(lib_a-strtol.o)
 .debug_line    0x00047c64      0x269 c:/altera/12.1/nios2eds/bin/gnu/h-i686-mingw32/bin/../lib/gcc/nios2-elf/4.1.2/../../../../nios2-elf/lib\libc.a(lib_a-vprintf.o)
 .debug_line    0x00047ecd      0x2d3 c:/altera/12.1/nios2eds/bin/gnu/h-i686-mingw32/bin/../lib/gcc/nios2-elf/4.1.2/../../../../nios2-elf/lib\libc.a(lib_a-vsprintf.o)
 .debug_line    0x000481a0      0x30d c:/altera/12.1/nios2eds/bin/gnu/h-i686-mingw32/bin/../lib/gcc/nios2-elf/4.1.2/../../../../nios2-elf/lib\libc.a(lib_a-__atexit.o)
 .debug_line    0x000484ad      0x361 c:/altera/12.1/nios2eds/bin/gnu/h-i686-mingw32/bin/../lib/gcc/nios2-elf/4.1.2/../../../../nios2-elf/lib\libc.a(lib_a-__call_atexit.o)

.debug_frame    0x00000000     0x84c4
 *(.debug_frame)
 .debug_frame   0x00000000       0x64 obj/default/alt_error_handler.o
 .debug_frame   0x00000064       0x48 obj/default/main.o
 .debug_frame   0x000000ac       0xd8 obj/default/network_utilities.o
 .debug_frame   0x00000184      0x1a0 obj/default/COMM_CarProtocol/ADCInfoMessage.o
 .debug_frame   0x00000324      0x1a0 obj/default/COMM_CarProtocol/ADCValuesMessage.o
 .debug_frame   0x000004c4      0x1a0 obj/default/COMM_CarProtocol/AccelerationValuesMessage.o
 .debug_frame   0x00000664      0x228 obj/default/COMM_CarProtocol/CarMessage.o
 .debug_frame   0x0000088c      0x194 obj/default/COMM_CarProtocol/CarProtocol.o
 .debug_frame   0x00000a20      0x1a0 obj/default/COMM_CarProtocol/MotorMeasurementMessage.o
 .debug_frame   0x00000bc0      0x1a0 obj/default/COMM_CarProtocol/MotorVelocityMessage.o
 .debug_frame   0x00000d60      0x1a0 obj/default/COMM_CarProtocol/UltrasoundDistanceMessage.o
 .debug_frame   0x00000f00      0x1a0 obj/default/COMM_CarProtocol/WelcomeMessage.o
 .debug_frame   0x000010a0      0x160 obj/default/CarMessages/CControlMessage.o
 .debug_frame   0x00001200      0x160 obj/default/CarMessages/CEmergencyBrakeMessage.o
 .debug_frame   0x00001360       0x48 obj/default/etc/utility.o
 .debug_frame   0x000013a8       0x2c obj/default/external_drivers/accelerometer_interface.o
 .debug_frame   0x000013d4       0x30 obj/default/external_drivers/adc_interface.o
 .debug_frame   0x00001404       0x2c obj/default/external_drivers/ultrasound_interface.o
 .debug_frame   0x00001430      0x120 obj/default/sensors/ADCSensor.o
 .debug_frame   0x00001550      0x154 obj/default/sensors/AccelerationSensor.o
 .debug_frame   0x000016a4      0x10c obj/default/sensors/SensorState.o
 .debug_frame   0x000017b0      0x11c obj/default/sensors/UltrasoundSensor.o
 .debug_frame   0x000018cc       0xd0 obj/default/socketserver.o
 .debug_frame   0x0000199c      0x128 obj/default/terasic_lib/I2C.o
 .debug_frame   0x00001ac4       0xa0 obj/default/terasic_lib/accelerometer_adxl345_spi.o
 .debug_frame   0x00001b64       0x2c obj/default/terasic_lib/adc_spi_read.o
 .debug_frame   0x00001b90       0x9c obj/default/terasic_lib/terasic_spi.o
 .debug_frame   0x00001c2c      0x114 c:/altera/12.1/nios2eds/bin/gnu/h-i686-mingw32/bin/../lib/gcc/nios2-elf/4.1.2/../../../../nios2-elf/lib\libstdc++.a(eh_personality.o)
 .debug_frame   0x00001d40       0x8c c:/altera/12.1/nios2eds/bin/gnu/h-i686-mingw32/bin/../lib/gcc/nios2-elf/4.1.2/../../../../nios2-elf/lib\libstdc++.a(eh_exception.o)
 .debug_frame   0x00001dcc       0x20 c:/altera/12.1/nios2eds/bin/gnu/h-i686-mingw32/bin/../lib/gcc/nios2-elf/4.1.2/../../../../nios2-elf/lib\libstdc++.a(del_op.o)
 .debug_frame   0x00001dec       0x28 c:/altera/12.1/nios2eds/bin/gnu/h-i686-mingw32/bin/../lib/gcc/nios2-elf/4.1.2/../../../../nios2-elf/lib\libstdc++.a(eh_call.o)
 .debug_frame   0x00001e14       0xb0 c:/altera/12.1/nios2eds/bin/gnu/h-i686-mingw32/bin/../lib/gcc/nios2-elf/4.1.2/../../../../nios2-elf/lib\libstdc++.a(class_type_info.o)
 .debug_frame   0x00001ec4       0x2c c:/altera/12.1/nios2eds/bin/gnu/h-i686-mingw32/bin/../lib/gcc/nios2-elf/4.1.2/../../../../nios2-elf/lib\libstdc++.a(new_op.o)
 .debug_frame   0x00001ef0       0x94 c:/altera/12.1/nios2eds/bin/gnu/h-i686-mingw32/bin/../lib/gcc/nios2-elf/4.1.2/../../../../nios2-elf/lib\libstdc++.a(si_class_type_info.o)
 .debug_frame   0x00001f84       0x3c c:/altera/12.1/nios2eds/bin/gnu/h-i686-mingw32/bin/../lib/gcc/nios2-elf/4.1.2/../../../../nios2-elf/lib\libstdc++.a(eh_alloc.o)
 .debug_frame   0x00001fc0       0x80 c:/altera/12.1/nios2eds/bin/gnu/h-i686-mingw32/bin/../lib/gcc/nios2-elf/4.1.2/../../../../nios2-elf/lib\libstdc++.a(tinfo.o)
 .debug_frame   0x00002040       0x58 c:/altera/12.1/nios2eds/bin/gnu/h-i686-mingw32/bin/../lib/gcc/nios2-elf/4.1.2/../../../../nios2-elf/lib\libstdc++.a(eh_throw.o)
 .debug_frame   0x00002098       0x94 c:/altera/12.1/nios2eds/bin/gnu/h-i686-mingw32/bin/../lib/gcc/nios2-elf/4.1.2/../../../../nios2-elf/lib\libstdc++.a(eh_terminate.o)
 .debug_frame   0x0000212c       0x30 c:/altera/12.1/nios2eds/bin/gnu/h-i686-mingw32/bin/../lib/gcc/nios2-elf/4.1.2/../../../../nios2-elf/lib\libstdc++.a(eh_globals.o)
 .debug_frame   0x0000215c       0x5c c:/altera/12.1/nios2eds/bin/gnu/h-i686-mingw32/bin/../lib/gcc/nios2-elf/4.1.2/../../../../nios2-elf/lib\libstdc++.a(new_handler.o)
 .debug_frame   0x000021b8       0x6c c:/altera/12.1/nios2eds/bin/gnu/h-i686-mingw32/bin/../lib/gcc/nios2-elf/4.1.2/../../../../nios2-elf/lib\libstdc++.a(eh_catch.o)
 .debug_frame   0x00002224       0x70 c:/altera/12.1/nios2eds/bin/gnu/h-i686-mingw32/bin/../lib/gcc/nios2-elf/4.1.2\libgcc.a(lib2-divmod.o)
 .debug_frame   0x00002294      0x1d8 c:/altera/12.1/nios2eds/bin/gnu/h-i686-mingw32/bin/../lib/gcc/nios2-elf/4.1.2\libgcc.a(unwind-sjlj.o)
 .debug_frame   0x0000246c       0x28 c:/altera/12.1/nios2eds/bin/gnu/h-i686-mingw32/bin/../lib/gcc/nios2-elf/4.1.2/../../../../nios2-elf/lib\libc.a(lib_a-abort.o)
 .debug_frame   0x00002494       0x40 c:/altera/12.1/nios2eds/bin/gnu/h-i686-mingw32/bin/../lib/gcc/nios2-elf/4.1.2/../../../../nios2-elf/lib\libc.a(lib_a-fprintf.o)
 .debug_frame   0x000024d4       0x48 c:/altera/12.1/nios2eds/bin/gnu/h-i686-mingw32/bin/../lib/gcc/nios2-elf/4.1.2/../../../../nios2-elf/lib\libc.a(lib_a-fwrite.o)
 .debug_frame   0x0000251c       0x48 c:/altera/12.1/nios2eds/bin/gnu/h-i686-mingw32/bin/../lib/gcc/nios2-elf/4.1.2/../../../../nios2-elf/lib\libc.a(lib_a-getc.o)
 .debug_frame   0x00002564       0x30 c:/altera/12.1/nios2eds/bin/gnu/h-i686-mingw32/bin/../lib/gcc/nios2-elf/4.1.2/../../../../nios2-elf/lib\libc.a(lib_a-malloc.o)
 .debug_frame   0x00002594       0x38 c:/altera/12.1/nios2eds/bin/gnu/h-i686-mingw32/bin/../lib/gcc/nios2-elf/4.1.2/../../../../nios2-elf/lib\libc.a(lib_a-mallocr.o)
 .debug_frame   0x000025cc       0x20 c:/altera/12.1/nios2eds/bin/gnu/h-i686-mingw32/bin/../lib/gcc/nios2-elf/4.1.2/../../../../nios2-elf/lib\libc.a(lib_a-memmove.o)
 .debug_frame   0x000025ec       0x20 c:/altera/12.1/nios2eds/bin/gnu/h-i686-mingw32/bin/../lib/gcc/nios2-elf/4.1.2/../../../../nios2-elf/lib\libc.a(lib_a-memset.o)
 .debug_frame   0x0000260c       0x38 c:/altera/12.1/nios2eds/bin/gnu/h-i686-mingw32/bin/../lib/gcc/nios2-elf/4.1.2/../../../../nios2-elf/lib\libc.a(lib_a-perror.o)
 .debug_frame   0x00002644       0x40 c:/altera/12.1/nios2eds/bin/gnu/h-i686-mingw32/bin/../lib/gcc/nios2-elf/4.1.2/../../../../nios2-elf/lib\libc.a(lib_a-printf.o)
 .debug_frame   0x00002684       0x4c c:/altera/12.1/nios2eds/bin/gnu/h-i686-mingw32/bin/../lib/gcc/nios2-elf/4.1.2/../../../../nios2-elf/lib\libc.a(lib_a-putc.o)
 .debug_frame   0x000026d0       0x30 c:/altera/12.1/nios2eds/bin/gnu/h-i686-mingw32/bin/../lib/gcc/nios2-elf/4.1.2/../../../../nios2-elf/lib\libc.a(lib_a-putchar.o)
 .debug_frame   0x00002700       0x3c c:/altera/12.1/nios2eds/bin/gnu/h-i686-mingw32/bin/../lib/gcc/nios2-elf/4.1.2/../../../../nios2-elf/lib\libc.a(lib_a-puts.o)
 .debug_frame   0x0000273c       0x38 c:/altera/12.1/nios2eds/bin/gnu/h-i686-mingw32/bin/../lib/gcc/nios2-elf/4.1.2/../../../../nios2-elf/lib\libc.a(lib_a-rget.o)
 .debug_frame   0x00002774       0x2c c:/altera/12.1/nios2eds/bin/gnu/h-i686-mingw32/bin/../lib/gcc/nios2-elf/4.1.2/../../../../nios2-elf/lib\libc.a(lib_a-sbrkr.o)
 .debug_frame   0x000027a0       0xb8 c:/altera/12.1/nios2eds/bin/gnu/h-i686-mingw32/bin/../lib/gcc/nios2-elf/4.1.2/../../../../nios2-elf/lib\libc.a(lib_a-signal.o)
 .debug_frame   0x00002858       0x3c c:/altera/12.1/nios2eds/bin/gnu/h-i686-mingw32/bin/../lib/gcc/nios2-elf/4.1.2/../../../../nios2-elf/lib\libc.a(lib_a-signalr.o)
 .debug_frame   0x00002894       0x28 c:/altera/12.1/nios2eds/bin/gnu/h-i686-mingw32/bin/../lib/gcc/nios2-elf/4.1.2/../../../../nios2-elf/lib\libc.a(lib_a-strerror.o)
 .debug_frame   0x000028bc       0x20 c:/altera/12.1/nios2eds/bin/gnu/h-i686-mingw32/bin/../lib/gcc/nios2-elf/4.1.2/../../../../nios2-elf/lib\libc.a(lib_a-strlen.o)
 .debug_frame   0x000028dc       0x20 c:/altera/12.1/nios2eds/bin/gnu/h-i686-mingw32/bin/../lib/gcc/nios2-elf/4.1.2/../../../../nios2-elf/lib\libc.a(lib_a-u_strerr.o)
 .debug_frame   0x000028fc       0x64 c:/altera/12.1/nios2eds/bin/gnu/h-i686-mingw32/bin/../lib/gcc/nios2-elf/4.1.2/../../../../nios2-elf/lib\libc.a(lib_a-vfprintf.o)
 .debug_frame   0x00002960       0x3c c:/altera/12.1/nios2eds/bin/gnu/h-i686-mingw32/bin/../lib/gcc/nios2-elf/4.1.2/../../../../nios2-elf/lib\libc.a(lib_a-wbuf.o)
 .debug_frame   0x0000299c       0x2c c:/altera/12.1/nios2eds/bin/gnu/h-i686-mingw32/bin/../lib/gcc/nios2-elf/4.1.2/../../../../nios2-elf/lib\libc.a(lib_a-wsetup.o)
 .debug_frame   0x000029c8       0x64 c:/altera/12.1/nios2eds/bin/gnu/h-i686-mingw32/bin/../lib/gcc/nios2-elf/4.1.2/../../../../nios2-elf/lib\libc.a(lib_a-dtoa.o)
 .debug_frame   0x00002a2c       0x40 c:/altera/12.1/nios2eds/bin/gnu/h-i686-mingw32/bin/../lib/gcc/nios2-elf/4.1.2/../../../../nios2-elf/lib\libc.a(lib_a-fflush.o)
 .debug_frame   0x00002a6c      0x118 c:/altera/12.1/nios2eds/bin/gnu/h-i686-mingw32/bin/../lib/gcc/nios2-elf/4.1.2/../../../../nios2-elf/lib\libc.a(lib_a-findfp.o)
 .debug_frame   0x00002b84       0x4c c:/altera/12.1/nios2eds/bin/gnu/h-i686-mingw32/bin/../lib/gcc/nios2-elf/4.1.2/../../../../nios2-elf/lib\libc.a(lib_a-fputc.o)
 .debug_frame   0x00002bd0       0x3c c:/altera/12.1/nios2eds/bin/gnu/h-i686-mingw32/bin/../lib/gcc/nios2-elf/4.1.2/../../../../nios2-elf/lib\libc.a(lib_a-fputs.o)
 .debug_frame   0x00002c0c       0x4c c:/altera/12.1/nios2eds/bin/gnu/h-i686-mingw32/bin/../lib/gcc/nios2-elf/4.1.2/../../../../nios2-elf/lib\libc.a(lib_a-freer.o)
 .debug_frame   0x00002c58       0x38 c:/altera/12.1/nios2eds/bin/gnu/h-i686-mingw32/bin/../lib/gcc/nios2-elf/4.1.2/../../../../nios2-elf/lib\libc.a(lib_a-fvwrite.o)
 .debug_frame   0x00002c90       0x60 c:/altera/12.1/nios2eds/bin/gnu/h-i686-mingw32/bin/../lib/gcc/nios2-elf/4.1.2/../../../../nios2-elf/lib\libc.a(lib_a-fwalk.o)
 .debug_frame   0x00002cf0       0x70 c:/altera/12.1/nios2eds/bin/gnu/h-i686-mingw32/bin/../lib/gcc/nios2-elf/4.1.2/../../../../nios2-elf/lib\libc.a(lib_a-locale.o)
 .debug_frame   0x00002d60       0x2c c:/altera/12.1/nios2eds/bin/gnu/h-i686-mingw32/bin/../lib/gcc/nios2-elf/4.1.2/../../../../nios2-elf/lib\libc.a(lib_a-makebuf.o)
 .debug_frame   0x00002d8c       0x20 c:/altera/12.1/nios2eds/bin/gnu/h-i686-mingw32/bin/../lib/gcc/nios2-elf/4.1.2/../../../../nios2-elf/lib\libc.a(lib_a-memchr.o)
 .debug_frame   0x00002dac       0x20 c:/altera/12.1/nios2eds/bin/gnu/h-i686-mingw32/bin/../lib/gcc/nios2-elf/4.1.2/../../../../nios2-elf/lib\libc.a(lib_a-memcpy.o)
 .debug_frame   0x00002dcc      0x218 c:/altera/12.1/nios2eds/bin/gnu/h-i686-mingw32/bin/../lib/gcc/nios2-elf/4.1.2/../../../../nios2-elf/lib\libc.a(lib_a-mprec.o)
 .debug_frame   0x00002fe4       0x38 c:/altera/12.1/nios2eds/bin/gnu/h-i686-mingw32/bin/../lib/gcc/nios2-elf/4.1.2/../../../../nios2-elf/lib\libc.a(lib_a-reallocr.o)
 .debug_frame   0x0000301c       0x3c c:/altera/12.1/nios2eds/bin/gnu/h-i686-mingw32/bin/../lib/gcc/nios2-elf/4.1.2/../../../../nios2-elf/lib\libc.a(lib_a-refill.o)
 .debug_frame   0x00003058       0x20 c:/altera/12.1/nios2eds/bin/gnu/h-i686-mingw32/bin/../lib/gcc/nios2-elf/4.1.2/../../../../nios2-elf/lib\libc.a(lib_a-s_isinfd.o)
 .debug_frame   0x00003078       0x20 c:/altera/12.1/nios2eds/bin/gnu/h-i686-mingw32/bin/../lib/gcc/nios2-elf/4.1.2/../../../../nios2-elf/lib\libc.a(lib_a-s_isnand.o)
 .debug_frame   0x00003098       0x78 c:/altera/12.1/nios2eds/bin/gnu/h-i686-mingw32/bin/../lib/gcc/nios2-elf/4.1.2/../../../../nios2-elf/lib\libc.a(lib_a-stdio.o)
 .debug_frame   0x00003110       0x20 c:/altera/12.1/nios2eds/bin/gnu/h-i686-mingw32/bin/../lib/gcc/nios2-elf/4.1.2/../../../../nios2-elf/lib\libc.a(lib_a-strcmp.o)
 .debug_frame   0x00003130       0x2c c:/altera/12.1/nios2eds/bin/gnu/h-i686-mingw32/bin/../lib/gcc/nios2-elf/4.1.2/../../../../nios2-elf/lib\libc.a(lib_a-writer.o)
 .debug_frame   0x0000315c       0x28 c:/altera/12.1/nios2eds/bin/gnu/h-i686-mingw32/bin/../lib/gcc/nios2-elf/4.1.2/../../../../nios2-elf/lib\libc.a(lib_a-callocr.o)
 .debug_frame   0x00003184       0x2c c:/altera/12.1/nios2eds/bin/gnu/h-i686-mingw32/bin/../lib/gcc/nios2-elf/4.1.2/../../../../nios2-elf/lib\libc.a(lib_a-closer.o)
 .debug_frame   0x000031b0       0x3c c:/altera/12.1/nios2eds/bin/gnu/h-i686-mingw32/bin/../lib/gcc/nios2-elf/4.1.2/../../../../nios2-elf/lib\libc.a(lib_a-fclose.o)
 .debug_frame   0x000031ec       0x2c c:/altera/12.1/nios2eds/bin/gnu/h-i686-mingw32/bin/../lib/gcc/nios2-elf/4.1.2/../../../../nios2-elf/lib\libc.a(lib_a-fstatr.o)
 .debug_frame   0x00003218       0x2c c:/altera/12.1/nios2eds/bin/gnu/h-i686-mingw32/bin/../lib/gcc/nios2-elf/4.1.2/../../../../nios2-elf/lib\libc.a(lib_a-isattyr.o)
 .debug_frame   0x00003244       0x2c c:/altera/12.1/nios2eds/bin/gnu/h-i686-mingw32/bin/../lib/gcc/nios2-elf/4.1.2/../../../../nios2-elf/lib\libc.a(lib_a-lseekr.o)
 .debug_frame   0x00003270       0x2c c:/altera/12.1/nios2eds/bin/gnu/h-i686-mingw32/bin/../lib/gcc/nios2-elf/4.1.2/../../../../nios2-elf/lib\libc.a(lib_a-readr.o)
 .debug_frame   0x0000329c       0x38 c:/altera/12.1/nios2eds/bin/gnu/h-i686-mingw32/bin/../lib/gcc/nios2-elf/4.1.2\libgcc.a(_udivdi3.o)
 .debug_frame   0x000032d4       0x38 c:/altera/12.1/nios2eds/bin/gnu/h-i686-mingw32/bin/../lib/gcc/nios2-elf/4.1.2\libgcc.a(_umoddi3.o)
 .debug_frame   0x0000330c       0x70 c:/altera/12.1/nios2eds/bin/gnu/h-i686-mingw32/bin/../lib/gcc/nios2-elf/4.1.2\libgcc.a(_addsub_df.o)
 .debug_frame   0x0000337c       0x3c c:/altera/12.1/nios2eds/bin/gnu/h-i686-mingw32/bin/../lib/gcc/nios2-elf/4.1.2\libgcc.a(_mul_df.o)
 .debug_frame   0x000033b8       0x30 c:/altera/12.1/nios2eds/bin/gnu/h-i686-mingw32/bin/../lib/gcc/nios2-elf/4.1.2\libgcc.a(_div_df.o)
 .debug_frame   0x000033e8       0x2c c:/altera/12.1/nios2eds/bin/gnu/h-i686-mingw32/bin/../lib/gcc/nios2-elf/4.1.2\libgcc.a(_eq_df.o)
 .debug_frame   0x00003414       0x2c c:/altera/12.1/nios2eds/bin/gnu/h-i686-mingw32/bin/../lib/gcc/nios2-elf/4.1.2\libgcc.a(_ne_df.o)
 .debug_frame   0x00003440       0x2c c:/altera/12.1/nios2eds/bin/gnu/h-i686-mingw32/bin/../lib/gcc/nios2-elf/4.1.2\libgcc.a(_gt_df.o)
 .debug_frame   0x0000346c       0x2c c:/altera/12.1/nios2eds/bin/gnu/h-i686-mingw32/bin/../lib/gcc/nios2-elf/4.1.2\libgcc.a(_ge_df.o)
 .debug_frame   0x00003498       0x2c c:/altera/12.1/nios2eds/bin/gnu/h-i686-mingw32/bin/../lib/gcc/nios2-elf/4.1.2\libgcc.a(_lt_df.o)
 .debug_frame   0x000034c4       0x30 c:/altera/12.1/nios2eds/bin/gnu/h-i686-mingw32/bin/../lib/gcc/nios2-elf/4.1.2\libgcc.a(_si_to_df.o)
 .debug_frame   0x000034f4       0x28 c:/altera/12.1/nios2eds/bin/gnu/h-i686-mingw32/bin/../lib/gcc/nios2-elf/4.1.2\libgcc.a(_df_to_si.o)
 .debug_frame   0x0000351c       0x38 c:/altera/12.1/nios2eds/bin/gnu/h-i686-mingw32/bin/../lib/gcc/nios2-elf/4.1.2\libgcc.a(_usi_to_df.o)
 .debug_frame   0x00003554       0x2c c:/altera/12.1/nios2eds/bin/gnu/h-i686-mingw32/bin/../lib/gcc/nios2-elf/4.1.2\libgcc.a(_muldi3.o)
 .debug_frame   0x00003580       0x20 c:/altera/12.1/nios2eds/bin/gnu/h-i686-mingw32/bin/../lib/gcc/nios2-elf/4.1.2\libgcc.a(_clzsi2.o)
 .debug_frame   0x000035a0       0x2c c:/altera/12.1/nios2eds/bin/gnu/h-i686-mingw32/bin/../lib/gcc/nios2-elf/4.1.2\libgcc.a(_pack_df.o)
 .debug_frame   0x000035cc       0x20 c:/altera/12.1/nios2eds/bin/gnu/h-i686-mingw32/bin/../lib/gcc/nios2-elf/4.1.2\libgcc.a(_unpack_df.o)
 .debug_frame   0x000035ec       0x20 c:/altera/12.1/nios2eds/bin/gnu/h-i686-mingw32/bin/../lib/gcc/nios2-elf/4.1.2\libgcc.a(_fpcmp_parts_df.o)
 .debug_frame   0x0000360c       0x48 ../Car2X_communication_bsp/\libucosii_bsp.a(alt_exit.o)
 .debug_frame   0x00003654       0x48 ../Car2X_communication_bsp/\libucosii_bsp.a(alt_fstat.o)
 .debug_frame   0x0000369c       0x2c ../Car2X_communication_bsp/\libucosii_bsp.a(alt_getpid.o)
 .debug_frame   0x000036c8       0x48 ../Car2X_communication_bsp/\libucosii_bsp.a(alt_isatty.o)
 .debug_frame   0x00003710       0x48 ../Car2X_communication_bsp/\libucosii_bsp.a(alt_kill.o)
 .debug_frame   0x00003758       0x48 ../Car2X_communication_bsp/\libucosii_bsp.a(alt_load.o)
 .debug_frame   0x000037a0       0x48 ../Car2X_communication_bsp/\libucosii_bsp.a(alt_lseek.o)
 .debug_frame   0x000037e8       0x2c ../Car2X_communication_bsp/\libucosii_bsp.a(alt_main.o)
 .debug_frame   0x00003814       0x2c ../Car2X_communication_bsp/\libucosii_bsp.a(alt_sbrk.o)
 .debug_frame   0x00003840       0x48 ../Car2X_communication_bsp/\libucosii_bsp.a(alt_tick.o)
 .debug_frame   0x00003888       0x30 ../Car2X_communication_bsp/\libucosii_bsp.a(alt_usleep.o)
 .debug_frame   0x000038b8       0x4c ../Car2X_communication_bsp/\libucosii_bsp.a(alt_env_lock.o)
 .debug_frame   0x00003904       0x4c ../Car2X_communication_bsp/\libucosii_bsp.a(alt_malloc_lock.o)
 .debug_frame   0x00003950      0x3e4 ../Car2X_communication_bsp/\libucosii_bsp.a(os_core.o)
 .debug_frame   0x00003d34       0x2c ../Car2X_communication_bsp/\libucosii_bsp.a(os_dbg.o)
 .debug_frame   0x00003d60      0x180 ../Car2X_communication_bsp/\libucosii_bsp.a(os_flag.o)
 .debug_frame   0x00003ee0       0xd4 ../Car2X_communication_bsp/\libucosii_bsp.a(os_mem.o)
 .debug_frame   0x00003fb4      0x144 ../Car2X_communication_bsp/\libucosii_bsp.a(os_q.o)
 .debug_frame   0x000040f8       0xf0 ../Car2X_communication_bsp/\libucosii_bsp.a(os_sem.o)
 .debug_frame   0x000041e8      0x160 ../Car2X_communication_bsp/\libucosii_bsp.a(os_task.o)
 .debug_frame   0x00004348       0xa0 ../Car2X_communication_bsp/\libucosii_bsp.a(os_time.o)
 .debug_frame   0x000043e8       0x9c ../Car2X_communication_bsp/\libucosii_bsp.a(alt_sys_init.o)
 .debug_frame   0x00004484       0x80 ../Car2X_communication_bsp/\libucosii_bsp.a(altera_avalon_jtag_uart_fd.o)
 .debug_frame   0x00004504       0x80 ../Car2X_communication_bsp/\libucosii_bsp.a(altera_avalon_jtag_uart_init.o)
 .debug_frame   0x00004584       0x2c ../Car2X_communication_bsp/\libucosii_bsp.a(altera_avalon_jtag_uart_ioctl.o)
 .debug_frame   0x000045b0       0x2c ../Car2X_communication_bsp/\libucosii_bsp.a(altera_avalon_jtag_uart_read.o)
 .debug_frame   0x000045dc       0x2c ../Car2X_communication_bsp/\libucosii_bsp.a(altera_avalon_jtag_uart_write.o)
 .debug_frame   0x00004608      0x10c ../Car2X_communication_bsp/\libucosii_bsp.a(altera_avalon_mutex.o)
 .debug_frame   0x00004714      0x240 ../Car2X_communication_bsp/\libucosii_bsp.a(altera_avalon_sgdma.o)
 .debug_frame   0x00004954       0x48 ../Car2X_communication_bsp/\libucosii_bsp.a(altera_avalon_timer_sc.o)
 .debug_frame   0x0000499c      0x4d8 ../Car2X_communication_bsp/\libucosii_bsp.a(altera_avalon_tse.o)
 .debug_frame   0x00004e74      0x114 ../Car2X_communication_bsp/\libucosii_bsp.a(ins_tse_mac.o)
 .debug_frame   0x00004f88       0x2c ../Car2X_communication_bsp/\libucosii_bsp.a(alt_iniche_close.o)
 .debug_frame   0x00004fb4       0x2c ../Car2X_communication_bsp/\libucosii_bsp.a(alt_iniche_dev.o)
 .debug_frame   0x00004fe0       0x2c ../Car2X_communication_bsp/\libucosii_bsp.a(alt_iniche_read.o)
 .debug_frame   0x0000500c       0x2c ../Car2X_communication_bsp/\libucosii_bsp.a(alt_iniche_write.o)
 .debug_frame   0x00005038       0xb8 ../Car2X_communication_bsp/\libucosii_bsp.a(ipnet.o)
 .debug_frame   0x000050f0       0x80 ../Car2X_communication_bsp/\libucosii_bsp.a(ipstart.o)
 .debug_frame   0x00005170       0xf4 ../Car2X_communication_bsp/\libucosii_bsp.a(igmp_cmn.o)
 .debug_frame   0x00005264      0x128 ../Car2X_communication_bsp/\libucosii_bsp.a(bsdsock.o)
 .debug_frame   0x0000538c       0x48 ../Car2X_communication_bsp/\libucosii_bsp.a(cksum.o)
 .debug_frame   0x000053d4      0x164 ../Car2X_communication_bsp/\libucosii_bsp.a(in_utils.o)
 .debug_frame   0x00005538       0x64 ../Car2X_communication_bsp/\libucosii_bsp.a(netmain.o)
 .debug_frame   0x0000559c       0xd4 ../Car2X_communication_bsp/\libucosii_bsp.a(tk_crnos.o)
 .debug_frame   0x00005670       0xb8 ../Car2X_communication_bsp/\libucosii_bsp.a(pktalloc.o)
 .debug_frame   0x00005728       0x64 ../Car2X_communication_bsp/\libucosii_bsp.a(q.o)
 .debug_frame   0x0000578c       0xf0 ../Car2X_communication_bsp/\libucosii_bsp.a(brdutils.o)
 .debug_frame   0x0000587c       0x9c ../Car2X_communication_bsp/\libucosii_bsp.a(osportco.o)
 .debug_frame   0x00005918      0x110 ../Car2X_communication_bsp/\libucosii_bsp.a(targnios.o)
 .debug_frame   0x00005a28      0x208 ../Car2X_communication_bsp/\libucosii_bsp.a(nptcp.o)
 .debug_frame   0x00005c30       0x68 ../Car2X_communication_bsp/\libucosii_bsp.a(rawsock.o)
 .debug_frame   0x00005c98      0x224 ../Car2X_communication_bsp/\libucosii_bsp.a(sockcall.o)
 .debug_frame   0x00005ebc      0x1d0 ../Car2X_communication_bsp/\libucosii_bsp.a(socket.o)
 .debug_frame   0x0000608c      0x294 ../Car2X_communication_bsp/\libucosii_bsp.a(socket2.o)
 .debug_frame   0x00006320      0x110 ../Car2X_communication_bsp/\libucosii_bsp.a(soselect.o)
 .debug_frame   0x00006430       0xd8 ../Car2X_communication_bsp/\libucosii_bsp.a(tcp_in.o)
 .debug_frame   0x00006508       0x68 ../Car2X_communication_bsp/\libucosii_bsp.a(tcp_out.o)
 .debug_frame   0x00006570      0x10c ../Car2X_communication_bsp/\libucosii_bsp.a(tcp_subr.o)
 .debug_frame   0x0000667c       0x64 ../Car2X_communication_bsp/\libucosii_bsp.a(tcp_timr.o)
 .debug_frame   0x000066e0       0x80 ../Car2X_communication_bsp/\libucosii_bsp.a(tcp_usr.o)
 .debug_frame   0x00006760       0x2c ../Car2X_communication_bsp/\libucosii_bsp.a(tcpport.o)
 .debug_frame   0x0000678c       0xbc ../Car2X_communication_bsp/\libucosii_bsp.a(udpsock.o)
 .debug_frame   0x00006848       0x2c ../Car2X_communication_bsp/\libucosii_bsp.a(alt_alarm_start.o)
 .debug_frame   0x00006874       0x2c ../Car2X_communication_bsp/\libucosii_bsp.a(alt_busy_sleep.o)
 .debug_frame   0x000068a0       0x48 ../Car2X_communication_bsp/\libucosii_bsp.a(alt_close.o)
 .debug_frame   0x000068e8       0x2c ../Car2X_communication_bsp/\libucosii_bsp.a(alt_dcache_flush_all.o)
 .debug_frame   0x00006914       0x2c ../Car2X_communication_bsp/\libucosii_bsp.a(alt_dev.o)
 .debug_frame   0x00006940       0x48 ../Car2X_communication_bsp/\libucosii_bsp.a(alt_dev_llist_insert.o)
 .debug_frame   0x00006988       0x2c ../Car2X_communication_bsp/\libucosii_bsp.a(alt_do_ctors.o)
 .debug_frame   0x000069b4       0x2c ../Car2X_communication_bsp/\libucosii_bsp.a(alt_do_dtors.o)
 .debug_frame   0x000069e0       0x2c ../Car2X_communication_bsp/\libucosii_bsp.a(alt_find_dev.o)
 .debug_frame   0x00006a0c       0x2c ../Car2X_communication_bsp/\libucosii_bsp.a(alt_icache_flush_all.o)
 .debug_frame   0x00006a38       0x80 ../Car2X_communication_bsp/\libucosii_bsp.a(alt_iic.o)
 .debug_frame   0x00006ab8       0x2c ../Car2X_communication_bsp/\libucosii_bsp.a(alt_iic_isr_register.o)
 .debug_frame   0x00006ae4       0x48 ../Car2X_communication_bsp/\libucosii_bsp.a(alt_io_redirect.o)
 .debug_frame   0x00006b2c       0x2c ../Car2X_communication_bsp/\libucosii_bsp.a(alt_irq_handler.o)
 .debug_frame   0x00006b58       0x64 ../Car2X_communication_bsp/\libucosii_bsp.a(alt_open.o)
 .debug_frame   0x00006bbc       0x48 ../Car2X_communication_bsp/\libucosii_bsp.a(alt_read.o)
 .debug_frame   0x00006c04       0x2c ../Car2X_communication_bsp/\libucosii_bsp.a(alt_release_fd.o)
 .debug_frame   0x00006c30       0x2c ../Car2X_communication_bsp/\libucosii_bsp.a(alt_remap_cached.o)
 .debug_frame   0x00006c5c       0x2c ../Car2X_communication_bsp/\libucosii_bsp.a(alt_remap_uncached.o)
 .debug_frame   0x00006c88       0x2c ../Car2X_communication_bsp/\libucosii_bsp.a(alt_uncached_malloc.o)
 .debug_frame   0x00006cb4       0x48 ../Car2X_communication_bsp/\libucosii_bsp.a(alt_write.o)
 .debug_frame   0x00006cfc       0x2c ../Car2X_communication_bsp/\libucosii_bsp.a(altera_nios2_qsys_irq.o)
 .debug_frame   0x00006d28      0x128 ../Car2X_communication_bsp/\libucosii_bsp.a(os_cpu_c.o)
 .debug_frame   0x00006e50       0xe0 ../Car2X_communication_bsp/\libucosii_bsp.a(allports.o)
 .debug_frame   0x00006f30       0x84 ../Car2X_communication_bsp/\libucosii_bsp.a(timeouts.o)
 .debug_frame   0x00006fb4       0x48 ../Car2X_communication_bsp/\libucosii_bsp.a(tk_misc.o)
 .debug_frame   0x00006ffc       0x2c ../Car2X_communication_bsp/\libucosii_bsp.a(alt_iniche_fcntl.o)
 .debug_frame   0x00007028      0x160 ../Car2X_communication_bsp/\libucosii_bsp.a(et_arp.o)
 .debug_frame   0x00007188       0x80 ../Car2X_communication_bsp/\libucosii_bsp.a(iface.o)
 .debug_frame   0x00007208      0x160 ../Car2X_communication_bsp/\libucosii_bsp.a(ip.o)
 .debug_frame   0x00007368      0x1d4 ../Car2X_communication_bsp/\libucosii_bsp.a(ip_reasm.o)
 .debug_frame   0x0000753c       0x68 ../Car2X_communication_bsp/\libucosii_bsp.a(ipdemux.o)
 .debug_frame   0x000075a4       0x64 ../Car2X_communication_bsp/\libucosii_bsp.a(ipmc.o)
 .debug_frame   0x00007608       0x64 ../Car2X_communication_bsp/\libucosii_bsp.a(ipport.o)
 .debug_frame   0x0000766c       0xb8 ../Car2X_communication_bsp/\libucosii_bsp.a(ipraw.o)
 .debug_frame   0x00007724       0x64 ../Car2X_communication_bsp/\libucosii_bsp.a(iproute.o)
 .debug_frame   0x00007788       0xd4 ../Car2X_communication_bsp/\libucosii_bsp.a(udp.o)
 .debug_frame   0x0000785c       0x2c ../Car2X_communication_bsp/\libucosii_bsp.a(igmp.o)
 .debug_frame   0x00007888       0x9c ../Car2X_communication_bsp/\libucosii_bsp.a(igmp2.o)
 .debug_frame   0x00007924       0x84 ../Car2X_communication_bsp/\libucosii_bsp.a(ipopt.o)
 .debug_frame   0x000079a8       0x4c ../Car2X_communication_bsp/\libucosii_bsp.a(u_mctest.o)
 .debug_frame   0x000079f4      0x10c ../Car2X_communication_bsp/\libucosii_bsp.a(memdev.o)
 .debug_frame   0x00007b00      0x10c ../Car2X_communication_bsp/\libucosii_bsp.a(parseip.o)
 .debug_frame   0x00007c0c       0x2c ../Car2X_communication_bsp/\libucosii_bsp.a(tcpcksum.o)
 .debug_frame   0x00007c38       0x48 ../Car2X_communication_bsp/\libucosii_bsp.a(udp_open.o)
 .debug_frame   0x00007c80       0xf0 ../Car2X_communication_bsp/\libucosii_bsp.a(in_pcb.o)
 .debug_frame   0x00007d70      0x320 ../Car2X_communication_bsp/\libucosii_bsp.a(vfsfiles.o)
 .debug_frame   0x00008090       0x2c ../Car2X_communication_bsp/\libucosii_bsp.a(vfsport.o)
 .debug_frame   0x000080bc       0x2c ../Car2X_communication_bsp/\libucosii_bsp.a(alt_dcache_flush.o)
 .debug_frame   0x000080e8       0x48 ../Car2X_communication_bsp/\libucosii_bsp.a(alt_fcntl.o)
 .debug_frame   0x00008130       0x2c ../Car2X_communication_bsp/\libucosii_bsp.a(alt_find_file.o)
 .debug_frame   0x0000815c       0x2c ../Car2X_communication_bsp/\libucosii_bsp.a(alt_get_fd.o)
 .debug_frame   0x00008188       0x2c ../Car2X_communication_bsp/\libucosii_bsp.a(alt_icache_flush.o)
 .debug_frame   0x000081b4       0x84 ../Car2X_communication_bsp/\libucosii_bsp.a(icmp.o)
 .debug_frame   0x00008238       0x20 c:/altera/12.1/nios2eds/bin/gnu/h-i686-mingw32/bin/../lib/gcc/nios2-elf/4.1.2/../../../../nios2-elf/lib\libc.a(lib_a-atexit.o)
 .debug_frame   0x00008258       0x30 c:/altera/12.1/nios2eds/bin/gnu/h-i686-mingw32/bin/../lib/gcc/nios2-elf/4.1.2/../../../../nios2-elf/lib\libc.a(lib_a-atoi.o)
 .debug_frame   0x00008288       0x20 c:/altera/12.1/nios2eds/bin/gnu/h-i686-mingw32/bin/../lib/gcc/nios2-elf/4.1.2/../../../../nios2-elf/lib\libc.a(lib_a-calloc.o)
 .debug_frame   0x000082a8       0x28 c:/altera/12.1/nios2eds/bin/gnu/h-i686-mingw32/bin/../lib/gcc/nios2-elf/4.1.2/../../../../nios2-elf/lib\libc.a(lib_a-exit.o)
 .debug_frame   0x000082d0       0x20 c:/altera/12.1/nios2eds/bin/gnu/h-i686-mingw32/bin/../lib/gcc/nios2-elf/4.1.2/../../../../nios2-elf/lib\libc.a(lib_a-memcmp.o)
 .debug_frame   0x000082f0       0x40 c:/altera/12.1/nios2eds/bin/gnu/h-i686-mingw32/bin/../lib/gcc/nios2-elf/4.1.2/../../../../nios2-elf/lib\libc.a(lib_a-sprintf.o)
 .debug_frame   0x00008330       0x20 c:/altera/12.1/nios2eds/bin/gnu/h-i686-mingw32/bin/../lib/gcc/nios2-elf/4.1.2/../../../../nios2-elf/lib\libc.a(lib_a-strchr.o)
 .debug_frame   0x00008350       0x20 c:/altera/12.1/nios2eds/bin/gnu/h-i686-mingw32/bin/../lib/gcc/nios2-elf/4.1.2/../../../../nios2-elf/lib\libc.a(lib_a-strcpy.o)
 .debug_frame   0x00008370       0x20 c:/altera/12.1/nios2eds/bin/gnu/h-i686-mingw32/bin/../lib/gcc/nios2-elf/4.1.2/../../../../nios2-elf/lib\libc.a(lib_a-strncmp.o)
 .debug_frame   0x00008390       0x4c c:/altera/12.1/nios2eds/bin/gnu/h-i686-mingw32/bin/../lib/gcc/nios2-elf/4.1.2/../../../../nios2-elf/lib\libc.a(lib_a-strtol.o)
 .debug_frame   0x000083dc       0x30 c:/altera/12.1/nios2eds/bin/gnu/h-i686-mingw32/bin/../lib/gcc/nios2-elf/4.1.2/../../../../nios2-elf/lib\libc.a(lib_a-vprintf.o)
 .debug_frame   0x0000840c       0x38 c:/altera/12.1/nios2eds/bin/gnu/h-i686-mingw32/bin/../lib/gcc/nios2-elf/4.1.2/../../../../nios2-elf/lib\libc.a(lib_a-vsprintf.o)
 .debug_frame   0x00008444       0x34 c:/altera/12.1/nios2eds/bin/gnu/h-i686-mingw32/bin/../lib/gcc/nios2-elf/4.1.2/../../../../nios2-elf/lib\libc.a(lib_a-__atexit.o)
 .debug_frame   0x00008478       0x4c c:/altera/12.1/nios2eds/bin/gnu/h-i686-mingw32/bin/../lib/gcc/nios2-elf/4.1.2/../../../../nios2-elf/lib\libc.a(lib_a-__call_atexit.o)

.debug_str      0x00000000     0x5b07
 *(.debug_str)
 .debug_str     0x00000000       0x4e obj/default/alt_error_handler.o
 .debug_str     0x0000004e       0x1d obj/default/main.o
 .debug_str     0x0000006b       0x2f obj/default/network_utilities.o
 .debug_str     0x0000009a       0x12 obj/default/tse_my_system.o
 .debug_str     0x000000ac       0x73 obj/default/COMM_CarProtocol/ADCInfoMessage.o
 .debug_str     0x0000011f       0x75 obj/default/COMM_CarProtocol/ADCValuesMessage.o
 .debug_str     0x00000194       0x6d obj/default/COMM_CarProtocol/AccelerationValuesMessage.o
 .debug_str     0x00000201       0x58 obj/default/COMM_CarProtocol/CarMessage.o
 .debug_str     0x00000259       0x67 obj/default/COMM_CarProtocol/CarProtocol.o
 .debug_str     0x000002c0       0x59 obj/default/COMM_CarProtocol/MotorMeasurementMessage.o
 .debug_str     0x00000319       0x56 obj/default/COMM_CarProtocol/MotorVelocityMessage.o
 .debug_str     0x0000036f       0x5b obj/default/COMM_CarProtocol/UltrasoundDistanceMessage.o
 .debug_str     0x000003ca       0x62 obj/default/COMM_CarProtocol/WelcomeMessage.o
 .debug_str     0x0000042c       0x50 obj/default/CarMessages/CControlMessage.o
 .debug_str     0x0000047c       0x57 obj/default/CarMessages/CEmergencyBrakeMessage.o
 .debug_str     0x000004d3       0x2d obj/default/external_drivers/accelerometer_interface.o
 .debug_str     0x00000500       0x7f obj/default/sensors/ADCSensor.o
 .debug_str     0x0000057f      0x108 obj/default/sensors/AccelerationSensor.o
 .debug_str     0x00000687       0x43 obj/default/sensors/SensorState.o
 .debug_str     0x000006ca       0xdd obj/default/sensors/UltrasoundSensor.o
 .debug_str     0x000007a7      0x14e obj/default/socketserver.o
 .debug_str     0x000008f5       0x72 obj/default/terasic_lib/I2C.o
 .debug_str     0x00000967       0x39 obj/default/terasic_lib/accelerometer_adxl345_spi.o
 .debug_str     0x000009a0       0x2d obj/default/terasic_lib/adc_spi_read.o
 .debug_str     0x000009cd       0x48 obj/default/terasic_lib/terasic_spi.o
 .debug_str     0x00000a15      0xa25 c:/altera/12.1/nios2eds/bin/gnu/h-i686-mingw32/bin/../lib/gcc/nios2-elf/4.1.2/../../../../nios2-elf/lib\libstdc++.a(eh_personality.o)
                                0xb66 (size before relaxing)
 .debug_str     0x0000143a       0x3f c:/altera/12.1/nios2eds/bin/gnu/h-i686-mingw32/bin/../lib/gcc/nios2-elf/4.1.2/../../../../nios2-elf/lib\libstdc++.a(eh_exception.o)
                                0x3b4 (size before relaxing)
 .debug_str     0x00001479       0x50 c:/altera/12.1/nios2eds/bin/gnu/h-i686-mingw32/bin/../lib/gcc/nios2-elf/4.1.2/../../../../nios2-elf/lib\libstdc++.a(del_op.o)
                                0x22d (size before relaxing)
 .debug_str     0x000014c9       0x4f c:/altera/12.1/nios2eds/bin/gnu/h-i686-mingw32/bin/../lib/gcc/nios2-elf/4.1.2/../../../../nios2-elf/lib\libstdc++.a(eh_call.o)
                                0x6a2 (size before relaxing)
 .debug_str     0x00001518      0x405 c:/altera/12.1/nios2eds/bin/gnu/h-i686-mingw32/bin/../lib/gcc/nios2-elf/4.1.2/../../../../nios2-elf/lib\libstdc++.a(class_type_info.o)
                                0x6d9 (size before relaxing)
 .debug_str     0x0000191d       0x65 c:/altera/12.1/nios2eds/bin/gnu/h-i686-mingw32/bin/../lib/gcc/nios2-elf/4.1.2/../../../../nios2-elf/lib\libstdc++.a(new_op.o)
                                0x2ae (size before relaxing)
 .debug_str     0x00001982      0x1f8 c:/altera/12.1/nios2eds/bin/gnu/h-i686-mingw32/bin/../lib/gcc/nios2-elf/4.1.2/../../../../nios2-elf/lib\libstdc++.a(si_class_type_info.o)
                                0x886 (size before relaxing)
 .debug_str     0x00001b7a       0xd2 c:/altera/12.1/nios2eds/bin/gnu/h-i686-mingw32/bin/../lib/gcc/nios2-elf/4.1.2/../../../../nios2-elf/lib\libstdc++.a(eh_alloc.o)
                                0x73c (size before relaxing)
 .debug_str     0x00001c4c       0x38 c:/altera/12.1/nios2eds/bin/gnu/h-i686-mingw32/bin/../lib/gcc/nios2-elf/4.1.2/../../../../nios2-elf/lib\libstdc++.a(tinfo.o)
                                0x695 (size before relaxing)
 .debug_str     0x00001c84      0x10e c:/altera/12.1/nios2eds/bin/gnu/h-i686-mingw32/bin/../lib/gcc/nios2-elf/4.1.2/../../../../nios2-elf/lib\libstdc++.a(eh_throw.o)
                                0x6da (size before relaxing)
 .debug_str     0x00001d92      0x111 c:/altera/12.1/nios2eds/bin/gnu/h-i686-mingw32/bin/../lib/gcc/nios2-elf/4.1.2/../../../../nios2-elf/lib\libstdc++.a(eh_terminate.o)
                                0x7ba (size before relaxing)
 .debug_str     0x00001ea3       0x66 c:/altera/12.1/nios2eds/bin/gnu/h-i686-mingw32/bin/../lib/gcc/nios2-elf/4.1.2/../../../../nios2-elf/lib\libstdc++.a(eh_globals.o)
                                0x98a (size before relaxing)
 .debug_str     0x00001f09       0x42 c:/altera/12.1/nios2eds/bin/gnu/h-i686-mingw32/bin/../lib/gcc/nios2-elf/4.1.2/../../../../nios2-elf/lib\libstdc++.a(eh_unex_handler.o)
                                0x5ad (size before relaxing)
 .debug_str     0x00001f4b       0x8d c:/altera/12.1/nios2eds/bin/gnu/h-i686-mingw32/bin/../lib/gcc/nios2-elf/4.1.2/../../../../nios2-elf/lib\libstdc++.a(new_handler.o)
                                0x1e6 (size before relaxing)
 .debug_str     0x00001fd8       0xd3 c:/altera/12.1/nios2eds/bin/gnu/h-i686-mingw32/bin/../lib/gcc/nios2-elf/4.1.2/../../../../nios2-elf/lib\libstdc++.a(eh_catch.o)
                                0x771 (size before relaxing)
 .debug_str     0x000020ab       0x42 c:/altera/12.1/nios2eds/bin/gnu/h-i686-mingw32/bin/../lib/gcc/nios2-elf/4.1.2/../../../../nios2-elf/lib\libstdc++.a(eh_term_handler.o)
                                0x5c7 (size before relaxing)
 .debug_str     0x000020ed      0x114 c:/altera/12.1/nios2eds/bin/gnu/h-i686-mingw32/bin/../lib/gcc/nios2-elf/4.1.2\libgcc.a(lib2-divmod.o)
                                0x1b1 (size before relaxing)
 .debug_str     0x00002201      0x396 c:/altera/12.1/nios2eds/bin/gnu/h-i686-mingw32/bin/../lib/gcc/nios2-elf/4.1.2\libgcc.a(unwind-sjlj.o)
                                0x603 (size before relaxing)
 .debug_str     0x00002597       0xc9 c:/altera/12.1/nios2eds/bin/gnu/h-i686-mingw32/bin/../lib/gcc/nios2-elf/4.1.2/../../../../nios2-elf/lib\libc.a(lib_a-abort.o)
                                0x15e (size before relaxing)
 .debug_str     0x00002660       0xdf c:/altera/12.1/nios2eds/bin/gnu/h-i686-mingw32/bin/../lib/gcc/nios2-elf/4.1.2/../../../../nios2-elf/lib\libc.a(lib_a-ctype_.o)
                                0x102 (size before relaxing)
 .debug_str     0x0000273f      0x43e c:/altera/12.1/nios2eds/bin/gnu/h-i686-mingw32/bin/../lib/gcc/nios2-elf/4.1.2/../../../../nios2-elf/lib\libc.a(lib_a-fprintf.o)
                                0x51c (size before relaxing)
 .debug_str     0x00002b7d       0x87 c:/altera/12.1/nios2eds/bin/gnu/h-i686-mingw32/bin/../lib/gcc/nios2-elf/4.1.2/../../../../nios2-elf/lib\libc.a(lib_a-fwrite.o)
                                0x55c (size before relaxing)
 .debug_str     0x00002c04       0x45 c:/altera/12.1/nios2eds/bin/gnu/h-i686-mingw32/bin/../lib/gcc/nios2-elf/4.1.2/../../../../nios2-elf/lib\libc.a(lib_a-getc.o)
                                0x50f (size before relaxing)
 .debug_str     0x00002c49       0xe1 c:/altera/12.1/nios2eds/bin/gnu/h-i686-mingw32/bin/../lib/gcc/nios2-elf/4.1.2/../../../../nios2-elf/lib\libc.a(lib_a-impure.o)
                                0x517 (size before relaxing)
 .debug_str     0x00002d2a       0x47 c:/altera/12.1/nios2eds/bin/gnu/h-i686-mingw32/bin/../lib/gcc/nios2-elf/4.1.2/../../../../nios2-elf/lib\libc.a(lib_a-malloc.o)
                                0x519 (size before relaxing)
 .debug_str     0x00002d71      0x208 c:/altera/12.1/nios2eds/bin/gnu/h-i686-mingw32/bin/../lib/gcc/nios2-elf/4.1.2/../../../../nios2-elf/lib\libc.a(lib_a-mallocr.o)
                                0x6ee (size before relaxing)
 .debug_str     0x00002f79       0xfe c:/altera/12.1/nios2eds/bin/gnu/h-i686-mingw32/bin/../lib/gcc/nios2-elf/4.1.2/../../../../nios2-elf/lib\libc.a(lib_a-memmove.o)
                                0x19a (size before relaxing)
 .debug_str     0x00003077       0x4f c:/altera/12.1/nios2eds/bin/gnu/h-i686-mingw32/bin/../lib/gcc/nios2-elf/4.1.2/../../../../nios2-elf/lib\libc.a(lib_a-memset.o)
                                0x17b (size before relaxing)
 .debug_str     0x000030c6       0x4b c:/altera/12.1/nios2eds/bin/gnu/h-i686-mingw32/bin/../lib/gcc/nios2-elf/4.1.2/../../../../nios2-elf/lib\libc.a(lib_a-perror.o)
                                0x50f (size before relaxing)
 .debug_str     0x00003111       0x44 c:/altera/12.1/nios2eds/bin/gnu/h-i686-mingw32/bin/../lib/gcc/nios2-elf/4.1.2/../../../../nios2-elf/lib\libc.a(lib_a-printf.o)
                                0x520 (size before relaxing)
 .debug_str     0x00003155       0x40 c:/altera/12.1/nios2eds/bin/gnu/h-i686-mingw32/bin/../lib/gcc/nios2-elf/4.1.2/../../../../nios2-elf/lib\libc.a(lib_a-putc.o)
                                0x50f (size before relaxing)
 .debug_str     0x00003195       0x4e c:/altera/12.1/nios2eds/bin/gnu/h-i686-mingw32/bin/../lib/gcc/nios2-elf/4.1.2/../../../../nios2-elf/lib\libc.a(lib_a-putchar.o)
                                0x50c (size before relaxing)
 .debug_str     0x000031e3       0x40 c:/altera/12.1/nios2eds/bin/gnu/h-i686-mingw32/bin/../lib/gcc/nios2-elf/4.1.2/../../../../nios2-elf/lib\libc.a(lib_a-puts.o)
                                0x546 (size before relaxing)
 .debug_str     0x00003223       0x4a c:/altera/12.1/nios2eds/bin/gnu/h-i686-mingw32/bin/../lib/gcc/nios2-elf/4.1.2/../../../../nios2-elf/lib\libc.a(lib_a-rget.o)
                                0x50d (size before relaxing)
 .debug_str     0x0000326d       0x46 c:/altera/12.1/nios2eds/bin/gnu/h-i686-mingw32/bin/../lib/gcc/nios2-elf/4.1.2/../../../../nios2-elf/lib\libc.a(lib_a-sbrkr.o)
                                0x508 (size before relaxing)
 .debug_str     0x000032b3      0x11e c:/altera/12.1/nios2eds/bin/gnu/h-i686-mingw32/bin/../lib/gcc/nios2-elf/4.1.2/../../../../nios2-elf/lib\libc.a(lib_a-signal.o)
                                0x56a (size before relaxing)
 .debug_str     0x000033d1       0x4d c:/altera/12.1/nios2eds/bin/gnu/h-i686-mingw32/bin/../lib/gcc/nios2-elf/4.1.2/../../../../nios2-elf/lib\libc.a(lib_a-signalr.o)
                                0x505 (size before relaxing)
 .debug_str     0x0000341e       0x44 c:/altera/12.1/nios2eds/bin/gnu/h-i686-mingw32/bin/../lib/gcc/nios2-elf/4.1.2/../../../../nios2-elf/lib\libc.a(lib_a-strerror.o)
                                0x171 (size before relaxing)
 .debug_str     0x00003462       0x42 c:/altera/12.1/nios2eds/bin/gnu/h-i686-mingw32/bin/../lib/gcc/nios2-elf/4.1.2/../../../../nios2-elf/lib\libc.a(lib_a-strlen.o)
                                0x17a (size before relaxing)
 .debug_str     0x000034a4       0x4c c:/altera/12.1/nios2eds/bin/gnu/h-i686-mingw32/bin/../lib/gcc/nios2-elf/4.1.2/../../../../nios2-elf/lib\libc.a(lib_a-u_strerr.o)
                                 0xed (size before relaxing)
 .debug_str     0x000034f0      0x178 c:/altera/12.1/nios2eds/bin/gnu/h-i686-mingw32/bin/../lib/gcc/nios2-elf/4.1.2/../../../../nios2-elf/lib\libc.a(lib_a-vfprintf.o)
                                0x6f5 (size before relaxing)
 .debug_str     0x00003668       0x4a c:/altera/12.1/nios2eds/bin/gnu/h-i686-mingw32/bin/../lib/gcc/nios2-elf/4.1.2/../../../../nios2-elf/lib\libc.a(lib_a-wbuf.o)
                                0x50d (size before relaxing)
 .debug_str     0x000036b2       0x46 c:/altera/12.1/nios2eds/bin/gnu/h-i686-mingw32/bin/../lib/gcc/nios2-elf/4.1.2/../../../../nios2-elf/lib\libc.a(lib_a-wsetup.o)
                                0x509 (size before relaxing)
 .debug_str     0x000036f8      0x102 c:/altera/12.1/nios2eds/bin/gnu/h-i686-mingw32/bin/../lib/gcc/nios2-elf/4.1.2/../../../../nios2-elf/lib\libc.a(lib_a-dtoa.o)
                                0x5fe (size before relaxing)
 .debug_str     0x000037fa       0x52 c:/altera/12.1/nios2eds/bin/gnu/h-i686-mingw32/bin/../lib/gcc/nios2-elf/4.1.2/../../../../nios2-elf/lib\libc.a(lib_a-fflush.o)
                                0x52f (size before relaxing)
 .debug_str     0x0000384c      0x102 c:/altera/12.1/nios2eds/bin/gnu/h-i686-mingw32/bin/../lib/gcc/nios2-elf/4.1.2/../../../../nios2-elf/lib\libc.a(lib_a-findfp.o)
                                0x5f1 (size before relaxing)
 .debug_str     0x0000394e       0x48 c:/altera/12.1/nios2eds/bin/gnu/h-i686-mingw32/bin/../lib/gcc/nios2-elf/4.1.2/../../../../nios2-elf/lib\libc.a(lib_a-fputc.o)
                                0x517 (size before relaxing)
 .debug_str     0x00003996       0x48 c:/altera/12.1/nios2eds/bin/gnu/h-i686-mingw32/bin/../lib/gcc/nios2-elf/4.1.2/../../../../nios2-elf/lib\libc.a(lib_a-fputs.o)
                                0x555 (size before relaxing)
 .debug_str     0x000039de       0x3c c:/altera/12.1/nios2eds/bin/gnu/h-i686-mingw32/bin/../lib/gcc/nios2-elf/4.1.2/../../../../nios2-elf/lib\libc.a(lib_a-freer.o)
                                0x640 (size before relaxing)
 .debug_str     0x00003a1a       0x66 c:/altera/12.1/nios2eds/bin/gnu/h-i686-mingw32/bin/../lib/gcc/nios2-elf/4.1.2/../../../../nios2-elf/lib\libc.a(lib_a-fvwrite.o)
                                0x560 (size before relaxing)
 .debug_str     0x00003a80       0x5e c:/altera/12.1/nios2eds/bin/gnu/h-i686-mingw32/bin/../lib/gcc/nios2-elf/4.1.2/../../../../nios2-elf/lib\libc.a(lib_a-fwalk.o)
                                0x532 (size before relaxing)
 .debug_str     0x00003ade       0x3d c:/altera/12.1/nios2eds/bin/gnu/h-i686-mingw32/bin/../lib/gcc/nios2-elf/4.1.2/../../../../nios2-elf/lib\libc.a(lib_a-int_errno.o)
                                0x160 (size before relaxing)
 .debug_str     0x00003b1b      0x222 c:/altera/12.1/nios2eds/bin/gnu/h-i686-mingw32/bin/../lib/gcc/nios2-elf/4.1.2/../../../../nios2-elf/lib\libc.a(lib_a-locale.o)
                                0x6a6 (size before relaxing)
 .debug_str     0x00003d3d      0x123 c:/altera/12.1/nios2eds/bin/gnu/h-i686-mingw32/bin/../lib/gcc/nios2-elf/4.1.2/../../../../nios2-elf/lib\libc.a(lib_a-makebuf.o)
                                0x603 (size before relaxing)
 .debug_str     0x00003e60       0x40 c:/altera/12.1/nios2eds/bin/gnu/h-i686-mingw32/bin/../lib/gcc/nios2-elf/4.1.2/../../../../nios2-elf/lib\libc.a(lib_a-memchr.o)
                                0x188 (size before relaxing)
 .debug_str     0x00003ea0       0x4a c:/altera/12.1/nios2eds/bin/gnu/h-i686-mingw32/bin/../lib/gcc/nios2-elf/4.1.2/../../../../nios2-elf/lib\libc.a(lib_a-memcpy.o)
                                0x125 (size before relaxing)
 .debug_str     0x00003eea       0xf8 c:/altera/12.1/nios2eds/bin/gnu/h-i686-mingw32/bin/../lib/gcc/nios2-elf/4.1.2/../../../../nios2-elf/lib\libc.a(lib_a-mprec.o)
                                0x60b (size before relaxing)
 .debug_str     0x00003fe2       0x54 c:/altera/12.1/nios2eds/bin/gnu/h-i686-mingw32/bin/../lib/gcc/nios2-elf/4.1.2/../../../../nios2-elf/lib\libc.a(lib_a-reallocr.o)
                                0x5c0 (size before relaxing)
 .debug_str     0x00004036       0x4d c:/altera/12.1/nios2eds/bin/gnu/h-i686-mingw32/bin/../lib/gcc/nios2-elf/4.1.2/../../../../nios2-elf/lib\libc.a(lib_a-refill.o)
                                0x517 (size before relaxing)
 .debug_str     0x00004083       0xd9 c:/altera/12.1/nios2eds/bin/gnu/h-i686-mingw32/bin/../lib/gcc/nios2-elf/4.1.2/../../../../nios2-elf/lib\libc.a(lib_a-s_isinfd.o)
                                0x187 (size before relaxing)
 .debug_str     0x0000415c       0x46 c:/altera/12.1/nios2eds/bin/gnu/h-i686-mingw32/bin/../lib/gcc/nios2-elf/4.1.2/../../../../nios2-elf/lib\libc.a(lib_a-s_isnand.o)
                                0x187 (size before relaxing)
 .debug_str     0x000041a2       0x62 c:/altera/12.1/nios2eds/bin/gnu/h-i686-mingw32/bin/../lib/gcc/nios2-elf/4.1.2/../../../../nios2-elf/lib\libc.a(lib_a-stdio.o)
                                0x52e (size before relaxing)
 .debug_str     0x00004204       0x42 c:/altera/12.1/nios2eds/bin/gnu/h-i686-mingw32/bin/../lib/gcc/nios2-elf/4.1.2/../../../../nios2-elf/lib\libc.a(lib_a-strcmp.o)
                                0x160 (size before relaxing)
 .debug_str     0x00004246       0x4c c:/altera/12.1/nios2eds/bin/gnu/h-i686-mingw32/bin/../lib/gcc/nios2-elf/4.1.2/../../../../nios2-elf/lib\libc.a(lib_a-writer.o)
                                0x50b (size before relaxing)
 .debug_str     0x00004292       0x19 c:/altera/12.1/nios2eds/bin/gnu/h-i686-mingw32/bin/../lib/gcc/nios2-elf/4.1.2/../../../../nios2-elf/lib\libc.a(lib_a-callocr.o)
                                0x53f (size before relaxing)
 .debug_str     0x000042ab       0x43 c:/altera/12.1/nios2eds/bin/gnu/h-i686-mingw32/bin/../lib/gcc/nios2-elf/4.1.2/../../../../nios2-elf/lib\libc.a(lib_a-closer.o)
                                0x4fb (size before relaxing)
 .debug_str     0x000042ee       0x4b c:/altera/12.1/nios2eds/bin/gnu/h-i686-mingw32/bin/../lib/gcc/nios2-elf/4.1.2/../../../../nios2-elf/lib\libc.a(lib_a-fclose.o)
                                0x513 (size before relaxing)
 .debug_str     0x00004339       0x49 c:/altera/12.1/nios2eds/bin/gnu/h-i686-mingw32/bin/../lib/gcc/nios2-elf/4.1.2/../../../../nios2-elf/lib\libc.a(lib_a-fstatr.o)
                                0x5ee (size before relaxing)
 .debug_str     0x00004382       0x45 c:/altera/12.1/nios2eds/bin/gnu/h-i686-mingw32/bin/../lib/gcc/nios2-elf/4.1.2/../../../../nios2-elf/lib\libc.a(lib_a-isattyr.o)
                                0x4fd (size before relaxing)
 .debug_str     0x000043c7       0x43 c:/altera/12.1/nios2eds/bin/gnu/h-i686-mingw32/bin/../lib/gcc/nios2-elf/4.1.2/../../../../nios2-elf/lib\libc.a(lib_a-lseekr.o)
                                0x509 (size before relaxing)
 .debug_str     0x0000440a       0x41 c:/altera/12.1/nios2eds/bin/gnu/h-i686-mingw32/bin/../lib/gcc/nios2-elf/4.1.2/../../../../nios2-elf/lib\libc.a(lib_a-readr.o)
                                0x509 (size before relaxing)
 .debug_str     0x0000444b       0xb2 c:/altera/12.1/nios2eds/bin/gnu/h-i686-mingw32/bin/../lib/gcc/nios2-elf/4.1.2\libgcc.a(_udivdi3.o)
                                0x1f4 (size before relaxing)
 .debug_str     0x000044fd        0xa c:/altera/12.1/nios2eds/bin/gnu/h-i686-mingw32/bin/../lib/gcc/nios2-elf/4.1.2\libgcc.a(_umoddi3.o)
                                0x1f4 (size before relaxing)
 .debug_str     0x00004507      0x131 c:/altera/12.1/nios2eds/bin/gnu/h-i686-mingw32/bin/../lib/gcc/nios2-elf/4.1.2\libgcc.a(_addsub_df.o)
                                0x26c (size before relaxing)
 .debug_str     0x00004638       0x40 c:/altera/12.1/nios2eds/bin/gnu/h-i686-mingw32/bin/../lib/gcc/nios2-elf/4.1.2\libgcc.a(_mul_df.o)
                                0x23e (size before relaxing)
 .debug_str     0x00004678       0x35 c:/altera/12.1/nios2eds/bin/gnu/h-i686-mingw32/bin/../lib/gcc/nios2-elf/4.1.2\libgcc.a(_div_df.o)
                                0x22e (size before relaxing)
 .debug_str     0x000046ad        0x8 c:/altera/12.1/nios2eds/bin/gnu/h-i686-mingw32/bin/../lib/gcc/nios2-elf/4.1.2\libgcc.a(_eq_df.o)
                                0x1fb (size before relaxing)
 .debug_str     0x000046b5        0x8 c:/altera/12.1/nios2eds/bin/gnu/h-i686-mingw32/bin/../lib/gcc/nios2-elf/4.1.2\libgcc.a(_ne_df.o)
                                0x1fb (size before relaxing)
 .debug_str     0x000046bd        0x8 c:/altera/12.1/nios2eds/bin/gnu/h-i686-mingw32/bin/../lib/gcc/nios2-elf/4.1.2\libgcc.a(_gt_df.o)
                                0x1fb (size before relaxing)
 .debug_str     0x000046c5        0x8 c:/altera/12.1/nios2eds/bin/gnu/h-i686-mingw32/bin/../lib/gcc/nios2-elf/4.1.2\libgcc.a(_ge_df.o)
                                0x1fb (size before relaxing)
 .debug_str     0x000046cd        0x8 c:/altera/12.1/nios2eds/bin/gnu/h-i686-mingw32/bin/../lib/gcc/nios2-elf/4.1.2\libgcc.a(_lt_df.o)
                                0x1fb (size before relaxing)
 .debug_str     0x000046d5       0x18 c:/altera/12.1/nios2eds/bin/gnu/h-i686-mingw32/bin/../lib/gcc/nios2-elf/4.1.2\libgcc.a(_si_to_df.o)
                                0x1db (size before relaxing)
 .debug_str     0x000046ed        0xa c:/altera/12.1/nios2eds/bin/gnu/h-i686-mingw32/bin/../lib/gcc/nios2-elf/4.1.2\libgcc.a(_df_to_si.o)
                                0x204 (size before relaxing)
 .debug_str     0x00000000      0x1a0 c:/altera/12.1/nios2eds/bin/gnu/h-i686-mingw32/bin/../lib/gcc/nios2-elf/4.1.2\libgcc.a(_thenan_df.o)
 .debug_str     0x000046f7       0x14 c:/altera/12.1/nios2eds/bin/gnu/h-i686-mingw32/bin/../lib/gcc/nios2-elf/4.1.2\libgcc.a(_usi_to_df.o)
                                0x1d7 (size before relaxing)
 .debug_str     0x0000470b        0x9 c:/altera/12.1/nios2eds/bin/gnu/h-i686-mingw32/bin/../lib/gcc/nios2-elf/4.1.2\libgcc.a(_muldi3.o)
                                0x1a9 (size before relaxing)
 .debug_str     0x00000000      0x15e c:/altera/12.1/nios2eds/bin/gnu/h-i686-mingw32/bin/../lib/gcc/nios2-elf/4.1.2\libgcc.a(_clz.o)
 .debug_str     0x00004714        0x9 c:/altera/12.1/nios2eds/bin/gnu/h-i686-mingw32/bin/../lib/gcc/nios2-elf/4.1.2\libgcc.a(_clzsi2.o)
                                0x17b (size before relaxing)
 .debug_str     0x0000471d       0x10 c:/altera/12.1/nios2eds/bin/gnu/h-i686-mingw32/bin/../lib/gcc/nios2-elf/4.1.2\libgcc.a(_pack_df.o)
                                0x203 (size before relaxing)
 .debug_str     0x0000472d        0xb c:/altera/12.1/nios2eds/bin/gnu/h-i686-mingw32/bin/../lib/gcc/nios2-elf/4.1.2\libgcc.a(_unpack_df.o)
                                0x1e5 (size before relaxing)
 .debug_str     0x00004738       0x10 c:/altera/12.1/nios2eds/bin/gnu/h-i686-mingw32/bin/../lib/gcc/nios2-elf/4.1.2\libgcc.a(_fpcmp_parts_df.o)
                                0x1c3 (size before relaxing)
 .debug_str     0x00004748       0x1c ../Car2X_communication_bsp/\libucosii_bsp.a(alt_exit.o)
 .debug_str     0x00004764       0x12 ../Car2X_communication_bsp/\libucosii_bsp.a(alt_fstat.o)
 .debug_str     0x00004776       0x12 ../Car2X_communication_bsp/\libucosii_bsp.a(alt_isatty.o)
 .debug_str     0x00004788       0x12 ../Car2X_communication_bsp/\libucosii_bsp.a(alt_kill.o)
 .debug_str     0x0000479a       0x12 ../Car2X_communication_bsp/\libucosii_bsp.a(alt_load.o)
 .debug_str     0x000047ac       0x12 ../Car2X_communication_bsp/\libucosii_bsp.a(alt_lseek.o)
 .debug_str     0x000047be       0x12 ../Car2X_communication_bsp/\libucosii_bsp.a(alt_main.o)
 .debug_str     0x000047d0       0x1a ../Car2X_communication_bsp/\libucosii_bsp.a(alt_sbrk.o)
 .debug_str     0x000047ea       0x1a ../Car2X_communication_bsp/\libucosii_bsp.a(alt_tick.o)
 .debug_str     0x00004804       0x12 ../Car2X_communication_bsp/\libucosii_bsp.a(alt_usleep.o)
 .debug_str     0x00004816       0x36 ../Car2X_communication_bsp/\libucosii_bsp.a(alt_env_lock.o)
 .debug_str     0x0000484c       0x36 ../Car2X_communication_bsp/\libucosii_bsp.a(alt_malloc_lock.o)
 .debug_str     0x00004882       0x46 ../Car2X_communication_bsp/\libucosii_bsp.a(os_core.o)
 .debug_str     0x000048c8       0x2b ../Car2X_communication_bsp/\libucosii_bsp.a(os_dbg.o)
 .debug_str     0x000048f3       0x4e ../Car2X_communication_bsp/\libucosii_bsp.a(os_flag.o)
 .debug_str     0x00004941       0x2c ../Car2X_communication_bsp/\libucosii_bsp.a(os_mem.o)
 .debug_str     0x0000496d       0x36 ../Car2X_communication_bsp/\libucosii_bsp.a(os_q.o)
 .debug_str     0x000049a3       0x36 ../Car2X_communication_bsp/\libucosii_bsp.a(os_sem.o)
 .debug_str     0x000049d9       0x23 ../Car2X_communication_bsp/\libucosii_bsp.a(os_task.o)
 .debug_str     0x000049fc       0x1f ../Car2X_communication_bsp/\libucosii_bsp.a(os_time.o)
 .debug_str     0x00004a1b       0x3d ../Car2X_communication_bsp/\libucosii_bsp.a(alt_sys_init.o)
 .debug_str     0x00004a58       0x12 ../Car2X_communication_bsp/\libucosii_bsp.a(altera_avalon_jtag_uart_fd.o)
 .debug_str     0x00004a6a       0x1a ../Car2X_communication_bsp/\libucosii_bsp.a(altera_avalon_jtag_uart_init.o)
 .debug_str     0x00004a84       0x12 ../Car2X_communication_bsp/\libucosii_bsp.a(altera_avalon_jtag_uart_ioctl.o)
 .debug_str     0x00004a96       0x22 ../Car2X_communication_bsp/\libucosii_bsp.a(altera_avalon_jtag_uart_read.o)
 .debug_str     0x00004ab8       0x22 ../Car2X_communication_bsp/\libucosii_bsp.a(altera_avalon_jtag_uart_write.o)
 .debug_str     0x00004ada       0x2f ../Car2X_communication_bsp/\libucosii_bsp.a(altera_avalon_mutex.o)
 .debug_str     0x00004b09       0xe7 ../Car2X_communication_bsp/\libucosii_bsp.a(altera_avalon_sgdma.o)
 .debug_str     0x00004bf0       0x12 ../Car2X_communication_bsp/\libucosii_bsp.a(altera_avalon_timer_sc.o)
 .debug_str     0x00004c02      0x328 ../Car2X_communication_bsp/\libucosii_bsp.a(altera_avalon_tse.o)
 .debug_str     0x00004f2a       0xac ../Car2X_communication_bsp/\libucosii_bsp.a(ins_tse_mac.o)
 .debug_str     0x00004fd6       0x12 ../Car2X_communication_bsp/\libucosii_bsp.a(alt_iniche_close.o)
 .debug_str     0x00004fe8       0x12 ../Car2X_communication_bsp/\libucosii_bsp.a(alt_iniche_dev.o)
 .debug_str     0x00004ffa       0x12 ../Car2X_communication_bsp/\libucosii_bsp.a(alt_iniche_read.o)
 .debug_str     0x0000500c       0x12 ../Car2X_communication_bsp/\libucosii_bsp.a(alt_iniche_write.o)
 .debug_str     0x0000501e       0x12 ../Car2X_communication_bsp/\libucosii_bsp.a(ipnet.o)
 .debug_str     0x00005030       0x12 ../Car2X_communication_bsp/\libucosii_bsp.a(ipstart.o)
 .debug_str     0x00005042       0x12 ../Car2X_communication_bsp/\libucosii_bsp.a(igmp_cmn.o)
 .debug_str     0x00005054       0x20 ../Car2X_communication_bsp/\libucosii_bsp.a(bsdsock.o)
 .debug_str     0x00005074       0x12 ../Car2X_communication_bsp/\libucosii_bsp.a(cksum.o)
 .debug_str     0x00005086       0x12 ../Car2X_communication_bsp/\libucosii_bsp.a(in_utils.o)
 .debug_str     0x00005098       0x12 ../Car2X_communication_bsp/\libucosii_bsp.a(netmain.o)
 .debug_str     0x000050aa       0x12 ../Car2X_communication_bsp/\libucosii_bsp.a(tk_crnos.o)
 .debug_str     0x000050bc       0x12 ../Car2X_communication_bsp/\libucosii_bsp.a(pktalloc.o)
 .debug_str     0x000050ce       0x12 ../Car2X_communication_bsp/\libucosii_bsp.a(q.o)
 .debug_str     0x000050e0       0x20 ../Car2X_communication_bsp/\libucosii_bsp.a(brdutils.o)
 .debug_str     0x00005100       0x22 ../Car2X_communication_bsp/\libucosii_bsp.a(osportco.o)
 .debug_str     0x00005122       0x12 ../Car2X_communication_bsp/\libucosii_bsp.a(targnios.o)
 .debug_str     0x00005134       0x1e ../Car2X_communication_bsp/\libucosii_bsp.a(nptcp.o)
 .debug_str     0x00005152       0x12 ../Car2X_communication_bsp/\libucosii_bsp.a(rawsock.o)
 .debug_str     0x00005164       0x34 ../Car2X_communication_bsp/\libucosii_bsp.a(sockcall.o)
 .debug_str     0x00005198       0x18 ../Car2X_communication_bsp/\libucosii_bsp.a(socket.o)
 .debug_str     0x000051b0       0x12 ../Car2X_communication_bsp/\libucosii_bsp.a(socket2.o)
 .debug_str     0x000051c2       0x12 ../Car2X_communication_bsp/\libucosii_bsp.a(soselect.o)
 .debug_str     0x000051d4       0x12 ../Car2X_communication_bsp/\libucosii_bsp.a(tcp_in.o)
 .debug_str     0x000051e6       0x12 ../Car2X_communication_bsp/\libucosii_bsp.a(tcp_out.o)
 .debug_str     0x000051f8       0x12 ../Car2X_communication_bsp/\libucosii_bsp.a(tcp_subr.o)
 .debug_str     0x0000520a       0x12 ../Car2X_communication_bsp/\libucosii_bsp.a(tcp_timr.o)
 .debug_str     0x0000521c       0x12 ../Car2X_communication_bsp/\libucosii_bsp.a(tcp_usr.o)
 .debug_str     0x0000522e       0x12 ../Car2X_communication_bsp/\libucosii_bsp.a(tcpport.o)
 .debug_str     0x00005240       0x1a ../Car2X_communication_bsp/\libucosii_bsp.a(udpsock.o)
 .debug_str     0x0000525a       0x23 ../Car2X_communication_bsp/\libucosii_bsp.a(alt_alarm_start.o)
 .debug_str     0x0000527d       0x12 ../Car2X_communication_bsp/\libucosii_bsp.a(alt_busy_sleep.o)
 .debug_str     0x0000528f       0x12 ../Car2X_communication_bsp/\libucosii_bsp.a(alt_close.o)
 .debug_str     0x000052a1       0x12 ../Car2X_communication_bsp/\libucosii_bsp.a(alt_dcache_flush_all.o)
 .debug_str     0x000052b3       0x12 ../Car2X_communication_bsp/\libucosii_bsp.a(alt_dev.o)
 .debug_str     0x000052c5       0x12 ../Car2X_communication_bsp/\libucosii_bsp.a(alt_dev_llist_insert.o)
 .debug_str     0x000052d7       0x12 ../Car2X_communication_bsp/\libucosii_bsp.a(alt_errno.o)
 .debug_str     0x000052e9       0x12 ../Car2X_communication_bsp/\libucosii_bsp.a(alt_find_dev.o)
 .debug_str     0x000052fb       0x12 ../Car2X_communication_bsp/\libucosii_bsp.a(alt_icache_flush_all.o)
 .debug_str     0x0000530d       0x18 ../Car2X_communication_bsp/\libucosii_bsp.a(alt_iic.o)
 .debug_str     0x00005325       0x1a ../Car2X_communication_bsp/\libucosii_bsp.a(alt_iic_isr_register.o)
 .debug_str     0x0000533f       0x12 ../Car2X_communication_bsp/\libucosii_bsp.a(alt_io_redirect.o)
 .debug_str     0x00005351       0x12 ../Car2X_communication_bsp/\libucosii_bsp.a(alt_irq_handler.o)
 .debug_str     0x00005363       0x12 ../Car2X_communication_bsp/\libucosii_bsp.a(alt_open.o)
 .debug_str     0x00005375       0x12 ../Car2X_communication_bsp/\libucosii_bsp.a(alt_read.o)
 .debug_str     0x00005387       0x12 ../Car2X_communication_bsp/\libucosii_bsp.a(alt_release_fd.o)
 .debug_str     0x00005399       0x12 ../Car2X_communication_bsp/\libucosii_bsp.a(alt_remap_cached.o)
 .debug_str     0x000053ab       0x12 ../Car2X_communication_bsp/\libucosii_bsp.a(alt_remap_uncached.o)
 .debug_str     0x000053bd       0x12 ../Car2X_communication_bsp/\libucosii_bsp.a(alt_uncached_malloc.o)
 .debug_str     0x000053cf       0x12 ../Car2X_communication_bsp/\libucosii_bsp.a(alt_write.o)
 .debug_str     0x000053e1       0x12 ../Car2X_communication_bsp/\libucosii_bsp.a(altera_nios2_qsys_irq.o)
 .debug_str     0x000053f3       0x20 ../Car2X_communication_bsp/\libucosii_bsp.a(os_cpu_c.o)
 .debug_str     0x00005413       0x12 ../Car2X_communication_bsp/\libucosii_bsp.a(allports.o)
 .debug_str     0x00005425       0x1b ../Car2X_communication_bsp/\libucosii_bsp.a(timeouts.o)
 .debug_str     0x00005440       0x12 ../Car2X_communication_bsp/\libucosii_bsp.a(tk_misc.o)
 .debug_str     0x00005452       0x12 ../Car2X_communication_bsp/\libucosii_bsp.a(alt_iniche_fcntl.o)
 .debug_str     0x00005464       0x3d ../Car2X_communication_bsp/\libucosii_bsp.a(et_arp.o)
 .debug_str     0x000054a1       0x12 ../Car2X_communication_bsp/\libucosii_bsp.a(iface.o)
 .debug_str     0x000054b3       0x2c ../Car2X_communication_bsp/\libucosii_bsp.a(ip.o)
 .debug_str     0x000054df       0x4e ../Car2X_communication_bsp/\libucosii_bsp.a(ip_reasm.o)
 .debug_str     0x0000552d       0x12 ../Car2X_communication_bsp/\libucosii_bsp.a(ipdemux.o)
 .debug_str     0x0000553f       0x12 ../Car2X_communication_bsp/\libucosii_bsp.a(ipmc.o)
 .debug_str     0x00005551       0x12 ../Car2X_communication_bsp/\libucosii_bsp.a(ipport.o)
 .debug_str     0x00005563       0x12 ../Car2X_communication_bsp/\libucosii_bsp.a(ipraw.o)
 .debug_str     0x00005575       0x12 ../Car2X_communication_bsp/\libucosii_bsp.a(iproute.o)
 .debug_str     0x00005587       0x12 ../Car2X_communication_bsp/\libucosii_bsp.a(udp.o)
 .debug_str     0x00005599       0x12 ../Car2X_communication_bsp/\libucosii_bsp.a(igmp.o)
 .debug_str     0x000055ab       0x20 ../Car2X_communication_bsp/\libucosii_bsp.a(igmp2.o)
 .debug_str     0x000055cb       0x12 ../Car2X_communication_bsp/\libucosii_bsp.a(ipopt.o)
 .debug_str     0x000055dd       0x12 ../Car2X_communication_bsp/\libucosii_bsp.a(u_mctest.o)
 .debug_str     0x000055ef       0x1b ../Car2X_communication_bsp/\libucosii_bsp.a(memdev.o)
 .debug_str     0x0000560a       0x12 ../Car2X_communication_bsp/\libucosii_bsp.a(parseip.o)
 .debug_str     0x0000561c       0x12 ../Car2X_communication_bsp/\libucosii_bsp.a(tcpcksum.o)
 .debug_str     0x0000562e       0x12 ../Car2X_communication_bsp/\libucosii_bsp.a(udp_open.o)
 .debug_str     0x00005640       0x12 ../Car2X_communication_bsp/\libucosii_bsp.a(in_pcb.o)
 .debug_str     0x00005652       0x2b ../Car2X_communication_bsp/\libucosii_bsp.a(vfsfiles.o)
 .debug_str     0x0000567d       0x12 ../Car2X_communication_bsp/\libucosii_bsp.a(vfsport.o)
 .debug_str     0x0000568f       0x12 ../Car2X_communication_bsp/\libucosii_bsp.a(alt_dcache_flush.o)
 .debug_str     0x000056a1       0x12 ../Car2X_communication_bsp/\libucosii_bsp.a(alt_fcntl.o)
 .debug_str     0x000056b3       0x12 ../Car2X_communication_bsp/\libucosii_bsp.a(alt_find_file.o)
 .debug_str     0x000056c5       0x12 ../Car2X_communication_bsp/\libucosii_bsp.a(alt_get_fd.o)
 .debug_str     0x000056d7       0x12 ../Car2X_communication_bsp/\libucosii_bsp.a(alt_icache_flush.o)
 .debug_str     0x000056e9       0x12 ../Car2X_communication_bsp/\libucosii_bsp.a(icmp.o)
 .debug_str     0x000056fb       0x3b c:/altera/12.1/nios2eds/bin/gnu/h-i686-mingw32/bin/../lib/gcc/nios2-elf/4.1.2/../../../../nios2-elf/lib\libc.a(lib_a-atexit.o)
                                0x1bc (size before relaxing)
 .debug_str     0x00005736       0x41 c:/altera/12.1/nios2eds/bin/gnu/h-i686-mingw32/bin/../lib/gcc/nios2-elf/4.1.2/../../../../nios2-elf/lib\libc.a(lib_a-atoi.o)
                                0x4f9 (size before relaxing)
 .debug_str     0x00005777       0x42 c:/altera/12.1/nios2eds/bin/gnu/h-i686-mingw32/bin/../lib/gcc/nios2-elf/4.1.2/../../../../nios2-elf/lib\libc.a(lib_a-calloc.o)
                                0x50d (size before relaxing)
 .debug_str     0x000057b9       0x39 c:/altera/12.1/nios2eds/bin/gnu/h-i686-mingw32/bin/../lib/gcc/nios2-elf/4.1.2/../../../../nios2-elf/lib\libc.a(lib_a-exit.o)
                                0x509 (size before relaxing)
 .debug_str     0x000057f2       0x42 c:/altera/12.1/nios2eds/bin/gnu/h-i686-mingw32/bin/../lib/gcc/nios2-elf/4.1.2/../../../../nios2-elf/lib\libc.a(lib_a-memcmp.o)
                                0x167 (size before relaxing)
 .debug_str     0x00005834       0x46 c:/altera/12.1/nios2eds/bin/gnu/h-i686-mingw32/bin/../lib/gcc/nios2-elf/4.1.2/../../../../nios2-elf/lib\libc.a(lib_a-sprintf.o)
                                0x528 (size before relaxing)
 .debug_str     0x0000587a       0x42 c:/altera/12.1/nios2eds/bin/gnu/h-i686-mingw32/bin/../lib/gcc/nios2-elf/4.1.2/../../../../nios2-elf/lib\libc.a(lib_a-strchr.o)
                                0x172 (size before relaxing)
 .debug_str     0x000058bc       0x42 c:/altera/12.1/nios2eds/bin/gnu/h-i686-mingw32/bin/../lib/gcc/nios2-elf/4.1.2/../../../../nios2-elf/lib\libc.a(lib_a-strcpy.o)
                                0x182 (size before relaxing)
 .debug_str     0x000058fe       0x44 c:/altera/12.1/nios2eds/bin/gnu/h-i686-mingw32/bin/../lib/gcc/nios2-elf/4.1.2/../../../../nios2-elf/lib\libc.a(lib_a-strncmp.o)
                                0x169 (size before relaxing)
 .debug_str     0x00005942       0x5a c:/altera/12.1/nios2eds/bin/gnu/h-i686-mingw32/bin/../lib/gcc/nios2-elf/4.1.2/../../../../nios2-elf/lib\libc.a(lib_a-strtol.o)
                                0x53b (size before relaxing)
 .debug_str     0x0000599c       0x4e c:/altera/12.1/nios2eds/bin/gnu/h-i686-mingw32/bin/../lib/gcc/nios2-elf/4.1.2/../../../../nios2-elf/lib\libc.a(lib_a-vprintf.o)
                                0x523 (size before relaxing)
 .debug_str     0x000059ea       0x51 c:/altera/12.1/nios2eds/bin/gnu/h-i686-mingw32/bin/../lib/gcc/nios2-elf/4.1.2/../../../../nios2-elf/lib\libc.a(lib_a-vsprintf.o)
                                0x52b (size before relaxing)
 .debug_str     0x00005a3b       0x51 c:/altera/12.1/nios2eds/bin/gnu/h-i686-mingw32/bin/../lib/gcc/nios2-elf/4.1.2/../../../../nios2-elf/lib\libc.a(lib_a-__atexit.o)
                                0x521 (size before relaxing)
 .debug_str     0x00005a8c       0x7b c:/altera/12.1/nios2eds/bin/gnu/h-i686-mingw32/bin/../lib/gcc/nios2-elf/4.1.2/../../../../nios2-elf/lib\libc.a(lib_a-__call_atexit.o)
                                0x54b (size before relaxing)

.debug_loc      0x00000000    0x17bb2
 *(.debug_loc)
 .debug_loc     0x00000000       0x81 obj/default/alt_error_handler.o
 .debug_loc     0x00000081       0x56 obj/default/main.o
 .debug_loc     0x000000d7      0x12d obj/default/network_utilities.o
 .debug_loc     0x00000204      0x208 obj/default/COMM_CarProtocol/ADCInfoMessage.o
 .debug_loc     0x0000040c      0x208 obj/default/COMM_CarProtocol/ADCValuesMessage.o
 .debug_loc     0x00000614      0x208 obj/default/COMM_CarProtocol/AccelerationValuesMessage.o
 .debug_loc     0x0000081c      0x331 obj/default/COMM_CarProtocol/CarMessage.o
 .debug_loc     0x00000b4d      0x230 obj/default/COMM_CarProtocol/CarProtocol.o
 .debug_loc     0x00000d7d      0x208 obj/default/COMM_CarProtocol/MotorMeasurementMessage.o
 .debug_loc     0x00000f85      0x208 obj/default/COMM_CarProtocol/MotorVelocityMessage.o
 .debug_loc     0x0000118d      0x208 obj/default/COMM_CarProtocol/UltrasoundDistanceMessage.o
 .debug_loc     0x00001395      0x208 obj/default/COMM_CarProtocol/WelcomeMessage.o
 .debug_loc     0x0000159d      0x204 obj/default/CarMessages/CControlMessage.o
 .debug_loc     0x000017a1      0x204 obj/default/CarMessages/CEmergencyBrakeMessage.o
 .debug_loc     0x000019a5       0x56 obj/default/etc/utility.o
 .debug_loc     0x000019fb       0x2b obj/default/external_drivers/accelerometer_interface.o
 .debug_loc     0x00001a26       0x2b obj/default/external_drivers/adc_interface.o
 .debug_loc     0x00001a51       0x2b obj/default/external_drivers/ultrasound_interface.o
 .debug_loc     0x00001a7c      0x184 obj/default/sensors/ADCSensor.o
 .debug_loc     0x00001c00      0x1da obj/default/sensors/AccelerationSensor.o
 .debug_loc     0x00001dda      0x183 obj/default/sensors/SensorState.o
 .debug_loc     0x00001f5d      0x184 obj/default/sensors/UltrasoundSensor.o
 .debug_loc     0x000020e1      0x104 obj/default/socketserver.o
 .debug_loc     0x000021e5      0x1ae obj/default/terasic_lib/I2C.o
 .debug_loc     0x00002393       0xd7 obj/default/terasic_lib/accelerometer_adxl345_spi.o
 .debug_loc     0x0000246a       0x2b obj/default/terasic_lib/adc_spi_read.o
 .debug_loc     0x00002495       0xd7 obj/default/terasic_lib/terasic_spi.o
 .debug_loc     0x0000256c      0xd34 c:/altera/12.1/nios2eds/bin/gnu/h-i686-mingw32/bin/../lib/gcc/nios2-elf/4.1.2/../../../../nios2-elf/lib\libstdc++.a(eh_personality.o)
 .debug_loc     0x000032a0       0x81 c:/altera/12.1/nios2eds/bin/gnu/h-i686-mingw32/bin/../lib/gcc/nios2-elf/4.1.2/../../../../nios2-elf/lib\libstdc++.a(eh_exception.o)
 .debug_loc     0x00003321       0x1e c:/altera/12.1/nios2eds/bin/gnu/h-i686-mingw32/bin/../lib/gcc/nios2-elf/4.1.2/../../../../nios2-elf/lib\libstdc++.a(del_op.o)
 .debug_loc     0x0000333f       0x3d c:/altera/12.1/nios2eds/bin/gnu/h-i686-mingw32/bin/../lib/gcc/nios2-elf/4.1.2/../../../../nios2-elf/lib\libstdc++.a(eh_call.o)
 .debug_loc     0x0000337c      0x26f c:/altera/12.1/nios2eds/bin/gnu/h-i686-mingw32/bin/../lib/gcc/nios2-elf/4.1.2/../../../../nios2-elf/lib\libstdc++.a(class_type_info.o)
 .debug_loc     0x000035eb       0x5d c:/altera/12.1/nios2eds/bin/gnu/h-i686-mingw32/bin/../lib/gcc/nios2-elf/4.1.2/../../../../nios2-elf/lib\libstdc++.a(new_op.o)
 .debug_loc     0x00003648      0x390 c:/altera/12.1/nios2eds/bin/gnu/h-i686-mingw32/bin/../lib/gcc/nios2-elf/4.1.2/../../../../nios2-elf/lib\libstdc++.a(si_class_type_info.o)
 .debug_loc     0x000039d8       0xd5 c:/altera/12.1/nios2eds/bin/gnu/h-i686-mingw32/bin/../lib/gcc/nios2-elf/4.1.2/../../../../nios2-elf/lib\libstdc++.a(eh_alloc.o)
 .debug_loc     0x00003aad       0x13 c:/altera/12.1/nios2eds/bin/gnu/h-i686-mingw32/bin/../lib/gcc/nios2-elf/4.1.2/../../../../nios2-elf/lib\libstdc++.a(tinfo.o)
 .debug_loc     0x00003ac0      0x16b c:/altera/12.1/nios2eds/bin/gnu/h-i686-mingw32/bin/../lib/gcc/nios2-elf/4.1.2/../../../../nios2-elf/lib\libstdc++.a(eh_throw.o)
 .debug_loc     0x00003c2b       0xd5 c:/altera/12.1/nios2eds/bin/gnu/h-i686-mingw32/bin/../lib/gcc/nios2-elf/4.1.2/../../../../nios2-elf/lib\libstdc++.a(eh_terminate.o)
 .debug_loc     0x00003d00       0x81 c:/altera/12.1/nios2eds/bin/gnu/h-i686-mingw32/bin/../lib/gcc/nios2-elf/4.1.2/../../../../nios2-elf/lib\libstdc++.a(new_handler.o)
 .debug_loc     0x00003d81      0x1f3 c:/altera/12.1/nios2eds/bin/gnu/h-i686-mingw32/bin/../lib/gcc/nios2-elf/4.1.2/../../../../nios2-elf/lib\libstdc++.a(eh_catch.o)
 .debug_loc     0x00003f74      0x1d2 c:/altera/12.1/nios2eds/bin/gnu/h-i686-mingw32/bin/../lib/gcc/nios2-elf/4.1.2\libgcc.a(lib2-divmod.o)
 .debug_loc     0x00004146      0x4c8 c:/altera/12.1/nios2eds/bin/gnu/h-i686-mingw32/bin/../lib/gcc/nios2-elf/4.1.2\libgcc.a(unwind-sjlj.o)
 .debug_loc     0x0000460e       0x1f c:/altera/12.1/nios2eds/bin/gnu/h-i686-mingw32/bin/../lib/gcc/nios2-elf/4.1.2/../../../../nios2-elf/lib\libc.a(lib_a-abort.o)
 .debug_loc     0x0000462d       0xf1 c:/altera/12.1/nios2eds/bin/gnu/h-i686-mingw32/bin/../lib/gcc/nios2-elf/4.1.2/../../../../nios2-elf/lib\libc.a(lib_a-fprintf.o)
 .debug_loc     0x0000471e      0x18e c:/altera/12.1/nios2eds/bin/gnu/h-i686-mingw32/bin/../lib/gcc/nios2-elf/4.1.2/../../../../nios2-elf/lib\libc.a(lib_a-fwrite.o)
 .debug_loc     0x000048ac      0x10b c:/altera/12.1/nios2eds/bin/gnu/h-i686-mingw32/bin/../lib/gcc/nios2-elf/4.1.2/../../../../nios2-elf/lib\libc.a(lib_a-getc.o)
 .debug_loc     0x000049b7       0x3c c:/altera/12.1/nios2eds/bin/gnu/h-i686-mingw32/bin/../lib/gcc/nios2-elf/4.1.2/../../../../nios2-elf/lib\libc.a(lib_a-malloc.o)
 .debug_loc     0x000049f3      0xaeb c:/altera/12.1/nios2eds/bin/gnu/h-i686-mingw32/bin/../lib/gcc/nios2-elf/4.1.2/../../../../nios2-elf/lib\libc.a(lib_a-mallocr.o)
 .debug_loc     0x000054de      0x117 c:/altera/12.1/nios2eds/bin/gnu/h-i686-mingw32/bin/../lib/gcc/nios2-elf/4.1.2/../../../../nios2-elf/lib\libc.a(lib_a-memmove.o)
 .debug_loc     0x000055f5       0xa1 c:/altera/12.1/nios2eds/bin/gnu/h-i686-mingw32/bin/../lib/gcc/nios2-elf/4.1.2/../../../../nios2-elf/lib\libc.a(lib_a-memset.o)
 .debug_loc     0x00005696       0xa2 c:/altera/12.1/nios2eds/bin/gnu/h-i686-mingw32/bin/../lib/gcc/nios2-elf/4.1.2/../../../../nios2-elf/lib\libc.a(lib_a-perror.o)
 .debug_loc     0x00005738       0xcb c:/altera/12.1/nios2eds/bin/gnu/h-i686-mingw32/bin/../lib/gcc/nios2-elf/4.1.2/../../../../nios2-elf/lib\libc.a(lib_a-printf.o)
 .debug_loc     0x00005803      0x20d c:/altera/12.1/nios2eds/bin/gnu/h-i686-mingw32/bin/../lib/gcc/nios2-elf/4.1.2/../../../../nios2-elf/lib\libc.a(lib_a-putc.o)
 .debug_loc     0x00005a10       0x44 c:/altera/12.1/nios2eds/bin/gnu/h-i686-mingw32/bin/../lib/gcc/nios2-elf/4.1.2/../../../../nios2-elf/lib\libc.a(lib_a-putchar.o)
 .debug_loc     0x00005a54       0xa2 c:/altera/12.1/nios2eds/bin/gnu/h-i686-mingw32/bin/../lib/gcc/nios2-elf/4.1.2/../../../../nios2-elf/lib\libc.a(lib_a-puts.o)
 .debug_loc     0x00005af6       0x6e c:/altera/12.1/nios2eds/bin/gnu/h-i686-mingw32/bin/../lib/gcc/nios2-elf/4.1.2/../../../../nios2-elf/lib\libc.a(lib_a-rget.o)
 .debug_loc     0x00005b64       0x5b c:/altera/12.1/nios2eds/bin/gnu/h-i686-mingw32/bin/../lib/gcc/nios2-elf/4.1.2/../../../../nios2-elf/lib\libc.a(lib_a-sbrkr.o)
 .debug_loc     0x00005bbf      0x3b4 c:/altera/12.1/nios2eds/bin/gnu/h-i686-mingw32/bin/../lib/gcc/nios2-elf/4.1.2/../../../../nios2-elf/lib\libc.a(lib_a-signal.o)
 .debug_loc     0x00005f73       0x8c c:/altera/12.1/nios2eds/bin/gnu/h-i686-mingw32/bin/../lib/gcc/nios2-elf/4.1.2/../../../../nios2-elf/lib\libc.a(lib_a-signalr.o)
 .debug_loc     0x00005fff      0x418 c:/altera/12.1/nios2eds/bin/gnu/h-i686-mingw32/bin/../lib/gcc/nios2-elf/4.1.2/../../../../nios2-elf/lib\libc.a(lib_a-strerror.o)
 .debug_loc     0x00006417       0x3c c:/altera/12.1/nios2eds/bin/gnu/h-i686-mingw32/bin/../lib/gcc/nios2-elf/4.1.2/../../../../nios2-elf/lib\libc.a(lib_a-strlen.o)
 .debug_loc     0x00006453     0x1e0d c:/altera/12.1/nios2eds/bin/gnu/h-i686-mingw32/bin/../lib/gcc/nios2-elf/4.1.2/../../../../nios2-elf/lib\libc.a(lib_a-vfprintf.o)
 .debug_loc     0x00008260      0x157 c:/altera/12.1/nios2eds/bin/gnu/h-i686-mingw32/bin/../lib/gcc/nios2-elf/4.1.2/../../../../nios2-elf/lib\libc.a(lib_a-wbuf.o)
 .debug_loc     0x000083b7       0x7c c:/altera/12.1/nios2eds/bin/gnu/h-i686-mingw32/bin/../lib/gcc/nios2-elf/4.1.2/../../../../nios2-elf/lib\libc.a(lib_a-wsetup.o)
 .debug_loc     0x00008433     0x1dfa c:/altera/12.1/nios2eds/bin/gnu/h-i686-mingw32/bin/../lib/gcc/nios2-elf/4.1.2/../../../../nios2-elf/lib\libc.a(lib_a-dtoa.o)
 .debug_loc     0x0000a22d      0x1f6 c:/altera/12.1/nios2eds/bin/gnu/h-i686-mingw32/bin/../lib/gcc/nios2-elf/4.1.2/../../../../nios2-elf/lib\libc.a(lib_a-fflush.o)
 .debug_loc     0x0000a423      0x19f c:/altera/12.1/nios2eds/bin/gnu/h-i686-mingw32/bin/../lib/gcc/nios2-elf/4.1.2/../../../../nios2-elf/lib\libc.a(lib_a-findfp.o)
 .debug_loc     0x0000a5c2      0x14d c:/altera/12.1/nios2eds/bin/gnu/h-i686-mingw32/bin/../lib/gcc/nios2-elf/4.1.2/../../../../nios2-elf/lib\libc.a(lib_a-fputc.o)
 .debug_loc     0x0000a70f       0xcb c:/altera/12.1/nios2eds/bin/gnu/h-i686-mingw32/bin/../lib/gcc/nios2-elf/4.1.2/../../../../nios2-elf/lib\libc.a(lib_a-fputs.o)
 .debug_loc     0x0000a7da      0x4a7 c:/altera/12.1/nios2eds/bin/gnu/h-i686-mingw32/bin/../lib/gcc/nios2-elf/4.1.2/../../../../nios2-elf/lib\libc.a(lib_a-freer.o)
 .debug_loc     0x0000ac81      0x4e4 c:/altera/12.1/nios2eds/bin/gnu/h-i686-mingw32/bin/../lib/gcc/nios2-elf/4.1.2/../../../../nios2-elf/lib\libc.a(lib_a-fvwrite.o)
 .debug_loc     0x0000b165      0x1d2 c:/altera/12.1/nios2eds/bin/gnu/h-i686-mingw32/bin/../lib/gcc/nios2-elf/4.1.2/../../../../nios2-elf/lib\libc.a(lib_a-fwalk.o)
 .debug_loc     0x0000b337       0xe1 c:/altera/12.1/nios2eds/bin/gnu/h-i686-mingw32/bin/../lib/gcc/nios2-elf/4.1.2/../../../../nios2-elf/lib\libc.a(lib_a-locale.o)
 .debug_loc     0x0000b418      0x11c c:/altera/12.1/nios2eds/bin/gnu/h-i686-mingw32/bin/../lib/gcc/nios2-elf/4.1.2/../../../../nios2-elf/lib\libc.a(lib_a-makebuf.o)
 .debug_loc     0x0000b534      0x106 c:/altera/12.1/nios2eds/bin/gnu/h-i686-mingw32/bin/../lib/gcc/nios2-elf/4.1.2/../../../../nios2-elf/lib\libc.a(lib_a-memchr.o)
 .debug_loc     0x0000b63a       0xca c:/altera/12.1/nios2eds/bin/gnu/h-i686-mingw32/bin/../lib/gcc/nios2-elf/4.1.2/../../../../nios2-elf/lib\libc.a(lib_a-memcpy.o)
 .debug_loc     0x0000b704     0x14d6 c:/altera/12.1/nios2eds/bin/gnu/h-i686-mingw32/bin/../lib/gcc/nios2-elf/4.1.2/../../../../nios2-elf/lib\libc.a(lib_a-mprec.o)
 .debug_loc     0x0000cbda      0x8c0 c:/altera/12.1/nios2eds/bin/gnu/h-i686-mingw32/bin/../lib/gcc/nios2-elf/4.1.2/../../../../nios2-elf/lib\libc.a(lib_a-reallocr.o)
 .debug_loc     0x0000d49a       0xd1 c:/altera/12.1/nios2eds/bin/gnu/h-i686-mingw32/bin/../lib/gcc/nios2-elf/4.1.2/../../../../nios2-elf/lib\libc.a(lib_a-refill.o)
 .debug_loc     0x0000d56b       0x36 c:/altera/12.1/nios2eds/bin/gnu/h-i686-mingw32/bin/../lib/gcc/nios2-elf/4.1.2/../../../../nios2-elf/lib\libc.a(lib_a-s_isinfd.o)
 .debug_loc     0x0000d5a1       0x18 c:/altera/12.1/nios2eds/bin/gnu/h-i686-mingw32/bin/../lib/gcc/nios2-elf/4.1.2/../../../../nios2-elf/lib\libc.a(lib_a-s_isnand.o)
 .debug_loc     0x0000d5b9      0x21f c:/altera/12.1/nios2eds/bin/gnu/h-i686-mingw32/bin/../lib/gcc/nios2-elf/4.1.2/../../../../nios2-elf/lib\libc.a(lib_a-stdio.o)
 .debug_loc     0x0000d7d8       0x65 c:/altera/12.1/nios2eds/bin/gnu/h-i686-mingw32/bin/../lib/gcc/nios2-elf/4.1.2/../../../../nios2-elf/lib\libc.a(lib_a-strcmp.o)
 .debug_loc     0x0000d83d       0x97 c:/altera/12.1/nios2eds/bin/gnu/h-i686-mingw32/bin/../lib/gcc/nios2-elf/4.1.2/../../../../nios2-elf/lib\libc.a(lib_a-writer.o)
 .debug_loc     0x0000d8d4       0xe9 c:/altera/12.1/nios2eds/bin/gnu/h-i686-mingw32/bin/../lib/gcc/nios2-elf/4.1.2/../../../../nios2-elf/lib\libc.a(lib_a-callocr.o)
 .debug_loc     0x0000d9bd       0x5b c:/altera/12.1/nios2eds/bin/gnu/h-i686-mingw32/bin/../lib/gcc/nios2-elf/4.1.2/../../../../nios2-elf/lib\libc.a(lib_a-closer.o)
 .debug_loc     0x0000da18       0xe4 c:/altera/12.1/nios2eds/bin/gnu/h-i686-mingw32/bin/../lib/gcc/nios2-elf/4.1.2/../../../../nios2-elf/lib\libc.a(lib_a-fclose.o)
 .debug_loc     0x0000dafc       0x79 c:/altera/12.1/nios2eds/bin/gnu/h-i686-mingw32/bin/../lib/gcc/nios2-elf/4.1.2/../../../../nios2-elf/lib\libc.a(lib_a-fstatr.o)
 .debug_loc     0x0000db75       0x5b c:/altera/12.1/nios2eds/bin/gnu/h-i686-mingw32/bin/../lib/gcc/nios2-elf/4.1.2/../../../../nios2-elf/lib\libc.a(lib_a-isattyr.o)
 .debug_loc     0x0000dbd0       0x97 c:/altera/12.1/nios2eds/bin/gnu/h-i686-mingw32/bin/../lib/gcc/nios2-elf/4.1.2/../../../../nios2-elf/lib\libc.a(lib_a-lseekr.o)
 .debug_loc     0x0000dc67       0x97 c:/altera/12.1/nios2eds/bin/gnu/h-i686-mingw32/bin/../lib/gcc/nios2-elf/4.1.2/../../../../nios2-elf/lib\libc.a(lib_a-readr.o)
 .debug_loc     0x0000dcfe      0xc12 c:/altera/12.1/nios2eds/bin/gnu/h-i686-mingw32/bin/../lib/gcc/nios2-elf/4.1.2\libgcc.a(_udivdi3.o)
 .debug_loc     0x0000e910      0xc26 c:/altera/12.1/nios2eds/bin/gnu/h-i686-mingw32/bin/../lib/gcc/nios2-elf/4.1.2\libgcc.a(_umoddi3.o)
 .debug_loc     0x0000f536      0x47a c:/altera/12.1/nios2eds/bin/gnu/h-i686-mingw32/bin/../lib/gcc/nios2-elf/4.1.2\libgcc.a(_addsub_df.o)
 .debug_loc     0x0000f9b0      0x3b4 c:/altera/12.1/nios2eds/bin/gnu/h-i686-mingw32/bin/../lib/gcc/nios2-elf/4.1.2\libgcc.a(_mul_df.o)
 .debug_loc     0x0000fd64      0x1df c:/altera/12.1/nios2eds/bin/gnu/h-i686-mingw32/bin/../lib/gcc/nios2-elf/4.1.2\libgcc.a(_div_df.o)
 .debug_loc     0x0000ff43       0x70 c:/altera/12.1/nios2eds/bin/gnu/h-i686-mingw32/bin/../lib/gcc/nios2-elf/4.1.2\libgcc.a(_eq_df.o)
 .debug_loc     0x0000ffb3       0x70 c:/altera/12.1/nios2eds/bin/gnu/h-i686-mingw32/bin/../lib/gcc/nios2-elf/4.1.2\libgcc.a(_ne_df.o)
 .debug_loc     0x00010023       0x70 c:/altera/12.1/nios2eds/bin/gnu/h-i686-mingw32/bin/../lib/gcc/nios2-elf/4.1.2\libgcc.a(_gt_df.o)
 .debug_loc     0x00010093       0x70 c:/altera/12.1/nios2eds/bin/gnu/h-i686-mingw32/bin/../lib/gcc/nios2-elf/4.1.2\libgcc.a(_ge_df.o)
 .debug_loc     0x00010103       0x70 c:/altera/12.1/nios2eds/bin/gnu/h-i686-mingw32/bin/../lib/gcc/nios2-elf/4.1.2\libgcc.a(_lt_df.o)
 .debug_loc     0x00010173       0x9a c:/altera/12.1/nios2eds/bin/gnu/h-i686-mingw32/bin/../lib/gcc/nios2-elf/4.1.2\libgcc.a(_si_to_df.o)
 .debug_loc     0x0001020d       0x8b c:/altera/12.1/nios2eds/bin/gnu/h-i686-mingw32/bin/../lib/gcc/nios2-elf/4.1.2\libgcc.a(_df_to_si.o)
 .debug_loc     0x00010298       0x5b c:/altera/12.1/nios2eds/bin/gnu/h-i686-mingw32/bin/../lib/gcc/nios2-elf/4.1.2\libgcc.a(_usi_to_df.o)
 .debug_loc     0x000102f3       0xc4 c:/altera/12.1/nios2eds/bin/gnu/h-i686-mingw32/bin/../lib/gcc/nios2-elf/4.1.2\libgcc.a(_muldi3.o)
 .debug_loc     0x000103b7       0x1e c:/altera/12.1/nios2eds/bin/gnu/h-i686-mingw32/bin/../lib/gcc/nios2-elf/4.1.2\libgcc.a(_clzsi2.o)
 .debug_loc     0x000103d5      0x184 c:/altera/12.1/nios2eds/bin/gnu/h-i686-mingw32/bin/../lib/gcc/nios2-elf/4.1.2\libgcc.a(_pack_df.o)
 .debug_loc     0x00010559       0xe5 c:/altera/12.1/nios2eds/bin/gnu/h-i686-mingw32/bin/../lib/gcc/nios2-elf/4.1.2\libgcc.a(_unpack_df.o)
 .debug_loc     0x0001063e       0x56 ../Car2X_communication_bsp/\libucosii_bsp.a(alt_exit.o)
 .debug_loc     0x00010694       0x56 ../Car2X_communication_bsp/\libucosii_bsp.a(alt_fstat.o)
 .debug_loc     0x000106ea       0x2b ../Car2X_communication_bsp/\libucosii_bsp.a(alt_getpid.o)
 .debug_loc     0x00010715       0x57 ../Car2X_communication_bsp/\libucosii_bsp.a(alt_isatty.o)
 .debug_loc     0x0001076c       0x56 ../Car2X_communication_bsp/\libucosii_bsp.a(alt_kill.o)
 .debug_loc     0x000107c2       0x56 ../Car2X_communication_bsp/\libucosii_bsp.a(alt_load.o)
 .debug_loc     0x00010818       0x56 ../Car2X_communication_bsp/\libucosii_bsp.a(alt_lseek.o)
 .debug_loc     0x0001086e       0x2b ../Car2X_communication_bsp/\libucosii_bsp.a(alt_main.o)
 .debug_loc     0x00010899       0x2b ../Car2X_communication_bsp/\libucosii_bsp.a(alt_sbrk.o)
 .debug_loc     0x000108c4       0x56 ../Car2X_communication_bsp/\libucosii_bsp.a(alt_tick.o)
 .debug_loc     0x0001091a       0x2b ../Car2X_communication_bsp/\libucosii_bsp.a(alt_usleep.o)
 .debug_loc     0x00010945       0x57 ../Car2X_communication_bsp/\libucosii_bsp.a(alt_env_lock.o)
 .debug_loc     0x0001099c       0x57 ../Car2X_communication_bsp/\libucosii_bsp.a(alt_malloc_lock.o)
 .debug_loc     0x000109f3      0x5e2 ../Car2X_communication_bsp/\libucosii_bsp.a(os_core.o)
 .debug_loc     0x00010fd5       0x2b ../Car2X_communication_bsp/\libucosii_bsp.a(os_dbg.o)
 .debug_loc     0x00011000      0x232 ../Car2X_communication_bsp/\libucosii_bsp.a(os_flag.o)
 .debug_loc     0x00011232      0x12d ../Car2X_communication_bsp/\libucosii_bsp.a(os_mem.o)
 .debug_loc     0x0001135f      0x1da ../Car2X_communication_bsp/\libucosii_bsp.a(os_q.o)
 .debug_loc     0x00011539      0x158 ../Car2X_communication_bsp/\libucosii_bsp.a(os_sem.o)
 .debug_loc     0x00011691      0x207 ../Car2X_communication_bsp/\libucosii_bsp.a(os_task.o)
 .debug_loc     0x00011898       0xd7 ../Car2X_communication_bsp/\libucosii_bsp.a(os_time.o)
 .debug_loc     0x0001196f       0xd7 ../Car2X_communication_bsp/\libucosii_bsp.a(alt_sys_init.o)
 .debug_loc     0x00011a46       0xac ../Car2X_communication_bsp/\libucosii_bsp.a(altera_avalon_jtag_uart_fd.o)
 .debug_loc     0x00011af2       0xac ../Car2X_communication_bsp/\libucosii_bsp.a(altera_avalon_jtag_uart_init.o)
 .debug_loc     0x00011b9e       0x2b ../Car2X_communication_bsp/\libucosii_bsp.a(altera_avalon_jtag_uart_ioctl.o)
 .debug_loc     0x00011bc9       0x2c ../Car2X_communication_bsp/\libucosii_bsp.a(altera_avalon_jtag_uart_read.o)
 .debug_loc     0x00011bf5       0x2c ../Car2X_communication_bsp/\libucosii_bsp.a(altera_avalon_jtag_uart_write.o)
 .debug_loc     0x00011c21      0x183 ../Car2X_communication_bsp/\libucosii_bsp.a(altera_avalon_mutex.o)
 .debug_loc     0x00011da4      0x35c ../Car2X_communication_bsp/\libucosii_bsp.a(altera_avalon_sgdma.o)
 .debug_loc     0x00012100       0x56 ../Car2X_communication_bsp/\libucosii_bsp.a(altera_avalon_timer_sc.o)
 .debug_loc     0x00012156      0x73d ../Car2X_communication_bsp/\libucosii_bsp.a(altera_avalon_tse.o)
 .debug_loc     0x00012893      0x185 ../Car2X_communication_bsp/\libucosii_bsp.a(ins_tse_mac.o)
 .debug_loc     0x00012a18       0x2b ../Car2X_communication_bsp/\libucosii_bsp.a(alt_iniche_close.o)
 .debug_loc     0x00012a43       0x2b ../Car2X_communication_bsp/\libucosii_bsp.a(alt_iniche_dev.o)
 .debug_loc     0x00012a6e       0x2b ../Car2X_communication_bsp/\libucosii_bsp.a(alt_iniche_read.o)
 .debug_loc     0x00012a99       0x2b ../Car2X_communication_bsp/\libucosii_bsp.a(alt_iniche_write.o)
 .debug_loc     0x00012ac4      0x102 ../Car2X_communication_bsp/\libucosii_bsp.a(ipnet.o)
 .debug_loc     0x00012bc6       0xac ../Car2X_communication_bsp/\libucosii_bsp.a(ipstart.o)
 .debug_loc     0x00012c72      0x159 ../Car2X_communication_bsp/\libucosii_bsp.a(igmp_cmn.o)
 .debug_loc     0x00012dcb      0x1af ../Car2X_communication_bsp/\libucosii_bsp.a(bsdsock.o)
 .debug_loc     0x00012f7a       0x56 ../Car2X_communication_bsp/\libucosii_bsp.a(cksum.o)
 .debug_loc     0x00012fd0      0x204 ../Car2X_communication_bsp/\libucosii_bsp.a(in_utils.o)
 .debug_loc     0x000131d4       0x81 ../Car2X_communication_bsp/\libucosii_bsp.a(netmain.o)
 .debug_loc     0x00013255      0x12f ../Car2X_communication_bsp/\libucosii_bsp.a(tk_crnos.o)
 .debug_loc     0x00013384      0x102 ../Car2X_communication_bsp/\libucosii_bsp.a(pktalloc.o)
 .debug_loc     0x00013486       0x81 ../Car2X_communication_bsp/\libucosii_bsp.a(q.o)
 .debug_loc     0x00013507      0x158 ../Car2X_communication_bsp/\libucosii_bsp.a(brdutils.o)
 .debug_loc     0x0001365f       0xd8 ../Car2X_communication_bsp/\libucosii_bsp.a(osportco.o)
 .debug_loc     0x00013737      0x183 ../Car2X_communication_bsp/\libucosii_bsp.a(targnios.o)
 .debug_loc     0x000138ba      0x306 ../Car2X_communication_bsp/\libucosii_bsp.a(nptcp.o)
 .debug_loc     0x00013bc0       0x82 ../Car2X_communication_bsp/\libucosii_bsp.a(rawsock.o)
 .debug_loc     0x00013c42      0x332 ../Car2X_communication_bsp/\libucosii_bsp.a(sockcall.o)
 .debug_loc     0x00013f74      0x2b1 ../Car2X_communication_bsp/\libucosii_bsp.a(socket.o)
 .debug_loc     0x00014225      0x3dd ../Car2X_communication_bsp/\libucosii_bsp.a(socket2.o)
 .debug_loc     0x00014602      0x184 ../Car2X_communication_bsp/\libucosii_bsp.a(soselect.o)
 .debug_loc     0x00014786      0x12e ../Car2X_communication_bsp/\libucosii_bsp.a(tcp_in.o)
 .debug_loc     0x000148b4       0x82 ../Car2X_communication_bsp/\libucosii_bsp.a(tcp_out.o)
 .debug_loc     0x00014936      0x183 ../Car2X_communication_bsp/\libucosii_bsp.a(tcp_subr.o)
 .debug_loc     0x00014ab9       0x81 ../Car2X_communication_bsp/\libucosii_bsp.a(tcp_timr.o)
 .debug_loc     0x00014b3a       0xac ../Car2X_communication_bsp/\libucosii_bsp.a(tcp_usr.o)
 .debug_loc     0x00014be6       0x2b ../Car2X_communication_bsp/\libucosii_bsp.a(tcpport.o)
 .debug_loc     0x00014c11      0x102 ../Car2X_communication_bsp/\libucosii_bsp.a(udpsock.o)
 .debug_loc     0x00014d13       0x2b ../Car2X_communication_bsp/\libucosii_bsp.a(alt_alarm_start.o)
 .debug_loc     0x00014d3e       0x2b ../Car2X_communication_bsp/\libucosii_bsp.a(alt_busy_sleep.o)
 .debug_loc     0x00014d69       0x56 ../Car2X_communication_bsp/\libucosii_bsp.a(alt_close.o)
 .debug_loc     0x00014dbf       0x2b ../Car2X_communication_bsp/\libucosii_bsp.a(alt_dcache_flush_all.o)
 .debug_loc     0x00014dea       0x2b ../Car2X_communication_bsp/\libucosii_bsp.a(alt_dev.o)
 .debug_loc     0x00014e15       0x56 ../Car2X_communication_bsp/\libucosii_bsp.a(alt_dev_llist_insert.o)
 .debug_loc     0x00014e6b       0x2b ../Car2X_communication_bsp/\libucosii_bsp.a(alt_do_ctors.o)
 .debug_loc     0x00014e96       0x2b ../Car2X_communication_bsp/\libucosii_bsp.a(alt_do_dtors.o)
 .debug_loc     0x00014ec1       0x2b ../Car2X_communication_bsp/\libucosii_bsp.a(alt_find_dev.o)
 .debug_loc     0x00014eec       0x2b ../Car2X_communication_bsp/\libucosii_bsp.a(alt_icache_flush_all.o)
 .debug_loc     0x00014f17       0xac ../Car2X_communication_bsp/\libucosii_bsp.a(alt_iic.o)
 .debug_loc     0x00014fc3       0x2b ../Car2X_communication_bsp/\libucosii_bsp.a(alt_iic_isr_register.o)
 .debug_loc     0x00014fee       0x56 ../Car2X_communication_bsp/\libucosii_bsp.a(alt_io_redirect.o)
 .debug_loc     0x00015044       0x2b ../Car2X_communication_bsp/\libucosii_bsp.a(alt_irq_handler.o)
 .debug_loc     0x0001506f       0x81 ../Car2X_communication_bsp/\libucosii_bsp.a(alt_open.o)
 .debug_loc     0x000150f0       0x56 ../Car2X_communication_bsp/\libucosii_bsp.a(alt_read.o)
 .debug_loc     0x00015146       0x2b ../Car2X_communication_bsp/\libucosii_bsp.a(alt_release_fd.o)
 .debug_loc     0x00015171       0x2b ../Car2X_communication_bsp/\libucosii_bsp.a(alt_remap_cached.o)
 .debug_loc     0x0001519c       0x2b ../Car2X_communication_bsp/\libucosii_bsp.a(alt_remap_uncached.o)
 .debug_loc     0x000151c7       0x2b ../Car2X_communication_bsp/\libucosii_bsp.a(alt_uncached_malloc.o)
 .debug_loc     0x000151f2       0x56 ../Car2X_communication_bsp/\libucosii_bsp.a(alt_write.o)
 .debug_loc     0x00015248       0x2b ../Car2X_communication_bsp/\libucosii_bsp.a(altera_nios2_qsys_irq.o)
 .debug_loc     0x00015273      0x1ae ../Car2X_communication_bsp/\libucosii_bsp.a(os_cpu_c.o)
 .debug_loc     0x00015421      0x12d ../Car2X_communication_bsp/\libucosii_bsp.a(allports.o)
 .debug_loc     0x0001554e       0xac ../Car2X_communication_bsp/\libucosii_bsp.a(timeouts.o)
 .debug_loc     0x000155fa       0x56 ../Car2X_communication_bsp/\libucosii_bsp.a(tk_misc.o)
 .debug_loc     0x00015650       0x2b ../Car2X_communication_bsp/\libucosii_bsp.a(alt_iniche_fcntl.o)
 .debug_loc     0x0001567b      0x204 ../Car2X_communication_bsp/\libucosii_bsp.a(et_arp.o)
 .debug_loc     0x0001587f       0xac ../Car2X_communication_bsp/\libucosii_bsp.a(iface.o)
 .debug_loc     0x0001592b      0x207 ../Car2X_communication_bsp/\libucosii_bsp.a(ip.o)
 .debug_loc     0x00015b32      0x2b2 ../Car2X_communication_bsp/\libucosii_bsp.a(ip_reasm.o)
 .debug_loc     0x00015de4       0x81 ../Car2X_communication_bsp/\libucosii_bsp.a(ipdemux.o)
 .debug_loc     0x00015e65       0x81 ../Car2X_communication_bsp/\libucosii_bsp.a(ipmc.o)
 .debug_loc     0x00015ee6       0x81 ../Car2X_communication_bsp/\libucosii_bsp.a(ipport.o)
 .debug_loc     0x00015f67      0x102 ../Car2X_communication_bsp/\libucosii_bsp.a(ipraw.o)
 .debug_loc     0x00016069       0x81 ../Car2X_communication_bsp/\libucosii_bsp.a(iproute.o)
 .debug_loc     0x000160ea      0x12f ../Car2X_communication_bsp/\libucosii_bsp.a(udp.o)
 .debug_loc     0x00016219       0x2b ../Car2X_communication_bsp/\libucosii_bsp.a(igmp.o)
 .debug_loc     0x00016244       0xd7 ../Car2X_communication_bsp/\libucosii_bsp.a(igmp2.o)
 .debug_loc     0x0001631b       0xac ../Car2X_communication_bsp/\libucosii_bsp.a(ipopt.o)
 .debug_loc     0x000163c7       0x57 ../Car2X_communication_bsp/\libucosii_bsp.a(u_mctest.o)
 .debug_loc     0x0001641e      0x183 ../Car2X_communication_bsp/\libucosii_bsp.a(memdev.o)
 .debug_loc     0x000165a1      0x183 ../Car2X_communication_bsp/\libucosii_bsp.a(parseip.o)
 .debug_loc     0x00016724       0x2b ../Car2X_communication_bsp/\libucosii_bsp.a(tcpcksum.o)
 .debug_loc     0x0001674f       0x56 ../Car2X_communication_bsp/\libucosii_bsp.a(udp_open.o)
 .debug_loc     0x000167a5      0x158 ../Car2X_communication_bsp/\libucosii_bsp.a(in_pcb.o)
 .debug_loc     0x000168fd      0x4b4 ../Car2X_communication_bsp/\libucosii_bsp.a(vfsfiles.o)
 .debug_loc     0x00016db1       0x2b ../Car2X_communication_bsp/\libucosii_bsp.a(vfsport.o)
 .debug_loc     0x00016ddc       0x2b ../Car2X_communication_bsp/\libucosii_bsp.a(alt_dcache_flush.o)
 .debug_loc     0x00016e07       0x56 ../Car2X_communication_bsp/\libucosii_bsp.a(alt_fcntl.o)
 .debug_loc     0x00016e5d       0x2b ../Car2X_communication_bsp/\libucosii_bsp.a(alt_find_file.o)
 .debug_loc     0x00016e88       0x2b ../Car2X_communication_bsp/\libucosii_bsp.a(alt_get_fd.o)
 .debug_loc     0x00016eb3       0x2b ../Car2X_communication_bsp/\libucosii_bsp.a(alt_icache_flush.o)
 .debug_loc     0x00016ede       0xad ../Car2X_communication_bsp/\libucosii_bsp.a(icmp.o)
 .debug_loc     0x00016f8b       0x1e c:/altera/12.1/nios2eds/bin/gnu/h-i686-mingw32/bin/../lib/gcc/nios2-elf/4.1.2/../../../../nios2-elf/lib\libc.a(lib_a-atexit.o)
 .debug_loc     0x00016fa9       0x39 c:/altera/12.1/nios2eds/bin/gnu/h-i686-mingw32/bin/../lib/gcc/nios2-elf/4.1.2/../../../../nios2-elf/lib\libc.a(lib_a-atoi.o)
 .debug_loc     0x00016fe2       0x3c c:/altera/12.1/nios2eds/bin/gnu/h-i686-mingw32/bin/../lib/gcc/nios2-elf/4.1.2/../../../../nios2-elf/lib\libc.a(lib_a-calloc.o)
 .debug_loc     0x0001701e       0x3d c:/altera/12.1/nios2eds/bin/gnu/h-i686-mingw32/bin/../lib/gcc/nios2-elf/4.1.2/../../../../nios2-elf/lib\libc.a(lib_a-exit.o)
 .debug_loc     0x0001705b      0x114 c:/altera/12.1/nios2eds/bin/gnu/h-i686-mingw32/bin/../lib/gcc/nios2-elf/4.1.2/../../../../nios2-elf/lib\libc.a(lib_a-memcmp.o)
 .debug_loc     0x0001716f       0xc0 c:/altera/12.1/nios2eds/bin/gnu/h-i686-mingw32/bin/../lib/gcc/nios2-elf/4.1.2/../../../../nios2-elf/lib\libc.a(lib_a-sprintf.o)
 .debug_loc     0x0001722f       0xf3 c:/altera/12.1/nios2eds/bin/gnu/h-i686-mingw32/bin/../lib/gcc/nios2-elf/4.1.2/../../../../nios2-elf/lib\libc.a(lib_a-strchr.o)
 .debug_loc     0x00017322       0x8b c:/altera/12.1/nios2eds/bin/gnu/h-i686-mingw32/bin/../lib/gcc/nios2-elf/4.1.2/../../../../nios2-elf/lib\libc.a(lib_a-strcpy.o)
 .debug_loc     0x000173ad       0x78 c:/altera/12.1/nios2eds/bin/gnu/h-i686-mingw32/bin/../lib/gcc/nios2-elf/4.1.2/../../../../nios2-elf/lib\libc.a(lib_a-strncmp.o)
 .debug_loc     0x00017425      0x346 c:/altera/12.1/nios2eds/bin/gnu/h-i686-mingw32/bin/../lib/gcc/nios2-elf/4.1.2/../../../../nios2-elf/lib\libc.a(lib_a-strtol.o)
 .debug_loc     0x0001776b       0x8b c:/altera/12.1/nios2eds/bin/gnu/h-i686-mingw32/bin/../lib/gcc/nios2-elf/4.1.2/../../../../nios2-elf/lib\libc.a(lib_a-vprintf.o)
 .debug_loc     0x000177f6       0xd1 c:/altera/12.1/nios2eds/bin/gnu/h-i686-mingw32/bin/../lib/gcc/nios2-elf/4.1.2/../../../../nios2-elf/lib\libc.a(lib_a-vsprintf.o)
 .debug_loc     0x000178c7      0x120 c:/altera/12.1/nios2eds/bin/gnu/h-i686-mingw32/bin/../lib/gcc/nios2-elf/4.1.2/../../../../nios2-elf/lib\libc.a(lib_a-__atexit.o)
 .debug_loc     0x000179e7      0x1cb c:/altera/12.1/nios2eds/bin/gnu/h-i686-mingw32/bin/../lib/gcc/nios2-elf/4.1.2/../../../../nios2-elf/lib\libc.a(lib_a-__call_atexit.o)

.debug_macinfo
 *(.debug_macinfo)

.debug_weaknames
 *(.debug_weaknames)

.debug_funcnames
 *(.debug_funcnames)

.debug_typenames
 *(.debug_typenames)

.debug_varnames
 *(.debug_varnames)

.debug_alt_sim_info
                0x00000000       0x60
 *(.debug_alt_sim_info)
 .debug_alt_sim_info
                0x00000000       0x30 ../Car2X_communication_bsp//obj/HAL/src/crt0.o
 .debug_alt_sim_info
                0x00000030       0x30 ../Car2X_communication_bsp/\libucosii_bsp.a(alt_busy_sleep.o)
                0x08000000                __alt_data_end = 0x8000000
                0x08000000                PROVIDE (__alt_stack_pointer, __alt_data_end)
                0x04064f48                PROVIDE (__alt_stack_limit, __alt_stack_base)
                0x04064f48                PROVIDE (__alt_heap_start, end)
                0x08000000                PROVIDE (__alt_heap_limit, 0x8000000)
OUTPUT(Car2X_communication.elf elf32-littlenios2)

.debug_ranges   0x00000000      0xc08
 .debug_ranges  0x00000000       0x20 ../Car2X_communication_bsp//obj/HAL/src/crt0.o
 .debug_ranges  0x00000020       0x80 c:/altera/12.1/nios2eds/bin/gnu/h-i686-mingw32/bin/../lib/gcc/nios2-elf/4.1.2/../../../../nios2-elf/lib\libstdc++.a(eh_personality.o)
 .debug_ranges  0x000000a0       0x18 c:/altera/12.1/nios2eds/bin/gnu/h-i686-mingw32/bin/../lib/gcc/nios2-elf/4.1.2/../../../../nios2-elf/lib\libstdc++.a(class_type_info.o)
 .debug_ranges  0x000000b8       0x18 c:/altera/12.1/nios2eds/bin/gnu/h-i686-mingw32/bin/../lib/gcc/nios2-elf/4.1.2/../../../../nios2-elf/lib\libstdc++.a(new_op.o)
 .debug_ranges  0x000000d0       0x30 c:/altera/12.1/nios2eds/bin/gnu/h-i686-mingw32/bin/../lib/gcc/nios2-elf/4.1.2/../../../../nios2-elf/lib\libstdc++.a(eh_alloc.o)
 .debug_ranges  0x00000100       0x18 c:/altera/12.1/nios2eds/bin/gnu/h-i686-mingw32/bin/../lib/gcc/nios2-elf/4.1.2/../../../../nios2-elf/lib\libstdc++.a(eh_catch.o)
 .debug_ranges  0x00000118      0x168 c:/altera/12.1/nios2eds/bin/gnu/h-i686-mingw32/bin/../lib/gcc/nios2-elf/4.1.2\libgcc.a(unwind-sjlj.o)
 .debug_ranges  0x00000280       0x70 c:/altera/12.1/nios2eds/bin/gnu/h-i686-mingw32/bin/../lib/gcc/nios2-elf/4.1.2/../../../../nios2-elf/lib\libc.a(lib_a-mallocr.o)
 .debug_ranges  0x000002f0      0x168 c:/altera/12.1/nios2eds/bin/gnu/h-i686-mingw32/bin/../lib/gcc/nios2-elf/4.1.2/../../../../nios2-elf/lib\libc.a(lib_a-vfprintf.o)
 .debug_ranges  0x00000458       0x20 c:/altera/12.1/nios2eds/bin/gnu/h-i686-mingw32/bin/../lib/gcc/nios2-elf/4.1.2/../../../../nios2-elf/lib\libc.a(lib_a-fflush.o)
 .debug_ranges  0x00000478       0x28 c:/altera/12.1/nios2eds/bin/gnu/h-i686-mingw32/bin/../lib/gcc/nios2-elf/4.1.2/../../../../nios2-elf/lib\libc.a(lib_a-fvwrite.o)
 .debug_ranges  0x000004a0       0xa0 c:/altera/12.1/nios2eds/bin/gnu/h-i686-mingw32/bin/../lib/gcc/nios2-elf/4.1.2/../../../../nios2-elf/lib\libc.a(lib_a-fwalk.o)
 .debug_ranges  0x00000540      0x110 c:/altera/12.1/nios2eds/bin/gnu/h-i686-mingw32/bin/../lib/gcc/nios2-elf/4.1.2/../../../../nios2-elf/lib\libc.a(lib_a-reallocr.o)
 .debug_ranges  0x00000650       0x38 c:/altera/12.1/nios2eds/bin/gnu/h-i686-mingw32/bin/../lib/gcc/nios2-elf/4.1.2/../../../../nios2-elf/lib\libc.a(lib_a-callocr.o)
 .debug_ranges  0x00000688      0x188 c:/altera/12.1/nios2eds/bin/gnu/h-i686-mingw32/bin/../lib/gcc/nios2-elf/4.1.2\libgcc.a(_udivdi3.o)
 .debug_ranges  0x00000810      0x198 c:/altera/12.1/nios2eds/bin/gnu/h-i686-mingw32/bin/../lib/gcc/nios2-elf/4.1.2\libgcc.a(_umoddi3.o)
 .debug_ranges  0x000009a8       0x30 c:/altera/12.1/nios2eds/bin/gnu/h-i686-mingw32/bin/../lib/gcc/nios2-elf/4.1.2\libgcc.a(_addsub_df.o)
 .debug_ranges  0x000009d8       0x88 c:/altera/12.1/nios2eds/bin/gnu/h-i686-mingw32/bin/../lib/gcc/nios2-elf/4.1.2\libgcc.a(_mul_df.o)
 .debug_ranges  0x00000a60       0x50 c:/altera/12.1/nios2eds/bin/gnu/h-i686-mingw32/bin/../lib/gcc/nios2-elf/4.1.2\libgcc.a(_div_df.o)
 .debug_ranges  0x00000ab0       0x18 c:/altera/12.1/nios2eds/bin/gnu/h-i686-mingw32/bin/../lib/gcc/nios2-elf/4.1.2\libgcc.a(_usi_to_df.o)
 .debug_ranges  0x00000ac8       0x68 c:/altera/12.1/nios2eds/bin/gnu/h-i686-mingw32/bin/../lib/gcc/nios2-elf/4.1.2\libgcc.a(_muldi3.o)
 .debug_ranges  0x00000b30       0x28 c:/altera/12.1/nios2eds/bin/gnu/h-i686-mingw32/bin/../lib/gcc/nios2-elf/4.1.2\libgcc.a(_clzsi2.o)
 .debug_ranges  0x00000b58       0x28 c:/altera/12.1/nios2eds/bin/gnu/h-i686-mingw32/bin/../lib/gcc/nios2-elf/4.1.2\libgcc.a(_pack_df.o)
 .debug_ranges  0x00000b80       0x18 ../Car2X_communication_bsp/\libucosii_bsp.a(altera_avalon_jtag_uart_init.o)
 .debug_ranges  0x00000b98       0x28 ../Car2X_communication_bsp/\libucosii_bsp.a(alt_irq_entry.o)
 .debug_ranges  0x00000bc0       0x30 ../Car2X_communication_bsp/\libucosii_bsp.a(alt_exception_entry.o)
 .debug_ranges  0x00000bf0       0x18 c:/altera/12.1/nios2eds/bin/gnu/h-i686-mingw32/bin/../lib/gcc/nios2-elf/4.1.2/../../../../nios2-elf/lib\libc.a(lib_a-__call_atexit.o)
